 PhysXCommon_32

 Timestamp is 5d03fa77 (Fri Jun 14 21:50:15 2019)

 Preferred load address is 10000000

 Start         Length     Name                   Class
 0001:00000000 000044b0H .text$di                CODE
 0001:000044b0 00140293H .text$mn                CODE
 0002:00000000 000000dcH .idata$5                DATA
 0002:000000dc 00000004H .00cfg                  DATA
 0002:000000e0 00000004H .CRT$XCA                DATA
 0002:000000e4 00000a14H .CRT$XCU                DATA
 0002:00000af8 00000004H .CRT$XCZ                DATA
 0002:00000afc 00000004H .CRT$XIA                DATA
 0002:00000b00 00000004H .CRT$XIZ                DATA
 0002:00000b04 00000004H .CRT$XPA                DATA
 0002:00000b08 00000004H .CRT$XPZ                DATA
 0002:00000b0c 00000004H .CRT$XTA                DATA
 0002:00000b10 00000010H .CRT$XTZ                DATA
 0002:00000b14 00000000H .gfids$y                DATA
 0002:00000b20 00003728H .rdata                  DATA
 0002:00004248 00000048H .rdata$r                DATA
 0002:00004290 00000004H .rdata$sxdata           DATA
 0002:00004294 00000378H .rdata$zzzdbg           DATA
 0002:0000460c 00000004H .rtc$IAA                DATA
 0002:00004610 00000004H .rtc$IZZ                DATA
 0002:00004614 00000004H .rtc$TAA                DATA
 0002:00004618 00000008H .rtc$TZZ                DATA
 0002:00004620 0000007cH .xdata$x                DATA
 0002:0000469c 00000020H .didat$2                DATA
 0002:000046bc 00000020H .didat$3                DATA
 0002:000046dc 00000044H .didat$4                DATA
 0002:00004720 000002f4H .didat$6                DATA
 0002:00004a14 0000004cH .didat$7                DATA
 0002:00004a60 00009cc8H .edata                  DATA
 0002:0000e728 00000064H .idata$2                DATA
 0002:0000e78c 00000014H .idata$3                DATA
 0002:0000e7a0 000000dcH .idata$4                DATA
 0002:0000e87c 00000448H .idata$6                DATA
 0003:00000000 00000728H .data                   DATA
 0003:00000728 00000444H .data$r                 DATA
 0003:00000b6c 00000044H .didat$5                DATA
 0003:00000bb0 00002c70H .bss                    DATA
 0004:00000000 000004e0H _RDATA                  DATA
 0005:00000000 000000a0H .rsrc$01                DATA
 0005:000000a0 000004b0H .rsrc$02                DATA

  Address         Publics by Value              Rva+Base       Lib:Object

 0000:00000000       ___hybrid_auxiliary_iat    00000000     <absolute>
 0000:00000000       ___guard_longjmp_count     00000000     <absolute>
 0000:00000000       ___enclave_config          00000000     <absolute>
 0000:00000000       ___dynamic_value_reloc_table 00000000     <absolute>
 0000:00000000       ___hybrid_code_map         00000000     <absolute>
 0000:00000000       ___guard_iat_count         00000000     <absolute>
 0000:00000000       ___guard_iat_table         00000000     <absolute>
 0000:00000000       ___guard_fids_count        00000000     <absolute>
 0000:00000000       ___volatile_metadata       00000000     <absolute>
 0000:00000000       ___guard_longjmp_table     00000000     <absolute>
 0000:00000000       ___hybrid_code_map_count   00000000     <absolute>
 0000:00000000       ___guard_fids_table        00000000     <absolute>
 0000:00000001       ___safe_se_handler_count   00000001     <absolute>
 0000:00000100       ___guard_flags             00000100     <absolute>
 0000:00000000       ___ImageBase               10000000     <linker-defined>
 0001:000044b0       ?PxCreateCollection@@YAPAVPxCollection@physx@@XZ 100054b0 f   CmCollection.obj
 0001:000045b0       ?add@Collection@Cm@physx@@UAEXAAVPxBase@3@_K@Z 100055b0 f   CmCollection.obj
 0001:00004690       ?remove@Collection@Cm@physx@@UAEXAAVPxBase@3@@Z 10005690 f   CmCollection.obj
 0001:000046e0       ?contains@Collection@Cm@physx@@UBE_NAAVPxBase@3@@Z 100056e0 f   CmCollection.obj
 0001:00004700       ?addId@Collection@Cm@physx@@UAEXAAVPxBase@3@_K@Z 10005700 f   CmCollection.obj
 0001:000047a0       ?removeId@Collection@Cm@physx@@UAEX_K@Z 100057a0 f   CmCollection.obj
 0001:00004800       ?find@Collection@Cm@physx@@UBEPAVPxBase@3@_K@Z 10005800 f   CmCollection.obj
 0001:00004820       ?add@Collection@Cm@physx@@UAEXAAVPxCollection@3@@Z 10005820 f   CmCollection.obj
 0001:00004980       ?remove@Collection@Cm@physx@@UAEXAAVPxCollection@3@@Z 10005980 f   CmCollection.obj
 0001:00004b50       ?getNbObjects@Collection@Cm@physx@@UBEIXZ 10005b50 f   CmCollection.obj
 0001:00004b60       ?getObject@Collection@Cm@physx@@UBEAAVPxBase@3@I@Z 10005b60 f   CmCollection.obj
 0001:00004b70       ?getObjects@Collection@Cm@physx@@UBEIPAPAVPxBase@3@II@Z 10005b70 f   CmCollection.obj
 0001:00004bb0       ?getNbIds@Collection@Cm@physx@@UBEIXZ 10005bb0 f   CmCollection.obj
 0001:00004bc0       ?getId@Collection@Cm@physx@@UBE_KABVPxBase@3@@Z 10005bc0 f   CmCollection.obj
 0001:00004c00       ?getIds@Collection@Cm@physx@@UBEIPA_KII@Z 10005c00 f   CmCollection.obj
 0001:00004cc0       ??1PxCollection@physx@@MAE@XZ 10005cc0 f i CmCollection.obj
 0001:00004cd0       ??_GCollection@Cm@physx@@UAEPAXI@Z 10005cd0 f i CmCollection.obj
 0001:00004cd0       ??_ECollection@Cm@physx@@UAEPAXI@Z 10005cd0 f i CmCollection.obj
 0001:00004d40       ??_GPxCollection@physx@@MAEPAXI@Z 10005d40 f i CmCollection.obj
 0001:00004d40       ??_EPxCollection@physx@@MAEPAXI@Z 10005d40 f i CmCollection.obj
 0001:00004d70       ?__empty_global_delete@@YAXPAX@Z 10005d70 f i CmCollection.obj
 0001:00004d80       ?__empty_global_delete@@YAXPAXI@Z 10005d80 f i CmCollection.obj
 0001:00004d90       ?create@?$HashBase@V?$Pair@$$CB_KPAVPxBase@physx@@@shdfnd@physx@@_KU?$Hash@_K@23@UGetKey@?$HashMapBase@_KPAVPxBase@physx@@U?$Hash@_K@shdfnd@2@VNonTrackingAllocator@42@@internal@23@VNonTrackingAllocator@23@$00@internal@shdfnd@physx@@QAEPAV?$Pair@$$CB_KPAVPxBase@physx@@@34@AB_KAA_N@Z 10005d90 f i CmCollection.obj
 0001:00004e70       ?create@?$HashBase@V?$Pair@QAVPxBase@physx@@_K@shdfnd@physx@@PAVPxBase@3@U?$Hash@PAVPxBase@physx@@@23@UGetKey@?$HashMapBase@PAVPxBase@physx@@_KU?$Hash@PAVPxBase@physx@@@shdfnd@2@VNonTrackingAllocator@42@@internal@23@VNonTrackingAllocator@23@$00@internal@shdfnd@physx@@QAEPAV?$Pair@QAVPxBase@physx@@_K@34@ABQAVPxBase@4@AA_N@Z 10005e70 f i CmCollection.obj
 0001:00004f90       ?erase@?$HashBase@V?$Pair@QAVPxBase@physx@@_K@shdfnd@physx@@PAVPxBase@3@U?$Hash@PAVPxBase@physx@@@23@UGetKey@?$HashMapBase@PAVPxBase@physx@@_KU?$Hash@PAVPxBase@physx@@@shdfnd@2@VNonTrackingAllocator@42@@internal@23@VNonTrackingAllocator@23@$00@internal@shdfnd@physx@@QAE_NABQAVPxBase@4@@Z 10005f90 f i CmCollection.obj
 0001:000050c0       ?erase@?$HashMapBase@_KPAVPxBase@physx@@U?$Hash@_K@shdfnd@2@VNonTrackingAllocator@42@@internal@shdfnd@physx@@QAE_NAB_K@Z 100060c0 f i CmCollection.obj
 0001:000051a0       ?find@?$HashMapBase@PAVPxBase@physx@@_KU?$Hash@PAVPxBase@physx@@@shdfnd@2@VNonTrackingAllocator@42@@internal@shdfnd@physx@@QBEPBV?$Pair@QAVPxBase@physx@@_K@34@ABQAVPxBase@4@@Z 100061a0 f i CmCollection.obj
 0001:00005220       ?find@?$HashMapBase@_KPAVPxBase@physx@@U?$Hash@_K@shdfnd@2@VNonTrackingAllocator@42@@internal@shdfnd@physx@@QBEPBV?$Pair@$$CB_KPAVPxBase@physx@@@34@AB_K@Z 10006220 f i CmCollection.obj
 0001:00005290       ?hash@?$HashBase@V?$Pair@$$CB_KPAVPxBase@physx@@@shdfnd@physx@@_KU?$Hash@_K@23@UGetKey@?$HashMapBase@_KPAVPxBase@physx@@U?$Hash@_K@shdfnd@2@VNonTrackingAllocator@42@@internal@23@VNonTrackingAllocator@23@$00@internal@shdfnd@physx@@ABEIAB_KI@Z 10006290 f i CmCollection.obj
 0001:00005320       ?release@Collection@Cm@physx@@UAEXXZ 10006320 f i CmCollection.obj
 0001:00005330       ?reserveInternal@?$HashBase@V?$Pair@$$CB_KPAVPxBase@physx@@@shdfnd@physx@@_KU?$Hash@_K@23@UGetKey@?$HashMapBase@_KPAVPxBase@physx@@U?$Hash@_K@shdfnd@2@VNonTrackingAllocator@42@@internal@23@VNonTrackingAllocator@23@$00@internal@shdfnd@physx@@AAEXI@Z 10006330 f i CmCollection.obj
 0001:00005550       ?reserveInternal@?$HashBase@V?$Pair@QAVPxBase@physx@@_K@shdfnd@physx@@PAVPxBase@3@U?$Hash@PAVPxBase@physx@@@23@UGetKey@?$HashMapBase@PAVPxBase@physx@@_KU?$Hash@PAVPxBase@physx@@@shdfnd@2@VNonTrackingAllocator@42@@internal@23@VNonTrackingAllocator@23@$00@internal@shdfnd@physx@@AAEXI@Z 10006550 f i CmCollection.obj
 0001:000056f0       ?PxTransformFromPlaneEquation@physx@@YA?AVPxTransform@1@ABVPxPlane@1@@Z 100066f0 f   CmMathUtils.obj
 0001:000058c0       ?PxTransformFromSegment@physx@@YA?AVPxTransform@1@ABVPxVec3@1@0PAM@Z 100068c0 f   CmMathUtils.obj
 0001:00005a20       ??0PtrTable@Cm@physx@@QAE@XZ 10006a20 f   CmPtrTable.obj
 0001:00005a30       ??1PtrTable@Cm@physx@@QAE@XZ 10006a30 f   CmPtrTable.obj
 0001:00005a40       ?add@PtrTable@Cm@physx@@QAEXPAXAAVPtrTableStorageManager@23@@Z 10006a40 f   CmPtrTable.obj
 0001:00005b00       ?replaceWithLast@PtrTable@Cm@physx@@QAEXIAAVPtrTableStorageManager@23@@Z 10006b00 f   CmPtrTable.obj
 0001:00005bd0       ?clear@PtrTable@Cm@physx@@QAEXAAVPtrTableStorageManager@23@@Z 10006bd0 f   CmPtrTable.obj
 0001:00005c30       ?find@PtrTable@Cm@physx@@QBEIPBX@Z 10006c30 f   CmPtrTable.obj
 0001:00005c60       ?exportExtraData@PtrTable@Cm@physx@@QAEXAAVPxSerializationContext@3@@Z 10006c60 f   CmPtrTable.obj
 0001:00005c90       ?importExtraData@PtrTable@Cm@physx@@QAEXAAVPxDeserializationContext@3@@Z 10006c90 f   CmPtrTable.obj
 0001:00005cc0       ?getBinaryMetaData@PtrTable@Cm@physx@@SAXAAVPxOutputStream@3@@Z 10006cc0 f   CmPtrTable.obj
 0001:00005ea0       ?realloc@PtrTable@Cm@physx@@AAEXIIAAVPtrTableStorageManager@23@@Z 10006ea0 f   CmPtrTable.obj
 0001:00005f10       ??0PtrTable@Cm@physx@@QAE@W4PxEMPTY@2@@Z 10006f10 f i CmPtrTable.obj
 0001:00005f30       ??4PtrTable@Cm@physx@@QAEAAU012@ABU012@@Z 10006f30 f i CmPtrTable.obj
 0001:00005f50       ?getCount@PtrTable@Cm@physx@@QBEIXZ 10006f50 f i CmPtrTable.obj
 0001:00005f60       ?getPtrs@PtrTable@Cm@physx@@QAEPAPAXXZ 10006f60 f i CmPtrTable.obj
 0001:00005f70       ?getPtrs@PtrTable@Cm@physx@@QBEPBQAXXZ 10006f70 f i CmPtrTable.obj
 0001:00005f80       ??0RadixSort@Cm@physx@@QAE@XZ 10006f80 f   CmRadixSort.obj
 0001:00005fc0       ??1RadixSort@Cm@physx@@UAE@XZ 10006fc0 f   CmRadixSort.obj
 0001:00005fd0       ?Sort@RadixSort@Cm@physx@@QAEAAV123@PBIIW4RadixHint@23@@Z 10006fd0 f   CmRadixSort.obj
 0001:000065c0       ?Sort@RadixSort@Cm@physx@@QAEAAV123@PBMI@Z 100075c0 f   CmRadixSort.obj
 0001:00006ce0       ?SetBuffers@RadixSort@Cm@physx@@QAE_NPAI00PAPAI@Z 10007ce0 f   CmRadixSort.obj
 0001:00006d30       ??_ERadixSort@Cm@physx@@UAEPAXI@Z 10007d30 f i CmRadixSort.obj
 0001:00006da0       ??_GRadixSort@Cm@physx@@UAEPAXI@Z 10007da0 f i CmRadixSort.obj
 0001:00006dd0       ??_I@YGXPAXIIP6EX0@Z@Z     10007dd0 f i CmRadixSort.obj
 0001:00006e10       ?GetNbHits@RadixSort@Cm@physx@@QBEIXZ 10007e10 f i CmRadixSort.obj
 0001:00006e20       ?GetNbTotalCalls@RadixSort@Cm@physx@@QBEIXZ 10007e20 f i CmRadixSort.obj
 0001:00006e30       ?GetRanks@RadixSort@Cm@physx@@QBEPBIXZ 10007e30 f i CmRadixSort.obj
 0001:00006e40       ?GetRecyclable@RadixSort@Cm@physx@@QBEPAIXZ 10007e40 f i CmRadixSort.obj
 0001:00006e50       ?invalidateRanks@RadixSort@Cm@physx@@QAEXXZ 10007e50 f i CmRadixSort.obj
 0001:00006e60       ??0RadixSortBuffered@Cm@physx@@QAE@XZ 10007e60 f   CmRadixSortBuffered.obj
 0001:00006e80       ??1RadixSortBuffered@Cm@physx@@UAE@XZ 10007e80 f   CmRadixSortBuffered.obj
 0001:00006ee0       ?reset@RadixSortBuffered@Cm@physx@@QAEXXZ 10007ee0 f   CmRadixSortBuffered.obj
 0001:00006f30       ?Sort@RadixSortBuffered@Cm@physx@@QAEAAV123@PBIIW4RadixHint@23@@Z 10007f30 f   CmRadixSortBuffered.obj
 0001:00006fb0       ?Sort@RadixSortBuffered@Cm@physx@@QAEAAV123@PBMI@Z 10007fb0 f   CmRadixSortBuffered.obj
 0001:00007020       ?Resize@RadixSortBuffered@Cm@physx@@AAE_NI@Z 10008020 f   CmRadixSortBuffered.obj
 0001:000070d0       ??_ERadixSortBuffered@Cm@physx@@UAEPAXI@Z 100080d0 f i CmRadixSortBuffered.obj
 0001:000071a0       ??_GRadixSortBuffered@Cm@physx@@UAEPAXI@Z 100081a0 f i CmRadixSortBuffered.obj
 0001:000071c0       ?CheckResize@RadixSortBuffered@Cm@physx@@AAEXI@Z 100081c0 f i CmRadixSortBuffered.obj
 0001:000071f0       ??6RenderOutput@Cm@physx@@QAEAAV012@W4Primitive@012@@Z 100081f0 f   CmRenderOutput.obj
 0001:00007210       ??6RenderOutput@Cm@physx@@QAEAAV012@I@Z 10008210 f   CmRenderOutput.obj
 0001:00007220       ??6RenderOutput@Cm@physx@@QAEAAV012@ABVPxMat44@2@@Z 10008220 f   CmRenderOutput.obj
 0001:00007240       ??6RenderOutput@Cm@physx@@QAEAAV012@ABVPxTransform@2@@Z 10008240 f   CmRenderOutput.obj
 0001:000073e0       ??6RenderOutput@Cm@physx@@QAEAAV012@VPxVec3@2@@Z 100083e0 f   CmRenderOutput.obj
 0001:000077d0       ??6RenderOutput@Cm@physx@@QAEAAV012@ABUDebugText@12@@Z 100087d0 f   CmRenderOutput.obj
 0001:000079c0       ?outputCapsule@RenderOutput@Cm@physx@@QAEAAV123@MMABVPxMat44@3@@Z 100089c0 f   CmRenderOutput.obj
 0001:000084a0       ??0DebugText@Cm@physx@@QAA@ABVPxVec3@2@MPBDZZ 100094a0 f   CmRenderOutput.obj
 0001:00008500       ??6Cm@physx@@YAAAVRenderOutput@01@AAV201@ABUDebugBox@01@@Z 10009500 f   CmRenderOutput.obj
 0001:00008a00       ??6Cm@physx@@YAAAVRenderOutput@01@AAV201@ABUDebugArrow@01@@Z 10009a00 f   CmRenderOutput.obj
 0001:00008de0       ??6Cm@physx@@YAAAVRenderOutput@01@AAV201@ABUDebugBasis@01@@Z 10009de0 f   CmRenderOutput.obj
 0001:00008ef0       ??6Cm@physx@@YAAAVRenderOutput@01@AAV201@ABUDebugCircle@01@@Z 10009ef0 f   CmRenderOutput.obj
 0001:00008fc0       ??6Cm@physx@@YAAAVRenderOutput@01@AAV201@ABUDebugArc@01@@Z 10009fc0 f   CmRenderOutput.obj
 0001:000090b0       ??0DebugText@Cm@physx@@QAE@$$QAU012@@Z 1000a0b0 f i CmRenderOutput.obj
 0001:00009100       ??0DebugText@Cm@physx@@QAE@ABU012@@Z 1000a100 f i CmRenderOutput.obj
 0001:00009150       ??0PxDebugLine@physx@@QAE@ABVPxVec3@1@0ABI@Z 1000a150 f i CmRenderOutput.obj
 0001:00009190       ??0PxDebugTriangle@physx@@QAE@ABVPxVec3@1@00ABI@Z 1000a190 f i CmRenderOutput.obj
 0001:000091f0       ??0PxMat44@physx@@QAE@ABV01@@Z 1000a1f0 f i CmRenderOutput.obj
 0001:00009260       ??0RenderOutput@Cm@physx@@QAE@AAVRenderBuffer@12@@Z 1000a260 f i CmRenderOutput.obj
 0001:00009320       ??0RenderOutput@Cm@physx@@QAE@ABV012@@Z 1000a320 f i CmRenderOutput.obj
 0001:00009380       ??4DebugText@Cm@physx@@QAEAAU012@$$QAU012@@Z 1000a380 f i CmRenderOutput.obj
 0001:000093e0       ??4DebugText@Cm@physx@@QAEAAU012@ABU012@@Z 1000a3e0 f i CmRenderOutput.obj
 0001:00009440       ??4PxMat44@physx@@QAEAAV01@ABV01@@Z 1000a440 f i CmRenderOutput.obj
 0001:000094b0       ?allocate@?$Array@DV?$ReflectionAllocator@D@shdfnd@physx@@@shdfnd@physx@@IAEPADI@Z 1000a4b0 f i CmRenderOutput.obj
 0001:00009510       ?allocate@?$Array@UPxDebugLine@physx@@V?$ReflectionAllocator@UPxDebugLine@physx@@@shdfnd@2@@shdfnd@physx@@IAEPAUPxDebugLine@3@I@Z 1000a510 f i CmRenderOutput.obj
 0001:00009580       ?allocate@?$Array@UPxDebugPoint@physx@@V?$ReflectionAllocator@UPxDebugPoint@physx@@@shdfnd@2@@shdfnd@physx@@IAEPAUPxDebugPoint@3@I@Z 1000a580 f i CmRenderOutput.obj
 0001:000095f0       ?allocate@?$Array@UPxDebugText@physx@@V?$ReflectionAllocator@UPxDebugText@physx@@@shdfnd@2@@shdfnd@physx@@IAEPAUPxDebugText@3@I@Z 1000a5f0 f i CmRenderOutput.obj
 0001:00009660       ?allocate@?$Array@UPxDebugTriangle@physx@@V?$ReflectionAllocator@UPxDebugTriangle@physx@@@shdfnd@2@@shdfnd@physx@@IAEPAUPxDebugTriangle@3@I@Z 1000a660 f i CmRenderOutput.obj
 0001:000096d0       ?copy@?$Array@UPxDebugLine@physx@@V?$ReflectionAllocator@UPxDebugLine@physx@@@shdfnd@2@@shdfnd@physx@@KAXPAUPxDebugLine@3@0PBU43@@Z 1000a6d0 f i CmRenderOutput.obj
 0001:00009740       ?copy@?$Array@UPxDebugPoint@physx@@V?$ReflectionAllocator@UPxDebugPoint@physx@@@shdfnd@2@@shdfnd@physx@@KAXPAUPxDebugPoint@3@0PBU43@@Z 1000a740 f i CmRenderOutput.obj
 0001:00009790       ?copy@?$Array@UPxDebugText@physx@@V?$ReflectionAllocator@UPxDebugText@physx@@@shdfnd@2@@shdfnd@physx@@KAXPAUPxDebugText@3@0PBU43@@Z 1000a790 f i CmRenderOutput.obj
 0001:000097f0       ?copy@?$Array@UPxDebugTriangle@physx@@V?$ReflectionAllocator@UPxDebugTriangle@physx@@@shdfnd@2@@shdfnd@physx@@KAXPAUPxDebugTriangle@3@0PBU43@@Z 1000a7f0 f i CmRenderOutput.obj
 0001:00009870       ?growAndPushBack@?$Array@DV?$ReflectionAllocator@D@shdfnd@physx@@@shdfnd@physx@@IAEAADABD@Z 1000a870 f i CmRenderOutput.obj
 0001:00009920       ?growAndPushBack@?$Array@UPxDebugLine@physx@@V?$ReflectionAllocator@UPxDebugLine@physx@@@shdfnd@2@@shdfnd@physx@@IAEAAUPxDebugLine@3@ABU43@@Z 1000a920 f i CmRenderOutput.obj
 0001:000099d0       ?growAndPushBack@?$Array@UPxDebugPoint@physx@@V?$ReflectionAllocator@UPxDebugPoint@physx@@@shdfnd@2@@shdfnd@physx@@IAEAAUPxDebugPoint@3@ABU43@@Z 1000a9d0 f i CmRenderOutput.obj
 0001:00009a60       ?growAndPushBack@?$Array@UPxDebugText@physx@@V?$ReflectionAllocator@UPxDebugText@physx@@@shdfnd@2@@shdfnd@physx@@IAEAAUPxDebugText@3@ABU43@@Z 1000aa60 f i CmRenderOutput.obj
 0001:00009b00       ?growAndPushBack@?$Array@UPxDebugTriangle@physx@@V?$ReflectionAllocator@UPxDebugTriangle@physx@@@shdfnd@2@@shdfnd@physx@@IAEAAUPxDebugTriangle@3@ABU43@@Z 1000ab00 f i CmRenderOutput.obj
 0001:00009bd0       ?outputSegment@RenderOutput@Cm@physx@@QAEXABVPxVec3@3@0@Z 1000abd0 f i CmRenderOutput.obj
 0001:00009c60       ?recreate@?$Array@DV?$ReflectionAllocator@D@shdfnd@physx@@@shdfnd@physx@@IAEXI@Z 1000ac60 f i CmRenderOutput.obj
 0001:00009cf0       ?recreate@?$Array@UPxDebugLine@physx@@V?$ReflectionAllocator@UPxDebugLine@physx@@@shdfnd@2@@shdfnd@physx@@IAEXI@Z 1000acf0 f i CmRenderOutput.obj
 0001:00009d40       ?reserveSegments@RenderOutput@Cm@physx@@QAEPAUPxDebugLine@3@I@Z 1000ad40 f i CmRenderOutput.obj
 0001:00009da0       ?visualizeJointFrames@Cm@physx@@YAXAAVRenderOutput@12@MABVPxTransform@2@1@Z 1000ada0 f   CmVisualization.obj
 0001:00009e60       ?visualizeLinearLimit@Cm@physx@@YAXAAVRenderOutput@12@MABVPxTransform@2@1M_N@Z 1000ae60 f   CmVisualization.obj
 0001:0000a0a0       ?visualizeAngularLimit@Cm@physx@@YAXAAVRenderOutput@12@MABVPxTransform@2@MM_N@Z 1000b0a0 f   CmVisualization.obj
 0001:0000a230       ?visualizeLimitCone@Cm@physx@@YAXAAVRenderOutput@12@MABVPxTransform@2@MM_N@Z 1000b230 f   CmVisualization.obj
 0001:0000a440       ?visualizeDoubleCone@Cm@physx@@YAXAAVRenderOutput@12@MABVPxTransform@2@M_N@Z 1000b440 f   CmVisualization.obj
 0001:0000a670       ??0CmModuleUpdateLoader@Cm@physx@@QAE@PBD@Z 1000b670 f   CmWindowsModuleUpdateLoader.obj
 0001:0000a6a0       ??1CmModuleUpdateLoader@Cm@physx@@QAE@XZ 1000b6a0 f   CmWindowsModuleUpdateLoader.obj
 0001:0000a6c0       ?LoadModule@CmModuleUpdateLoader@Cm@physx@@QAEPAUHINSTANCE__@@PBD0@Z 1000b6c0 f   CmWindowsModuleUpdateLoader.obj
 0001:0000a6f0       ??4CmModuleUpdateLoader@Cm@physx@@QAEAAV012@ABV012@@Z 1000b6f0 f i CmWindowsModuleUpdateLoader.obj
 0001:0000a710       _PxSetPhysXCommonDelayLoadHook 1000b710 f   CmWindowsDelayLoadHook.obj
 0001:0000a720       ?commonDelayHook@@YGP6GHXZIPAUDelayLoadInfo@@@Z 1000b720 f   CmWindowsDelayLoadHook.obj
 0001:0000a7c0       ?computeBounds@Gu@physx@@YAXAAVPxBounds3@2@ABVPxGeometry@2@ABVPxTransform@2@MPIBVCenterExtentsPadded@12@M@Z 1000b7c0 f   GuBounds.obj
 0001:0000aec0       ?computeBoundsWithCCDThreshold@Gu@physx@@YAMAAVVec3p@12@0ABVPxGeometry@2@ABVPxTransform@2@PIBVCenterExtentsPadded@12@@Z 1000bec0 f   GuBounds.obj
 0001:0000b050       ??0ShapeData@Gu@physx@@QAE@ABVPxGeometry@2@ABVPxTransform@2@M@Z 1000c050 f   GuBounds.obj
 0001:0000b590       ??0Box@Gu@physx@@QAE@ABV012@@Z 1000c590 f i GuBounds.obj
 0001:0000b600       ??0Box@Gu@physx@@QAE@ABVPxVec3@2@0ABVPxMat33@2@@Z 1000c600 f i GuBounds.obj
 0001:0000b670       ??0Box@Gu@physx@@QAE@XZ    1000c670 f i GuBounds.obj
 0001:0000b680       ??0ConvexMesh@Gu@physx@@QAE@V?$PxFlags@W4Enum@PxBaseFlag@physx@@G@2@@Z 1000c680 f i GuBounds.obj
 0001:0000b6b0       ??0HeightFieldData@Gu@physx@@QAE@$$QAU012@@Z 1000c6b0 f i GuBounds.obj
 0001:0000b720       ??0HeightFieldData@Gu@physx@@QAE@ABU012@@Z 1000c720 f i GuBounds.obj
 0001:0000b790       ??0HeightFieldData@Gu@physx@@QAE@W4PxEMPTY@2@@Z 1000c790 f i GuBounds.obj
 0001:0000b7a0       ??0HeightFieldData@Gu@physx@@QAE@XZ 1000c7a0 f i GuBounds.obj
 0001:0000b7b0       ??0PxQuat@physx@@QAE@ABVPxMat33@1@@Z 1000c7b0 f i GuBounds.obj
 0001:0000b980       ??0PxVec3@physx@@QAE@XZ    1000c980 f i GuBounds.obj
 0001:0000b990       ??0PxVec4@physx@@QAE@XZ    1000c990 f i GuBounds.obj
 0001:0000b9a0       ??1Box@Gu@physx@@QAE@XZ    1000c9a0 f i GuBounds.obj
 0001:0000b9b0       ??1HeightFieldData@Gu@physx@@QAE@XZ 1000c9b0 f i GuBounds.obj
 0001:0000b9c0       ??1PxBase@physx@@MAE@XZ    1000c9c0 f i GuBounds.obj
 0001:0000b9d0       ??1PxConvexMesh@physx@@MAE@XZ 1000c9d0 f i GuBounds.obj
 0001:0000b9e0       ??1PxHeightField@physx@@MAE@XZ 1000c9e0 f i GuBounds.obj
 0001:0000b9f0       ??1RefCountable@Cm@physx@@UAE@XZ 1000c9f0 f i GuBounds.obj
 0001:0000ba00       ??4Box@Gu@physx@@QAEABV012@ABV012@@Z 1000ca00 f i GuBounds.obj
 0001:0000ba70       ??4HeightFieldData@Gu@physx@@QAEAAU012@$$QAU012@@Z 1000ca70 f i GuBounds.obj
 0001:0000bae0       ??4HeightFieldData@Gu@physx@@QAEAAU012@ABU012@@Z 1000cae0 f i GuBounds.obj
 0001:0000bb50       ??_EConvexMesh@Gu@physx@@UAEPAXI@Z 1000cb50 f i GuBounds.obj
 0001:0000bc03       ??_EConvexMesh@Gu@physx@@W7AEPAXI@Z 1000cc03 f i GuBounds.obj
 0001:0000bc10       ??_EPxConvexMesh@physx@@MAEPAXI@Z 1000cc10 f i GuBounds.obj
 0001:0000bc80       ??_GPxBase@physx@@MAEPAXI@Z 1000cc80 f i GuBounds.obj
 0001:0000bc80       ??_EPxBase@physx@@MAEPAXI@Z 1000cc80 f i GuBounds.obj
 0001:0000bcb0       ??_ERefCountable@Cm@physx@@UAEPAXI@Z 1000ccb0 f i GuBounds.obj
 0001:0000bcb0       ??_GRefCountable@Cm@physx@@UAEPAXI@Z 1000ccb0 f i GuBounds.obj
 0001:0000bce0       ??_H@YGXPAXIIP6EPAX0@Z@Z   1000cce0 f i GuBounds.obj
 0001:0000bd10       ?computeAABBExtent@Box@Gu@physx@@QBE?AVPxVec3@3@XZ 1000cd10 f i GuBounds.obj
 0001:0000bdc0       ?computeBoxPoints@Box@Gu@physx@@QBEXPIAVPxVec3@3@@Z 1000cdc0 f i GuBounds.obj
 0001:0000d090       ?getConcreteTypeName@PxConvexMesh@physx@@UBEPBDXZ 1000e090 f i GuBounds.obj
 0001:0000d0a0       ?getConcreteTypeName@PxHeightField@physx@@UBEPBDXZ 1000e0a0 f i GuBounds.obj
 0001:0000d0b0       ?getConvexEdgeThreshold@HeightField@Gu@physx@@UBEMXZ 1000e0b0 f i GuBounds.obj
 0001:0000d0c0       ?getFlags@HeightField@Gu@physx@@UBE?AV?$PxFlags@W4Enum@PxHeightFieldFlag@physx@@G@3@XZ 1000e0c0 f i GuBounds.obj
 0001:0000d0d0       ?getFormat@HeightField@Gu@physx@@UBE?AW4Enum@PxHeightFieldFormat@3@XZ 1000e0d0 f i GuBounds.obj
 0001:0000d0e0       ?getHeight@HeightField@Gu@physx@@UBEMMM@Z 1000e0e0 f i GuBounds.obj
 0001:0000d140       ?getHeightInternal2@HeightField@Gu@physx@@QBEMIMM@Z 1000e140 f i GuBounds.obj
 0001:0000d290       ?getIndexBuffer@ConvexMesh@Gu@physx@@UBEPBEXZ 1000e290 f i GuBounds.obj
 0001:0000d2d0       ?getNbColumns@HeightField@Gu@physx@@UBEIXZ 1000e2d0 f i GuBounds.obj
 0001:0000d2e0       ?getNbPolygons@ConvexMesh@Gu@physx@@UBEIXZ 1000e2e0 f i GuBounds.obj
 0001:0000d2f0       ?getNbRows@HeightField@Gu@physx@@UBEIXZ 1000e2f0 f i GuBounds.obj
 0001:0000d300       ?getNbVertices@ConvexMesh@Gu@physx@@UBEIXZ 1000e300 f i GuBounds.obj
 0001:0000d310       ?getPaddedBounds@HeightFieldData@Gu@physx@@QBEABVCenterExtentsPadded@23@XZ 1000e310 f i GuBounds.obj
 0001:0000d320       ?getSample@HeightField@Gu@physx@@UBEABUPxHeightFieldSample@3@II@Z 1000e320 f i GuBounds.obj
 0001:0000d340       ?getSampleStride@HeightField@Gu@physx@@UBEIXZ 1000e340 f i GuBounds.obj
 0001:0000d350       ?getTimestamp@HeightField@Gu@physx@@UBEIXZ 1000e350 f i GuBounds.obj
 0001:0000d360       ?getTransform@Box@Gu@physx@@QBE?AVPxTransform@3@XZ 1000e360 f i GuBounds.obj
 0001:0000d3b0       ?getTriangleMaterialIndex@HeightField@Gu@physx@@UBEGI@Z 1000e3b0 f i GuBounds.obj
 0001:0000d3e0       ?getTriangleNormal@HeightField@Gu@physx@@UBE?AVPxVec3@3@I@Z 1000e3e0 f i GuBounds.obj
 0001:0000d4d0       ?getVertices@ConvexMesh@Gu@physx@@UBEPBVPxVec3@3@XZ 1000e4d0 f i GuBounds.obj
 0001:0000d4e0       ?isKindOf@PxBase@physx@@MBE_NPBD@Z 1000e4e0 f i GuBounds.obj
 0001:0000d530       ?isKindOf@PxConvexMesh@physx@@MBE_NPBD@Z 1000e530 f i GuBounds.obj
 0001:0000d5b0       ?isKindOf@PxHeightField@physx@@MBE_NPBD@Z 1000e5b0 f i GuBounds.obj
 0001:0000d630       ?isReleasable@PxBase@physx@@UBE_NXZ 1000e630 f i GuBounds.obj
 0001:0000d640       ?isValid@Box@Gu@physx@@QBE_NXZ 1000e640 f i GuBounds.obj
 0001:0000d660       ?onRefCountZero@RefCountable@Cm@physx@@UAEXXZ 1000e660 f i GuBounds.obj
 0001:0000d670       ?preExportDataReset@ConvexMesh@Gu@physx@@QAEXXZ 1000e670 f i GuBounds.obj
 0001:0000d680       ?preExportDataReset@HeightField@Gu@physx@@QAEXXZ 1000e680 f i GuBounds.obj
 0001:0000d690       ?requiresObjects@ConvexMesh@Gu@physx@@UAEXAAVPxProcessPxBaseCallback@3@@Z 1000e690 f i GuBounds.obj
 0001:0000d6a0       ?rotate@Box@Gu@physx@@QBE?AVPxVec3@3@ABV43@@Z 1000e6a0 f i GuBounds.obj
 0001:0000d730       ?rotateInv@Box@Gu@physx@@QBE?AVPxVec3@3@ABV43@@Z 1000e730 f i GuBounds.obj
 0001:0000d7c0       ?setAxes@Box@Gu@physx@@QAEXABVPxVec3@3@00@Z 1000e7c0 f i GuBounds.obj
 0001:0000d810       ?setEmpty@Box@Gu@physx@@QAEXXZ 1000e810 f i GuBounds.obj
 0001:0000d880       ?transform@Box@Gu@physx@@QBE?AVPxVec3@3@ABV43@@Z 1000e880 f i GuBounds.obj
 0001:0000d920       ?computeOBBPoints@Gu@physx@@YAXPIAVPxVec3@2@ABV32@1111@Z 1000e920 f   GuBox.obj
 0001:0000dc00       ?create@Box@Gu@physx@@QAEXABVCapsule@23@@Z 1000ec00 f   GuBox.obj
 0001:0000de50       ?getBoxEdges@Gu@physx@@YAPBEXZ 1000ee50 f   GuBox.obj
 0001:0000de60       ?computeBoxAroundCapsule@Gu@physx@@YAXABVCapsule@12@AAVBox@12@@Z 1000ee60 f   GuCapsule.obj
 0001:0000dfe0       ?computeBasis@shdfnd@physx@@YAXABVPxVec3@2@0AAV32@11@Z 1000efe0 f i GuCapsule.obj
 0001:0000e190       ?sweepBoxTriangles_Precise@Gu@physx@@YA_NIPBVPxTriangle@2@_NABVPxBoxGeometry@2@ABVPxTransform@2@ABVPxVec3@2@MAAUPxSweepHit@2@PBIMV?$PxFlags@W4Enum@PxHitFlag@physx@@G@2@@Z 1000f190 f   GuCCTSweepTests.obj
 0001:0000e2a0       ?sweepCapsule_BoxGeom_Precise@@YA_NABVPxGeometry@physx@@ABVPxTransform@2@ABVPxCapsuleGeometry@2@1ABVCapsule@Gu@2@ABVPxVec3@2@MAAUPxSweepHit@2@V?$PxFlags@W4Enum@PxHitFlag@physx@@G@2@M@Z 1000f2a0 f   GuCCTSweepTests.obj
 0001:0000e8f0       ?sweepBox_SphereGeom_Precise@@YA_NABVPxGeometry@physx@@ABVPxTransform@2@ABVPxBoxGeometry@2@1ABVBox@Gu@2@ABVPxVec3@2@MAAUPxSweepHit@2@V?$PxFlags@W4Enum@PxHitFlag@physx@@G@2@M@Z 1000f8f0 f   GuCCTSweepTests.obj
 0001:0000eb90       ?sweepBox_CapsuleGeom_Precise@@YA_NABVPxGeometry@physx@@ABVPxTransform@2@ABVPxBoxGeometry@2@1ABVBox@Gu@2@ABVPxVec3@2@MAAUPxSweepHit@2@V?$PxFlags@W4Enum@PxHitFlag@physx@@G@2@M@Z 1000fb90 f   GuCCTSweepTests.obj
 0001:0000ef50       ?sweepBox_BoxGeom_Precise@@YA_NABVPxGeometry@physx@@ABVPxTransform@2@ABVPxBoxGeometry@2@1ABVBox@Gu@2@ABVPxVec3@2@MAAUPxSweepHit@2@V?$PxFlags@W4Enum@PxHitFlag@physx@@G@2@M@Z 1000ff50 f   GuCCTSweepTests.obj
 0001:0000f130       ?sweepBox_HeightFieldGeom_Precise@@YA_NABVPxGeometry@physx@@ABVPxTransform@2@ABVPxBoxGeometry@2@1ABVBox@Gu@2@ABVPxVec3@2@MAAUPxSweepHit@2@V?$PxFlags@W4Enum@PxHitFlag@physx@@G@2@M@Z 10010130 f   GuCCTSweepTests.obj
 0001:0000f340       ??0HeightFieldTraceUtil@Gu@physx@@QAE@ABVPxHeightFieldGeometry@2@@Z 10010340 f i GuCCTSweepTests.obj
 0001:0000f380       ??0HeightFieldUtil@Gu@physx@@QAE@ABVPxHeightFieldGeometry@2@@Z 10010380 f i GuCCTSweepTests.obj
 0001:0000f3c0       ??1?$EntityReport@I@Gu@physx@@UAE@XZ 100103c0 f i GuCCTSweepTests.obj
 0001:0000f3d0       ??4HeightFieldTraceUtil@Gu@physx@@QAEAAV012@$$QAV012@@Z 100103d0 f i GuCCTSweepTests.obj
 0001:0000f3f0       ??4HeightFieldTraceUtil@Gu@physx@@QAEAAV012@ABV012@@Z 100103f0 f i GuCCTSweepTests.obj
 0001:0000f410       ??4HeightFieldUtil@Gu@physx@@QAEAAV012@$$QAV012@@Z 10010410 f i GuCCTSweepTests.obj
 0001:0000f440       ??4HeightFieldUtil@Gu@physx@@QAEAAV012@ABV012@@Z 10010440 f i GuCCTSweepTests.obj
 0001:0000f460       ??_G?$EntityReport@I@Gu@physx@@UAEPAXI@Z 10010460 f i GuCCTSweepTests.obj
 0001:0000f460       ??_E?$EntityReport@I@Gu@physx@@UAEPAXI@Z 10010460 f i GuCCTSweepTests.obj
 0001:0000f4c0       ?ceilUp@HeightFieldTraceUtil@Gu@physx@@SAMM@Z 100104c0 f i GuCCTSweepTests.obj
 0001:0000f500       ?computePointNormal@HeightFieldUtil@Gu@physx@@QBE?AVPxVec3@3@IABV43@ABVPxTransform@3@MMMMAAM@Z 10010500 f i GuCCTSweepTests.obj
 0001:0000f910       ?floorDown@HeightFieldTraceUtil@Gu@physx@@SAMM@Z 10010910 f i GuCCTSweepTests.obj
 0001:0000f980       ?getFeatureIndex@HeightFieldUtil@Gu@physx@@SAII@Z 10010980 f i GuCCTSweepTests.obj
 0001:0000f990       ?getFeatureType@HeightFieldUtil@Gu@physx@@SA?AW4Feature@123@I@Z 10010990 f i GuCCTSweepTests.obj
 0001:0000f9a0       ?getHeightAtShapePoint@HeightFieldUtil@Gu@physx@@QBEMMM@Z 100109a0 f i GuCCTSweepTests.obj
 0001:0000fa10       ?getHeightField@HeightFieldUtil@Gu@physx@@QBEABVHeightField@23@XZ 10010a10 f i GuCCTSweepTests.obj
 0001:0000fa20       ?getHeightFieldGeometry@HeightFieldUtil@Gu@physx@@QBEABVPxHeightFieldGeometry@3@XZ 10010a20 f i GuCCTSweepTests.obj
 0001:0000fa30       ?getNormalAtShapePoint@HeightFieldUtil@Gu@physx@@QBE?AVPxVec3@3@MM@Z 10010a30 f i GuCCTSweepTests.obj
 0001:0000fae0       ?getNormal_2@HeightField@Gu@physx@@QBE?AVPxVec3@3@IMMMMM@Z 10010ae0 f i GuCCTSweepTests.obj
 0001:0000fbd0       ?getOneOverColumnScale@HeightFieldUtil@Gu@physx@@QBEMXZ 10010bd0 f i GuCCTSweepTests.obj
 0001:0000fbe0       ?getOneOverHeightScale@HeightFieldUtil@Gu@physx@@QBEMXZ 10010be0 f i GuCCTSweepTests.obj
 0001:0000fbf0       ?getOneOverRowScale@HeightFieldUtil@Gu@physx@@QBEMXZ 10010bf0 f i GuCCTSweepTests.obj
 0001:0000fc00       ?getVertexNormal@HeightFieldUtil@Gu@physx@@QBE?AVPxVec3@3@I@Z 10010c00 f i GuCCTSweepTests.obj
 0001:0000fc30       ?hf2shapen@HeightFieldUtil@Gu@physx@@QBE?AVPxVec3@3@ABV43@@Z 10010c30 f i GuCCTSweepTests.obj
 0001:0000fc70       ?hf2shapep@HeightFieldUtil@Gu@physx@@QBE?AVPxVec3@3@ABV43@@Z 10010c70 f i GuCCTSweepTests.obj
 0001:0000fcb0       ?hf2worldn@HeightFieldUtil@Gu@physx@@QBE?AVPxVec3@3@ABVPxTransform@3@ABV43@@Z 10010cb0 f i GuCCTSweepTests.obj
 0001:0000fde0       ?hf2worldp@HeightFieldUtil@Gu@physx@@QBE?AVPxVec3@3@ABVPxTransform@3@ABV43@@Z 10010de0 f i GuCCTSweepTests.obj
 0001:0000ff20       ?isCollisionVertex@HeightFieldUtil@Gu@physx@@QBE_NIII@Z 10010f20 f i GuCCTSweepTests.obj
 0001:0000ff40       ?isQueryVertex@HeightFieldUtil@Gu@physx@@QBE_NIII@Z 10010f40 f i GuCCTSweepTests.obj
 0001:0000ffd0       ?isShapePointOnHeightField@HeightFieldUtil@Gu@physx@@QBE_NMM@Z 10010fd0 f i GuCCTSweepTests.obj
 0001:00010030       ?makeFeatureCode@HeightFieldUtil@Gu@physx@@SAIIW4Feature@123@@Z 10011030 f i GuCCTSweepTests.obj
 0001:00010190       ?poseExtent@PxBounds3@physx@@SA?AV12@ABVPxTransform@2@ABVPxVec3@2@@Z 10011190 f i GuCCTSweepTests.obj
 0001:000103b0       ?shape2hfp@HeightFieldUtil@Gu@physx@@QBE?AVPxVec3@3@ABV43@@Z 100113b0 f i GuCCTSweepTests.obj
 0001:000111a0       ?sweep@PxGeometryQuery@physx@@SA_NABVPxVec3@2@MABVPxGeometry@2@ABVPxTransform@2@12AAUPxSweepHit@2@V?$PxFlags@W4Enum@PxHitFlag@physx@@G@2@M@Z 100121a0 f   GuGeometryQuery.obj
 0001:000115d0       ?overlap@PxGeometryQuery@physx@@SA_NABVPxGeometry@2@ABVPxTransform@2@01@Z 100125d0 f   GuGeometryQuery.obj
 0001:00011650       ?raycast@PxGeometryQuery@physx@@SAIABVPxVec3@2@0ABVPxGeometry@2@ABVPxTransform@2@MV?$PxFlags@W4Enum@PxHitFlag@physx@@G@2@IPIAUPxRaycastHit@2@@Z 10012650 f   GuGeometryQuery.obj
 0001:000116c0       ?computePenetration@PxGeometryQuery@physx@@SA_NAAVPxVec3@2@AAMABVPxGeometry@2@ABVPxTransform@2@23@Z 100126c0 f   GuGeometryQuery.obj
 0001:000117c0       ?pointDistance@PxGeometryQuery@physx@@SAMABVPxVec3@2@ABVPxGeometry@2@ABVPxTransform@2@PAV32@@Z 100127c0 f   GuGeometryQuery.obj
 0001:00011ec0       ?getWorldBounds@PxGeometryQuery@physx@@SA?AVPxBounds3@2@ABVPxGeometry@2@ABVPxTransform@2@M@Z 10012ec0 f   GuGeometryQuery.obj
 0001:00011f20       ?isValid@PxGeometryQuery@physx@@SA_NABVPxGeometry@2@@Z 10012f20 f   GuGeometryQuery.obj
 0001:000121f0       ?set@GeometryUnion@Gu@physx@@QAEXABVPxGeometry@3@@Z 100131f0 f   GuGeometryUnion.obj
 0001:000123b0       ??0GeometryUnion@Gu@physx@@QAE@ABVPxGeometry@2@@Z 100133b0 f i GuGeometryUnion.obj
 0001:000123d0       ??0GeometryUnion@Gu@physx@@QAE@W4PxEMPTY@2@@Z 100133d0 f i GuGeometryUnion.obj
 0001:000123e0       ??0GeometryUnion@Gu@physx@@QAE@XZ 100133e0 f i GuGeometryUnion.obj
 0001:000123f0       ??0MaterialIndicesStruct@physx@@QAE@W4PxEMPTY@1@@Z 100133f0 f i GuGeometryUnion.obj
 0001:00012400       ??0MaterialIndicesStruct@physx@@QAE@XZ 10013400 f i GuGeometryUnion.obj
 0001:00012410       ??1MaterialIndicesStruct@physx@@QAE@XZ 10013410 f i GuGeometryUnion.obj
 0001:00012420       ??4GeometryUnion@Gu@physx@@QAEAAV012@$$QAV012@@Z 10013420 f i GuGeometryUnion.obj
 0001:00012450       ??4GeometryUnion@Gu@physx@@QAEAAV012@ABV012@@Z 10013450 f i GuGeometryUnion.obj
 0001:00012480       ??4MaterialIndicesStruct@physx@@QAEAAU01@ABU01@@Z 10013480 f i GuGeometryUnion.obj
 0001:000124a0       ?allocate@MaterialIndicesStruct@physx@@QAEXG@Z 100134a0 f i GuGeometryUnion.obj
 0001:000124f0       ?deallocate@MaterialIndicesStruct@physx@@QAEXXZ 100134f0 f i GuGeometryUnion.obj
 0001:00012520       ?getGeometry@GeometryUnion@Gu@physx@@QBEABVPxGeometry@3@XZ 10013520 f i GuGeometryUnion.obj
 0001:00012530       ?getType@GeometryUnion@Gu@physx@@QBE?AW4Enum@PxGeometryType@3@XZ 10013530 f i GuGeometryUnion.obj
 0001:00012540       ?computeBoxPoints@Gu@physx@@YAXABVPxBounds3@2@PIAVPxVec3@2@@Z 10013540 f   GuInternal.obj
 0001:000125e0       ?computeBoundsAroundVertices@Gu@physx@@YAXAAVPxBounds3@2@IPIBVPxVec3@2@@Z 100135e0 f   GuInternal.obj
 0001:00012680       ?getPlane@Gu@physx@@YA?AVPxPlane@2@ABVPxTransform@2@@Z 10013680 f   GuInternal.obj
 0001:00012720       ?computeSweptBox@Gu@physx@@YAXAAVBox@12@ABVPxVec3@2@1ABVPxMat33@2@1M@Z 10013720 f   GuInternal.obj
 0001:00012c10       ??0GuMeshFactory@physx@@QAE@XZ 10013c10 f   GuMeshFactory.obj
 0001:00012de0       ??1GuMeshFactory@physx@@MAE@XZ 10013de0 f   GuMeshFactory.obj
 0001:00012e80       ?release@GuMeshFactory@physx@@QAEXXZ 10013e80 f   GuMeshFactory.obj
 0001:00012f00       ?addTriangleMesh@GuMeshFactory@physx@@QAEXPAVTriangleMesh@Gu@2@_N@Z 10013f00 f   GuMeshFactory.obj
 0001:00012f60       ?createTriangleMesh@GuMeshFactory@physx@@QAEPAVPxTriangleMesh@2@AAVPxInputStream@2@@Z 10013f60 f   GuMeshFactory.obj
 0001:00012fa0       ?createTriangleMesh@GuMeshFactory@physx@@QAEPAVPxTriangleMesh@2@PAX@Z 10013fa0 f   GuMeshFactory.obj
 0001:00012fb0       ?removeTriangleMesh@GuMeshFactory@physx@@QAE_NAAVPxTriangleMesh@2@@Z 10013fb0 f   GuMeshFactory.obj
 0001:00012ff0       ?getNbTriangleMeshes@GuMeshFactory@physx@@QBEIXZ 10013ff0 f   GuMeshFactory.obj
 0001:00013010       ?getTriangleMeshes@GuMeshFactory@physx@@QBEIPAPAVPxTriangleMesh@2@II@Z 10014010 f   GuMeshFactory.obj
 0001:00013070       ?addConvexMesh@GuMeshFactory@physx@@QAEXPAVConvexMesh@Gu@2@_N@Z 10014070 f   GuMeshFactory.obj
 0001:000130d0       ?createConvexMesh@GuMeshFactory@physx@@QAEPAVPxConvexMesh@2@AAVPxInputStream@2@@Z 100140d0 f   GuMeshFactory.obj
 0001:000131b0       ?createConvexMesh@GuMeshFactory@physx@@QAEPAVPxConvexMesh@2@PAX@Z 100141b0 f   GuMeshFactory.obj
 0001:000131c0       ?removeConvexMesh@GuMeshFactory@physx@@QAE_NAAVPxConvexMesh@2@@Z 100141c0 f   GuMeshFactory.obj
 0001:00013200       ?getNbConvexMeshes@GuMeshFactory@physx@@QBEIXZ 10014200 f   GuMeshFactory.obj
 0001:00013220       ?getConvexMeshes@GuMeshFactory@physx@@QBEIPAPAVPxConvexMesh@2@II@Z 10014220 f   GuMeshFactory.obj
 0001:00013280       ?addHeightField@GuMeshFactory@physx@@QAEXPAVHeightField@Gu@2@_N@Z 10014280 f   GuMeshFactory.obj
 0001:000132e0       ?createHeightField@GuMeshFactory@physx@@QAEPAVPxHeightField@2@PAX@Z 100142e0 f   GuMeshFactory.obj
 0001:000133a0       ?createHeightField@GuMeshFactory@physx@@QAEPAVPxHeightField@2@AAVPxInputStream@2@@Z 100143a0 f   GuMeshFactory.obj
 0001:00013480       ?removeHeightField@GuMeshFactory@physx@@QAE_NAAVPxHeightField@2@@Z 10014480 f   GuMeshFactory.obj
 0001:000134c0       ?getNbHeightFields@GuMeshFactory@physx@@QBEIXZ 100144c0 f   GuMeshFactory.obj
 0001:000134e0       ?getHeightFields@GuMeshFactory@physx@@QBEIPAPAVPxHeightField@2@II@Z 100144e0 f   GuMeshFactory.obj
 0001:00013540       ?addBVHStructure@GuMeshFactory@physx@@QAEXPAVBVHStructure@Gu@2@_N@Z 10014540 f   GuMeshFactory.obj
 0001:000135a0       ?createBVHStructure@GuMeshFactory@physx@@QAEPAVPxBVHStructure@2@AAVPxInputStream@2@@Z 100145a0 f   GuMeshFactory.obj
 0001:00013680       ?createBVHStructure@GuMeshFactory@physx@@QAEPAVPxBVHStructure@2@PAX@Z 10014680 f   GuMeshFactory.obj
 0001:00013690       ?removeBVHStructure@GuMeshFactory@physx@@QAE_NAAVPxBVHStructure@2@@Z 10014690 f   GuMeshFactory.obj
 0001:000136d0       ?getNbBVHStructures@GuMeshFactory@physx@@QBEIXZ 100146d0 f   GuMeshFactory.obj
 0001:00013700       ?getBVHStructures@GuMeshFactory@physx@@QBEIPAPAVPxBVHStructure@2@II@Z 10014700 f   GuMeshFactory.obj
 0001:00013770       ?addFactoryListener@GuMeshFactory@physx@@QAEXAAVGuMeshFactoryListener@2@@Z 10014770 f   GuMeshFactory.obj
 0001:000137d0       ?removeFactoryListener@GuMeshFactory@physx@@QAEXAAVGuMeshFactoryListener@2@@Z 100147d0 f   GuMeshFactory.obj
 0001:00013830       ?notifyFactoryListener@GuMeshFactory@physx@@QAEXPBVPxBase@2@G@Z 10014830 f   GuMeshFactory.obj
 0001:00013870       ?createTriangleMesh@GuMeshFactory@physx@@IAEPAVPxTriangleMesh@2@AAVTriangleMeshData@Gu@2@@Z 10014870 f   GuMeshFactory.obj
 0001:000139a0       ?createConvexMesh@GuMeshFactory@physx@@IAEPAVPxConvexMesh@2@AAUConvexHullData@Gu@2@@Z 100149a0 f   GuMeshFactory.obj
 0001:00013a60       ?createBVHStructure@GuMeshFactory@physx@@IAEPAVPxBVHStructure@2@AAUBVHStructureData@Gu@2@@Z 10014a60 f   GuMeshFactory.obj
 0001:00013b20       ??0TriangleMeshData@Gu@physx@@QAE@XZ 10014b20 f i GuMeshFactory.obj
 0001:00013bc0       ??1BV4TriangleData@Gu@physx@@UAE@XZ 10014bc0 f i GuMeshFactory.obj
 0001:00013bf0       ??1MeshDataBase@Gu@physx@@UAE@XZ 10014bf0 f i GuMeshFactory.obj
 0001:00013c90       ??1RTreeTriangleData@Gu@physx@@UAE@XZ 10014c90 f i GuMeshFactory.obj
 0001:00013ce0       ??1TriangleMeshData@Gu@physx@@UAE@XZ 10014ce0 f i GuMeshFactory.obj
 0001:00013d60       ??_EGuMeshFactory@physx@@MAEPAXI@Z 10014d60 f i GuMeshFactory.obj
 0001:00013e20       ??_EBV4TriangleData@Gu@physx@@UAEPAXI@Z 10014e20 f i GuMeshFactory.obj
 0001:00013e20       ??_GBV4TriangleData@Gu@physx@@UAEPAXI@Z 10014e20 f i GuMeshFactory.obj
 0001:00013e80       ??_GGuMeshFactory@physx@@MAEPAXI@Z 10014e80 f i GuMeshFactory.obj
 0001:00013ec0       ??_EMeshDataBase@Gu@physx@@UAEPAXI@Z 10014ec0 f i GuMeshFactory.obj
 0001:00013ec0       ??_GMeshDataBase@Gu@physx@@UAEPAXI@Z 10014ec0 f i GuMeshFactory.obj
 0001:00013f00       ??_GRTreeTriangleData@Gu@physx@@UAEPAXI@Z 10014f00 f i GuMeshFactory.obj
 0001:00013f00       ??_ERTreeTriangleData@Gu@physx@@UAEPAXI@Z 10014f00 f i GuMeshFactory.obj
 0001:00013f80       ??_ETriangleMeshData@Gu@physx@@UAEPAXI@Z 10014f80 f i GuMeshFactory.obj
 0001:00013f80       ??_GTriangleMeshData@Gu@physx@@UAEPAXI@Z 10014f80 f i GuMeshFactory.obj
 0001:00013fc0       ?__global_array_delete@@YAXPAX@Z 10014fc0 f i GuMeshFactory.obj
 0001:00013fd0       ?__global_array_delete@@YAXPAXI@Z 10014fd0 f i GuMeshFactory.obj
 0001:00013fe0       ?__global_delete@@YAXPAX@Z 10014fe0 f i GuMeshFactory.obj
 0001:00013ff0       ?__global_delete@@YAXPAXI@Z 10014ff0 f i GuMeshFactory.obj
 0001:00014000       ?create@?$HashBase@PAVBVHStructure@Gu@physx@@PAV123@U?$Hash@PAVBVHStructure@Gu@physx@@@shdfnd@3@UGetKey@?$HashSetBase@PAVBVHStructure@Gu@physx@@U?$Hash@PAVBVHStructure@Gu@physx@@@shdfnd@3@VNonTrackingAllocator@53@$00@internal@53@VNonTrackingAllocator@53@$00@internal@shdfnd@physx@@QAEPAPAVBVHStructure@Gu@4@ABQAV564@AA_N@Z 10015000 f i GuMeshFactory.obj
 0001:00014130       ?create@?$HashBase@PAVConvexMesh@Gu@physx@@PAV123@U?$Hash@PAVConvexMesh@Gu@physx@@@shdfnd@3@UGetKey@?$HashSetBase@PAVConvexMesh@Gu@physx@@U?$Hash@PAVConvexMesh@Gu@physx@@@shdfnd@3@VNonTrackingAllocator@53@$00@internal@53@VNonTrackingAllocator@53@$00@internal@shdfnd@physx@@QAEPAPAVConvexMesh@Gu@4@ABQAV564@AA_N@Z 10015130 f i GuMeshFactory.obj
 0001:00014260       ?create@?$HashBase@PAVHeightField@Gu@physx@@PAV123@U?$Hash@PAVHeightField@Gu@physx@@@shdfnd@3@UGetKey@?$HashSetBase@PAVHeightField@Gu@physx@@U?$Hash@PAVHeightField@Gu@physx@@@shdfnd@3@VNonTrackingAllocator@53@$00@internal@53@VNonTrackingAllocator@53@$00@internal@shdfnd@physx@@QAEPAPAVHeightField@Gu@4@ABQAV564@AA_N@Z 10015260 f i GuMeshFactory.obj
 0001:00014390       ?create@?$HashBase@PAVTriangleMesh@Gu@physx@@PAV123@U?$Hash@PAVTriangleMesh@Gu@physx@@@shdfnd@3@UGetKey@?$HashSetBase@PAVTriangleMesh@Gu@physx@@U?$Hash@PAVTriangleMesh@Gu@physx@@@shdfnd@3@VNonTrackingAllocator@53@$00@internal@53@VNonTrackingAllocator@53@$00@internal@shdfnd@physx@@QAEPAPAVTriangleMesh@Gu@4@ABQAV564@AA_N@Z 10015390 f i GuMeshFactory.obj
 0001:000144c0       ?erase@?$HashBase@PAVBVHStructure@Gu@physx@@PAV123@U?$Hash@PAVBVHStructure@Gu@physx@@@shdfnd@3@UGetKey@?$HashSetBase@PAVBVHStructure@Gu@physx@@U?$Hash@PAVBVHStructure@Gu@physx@@@shdfnd@3@VNonTrackingAllocator@53@$00@internal@53@VNonTrackingAllocator@53@$00@internal@shdfnd@physx@@QAE_NABQAVBVHStructure@Gu@4@@Z 100154c0 f i GuMeshFactory.obj
 0001:000145e0       ?erase@?$HashBase@PAVConvexMesh@Gu@physx@@PAV123@U?$Hash@PAVConvexMesh@Gu@physx@@@shdfnd@3@UGetKey@?$HashSetBase@PAVConvexMesh@Gu@physx@@U?$Hash@PAVConvexMesh@Gu@physx@@@shdfnd@3@VNonTrackingAllocator@53@$00@internal@53@VNonTrackingAllocator@53@$00@internal@shdfnd@physx@@QAE_NABQAVConvexMesh@Gu@4@@Z 100155e0 f i GuMeshFactory.obj
 0001:00014700       ?erase@?$HashBase@PAVHeightField@Gu@physx@@PAV123@U?$Hash@PAVHeightField@Gu@physx@@@shdfnd@3@UGetKey@?$HashSetBase@PAVHeightField@Gu@physx@@U?$Hash@PAVHeightField@Gu@physx@@@shdfnd@3@VNonTrackingAllocator@53@$00@internal@53@VNonTrackingAllocator@53@$00@internal@shdfnd@physx@@QAE_NABQAVHeightField@Gu@4@@Z 10015700 f i GuMeshFactory.obj
 0001:00014820       ?erase@?$HashBase@PAVTriangleMesh@Gu@physx@@PAV123@U?$Hash@PAVTriangleMesh@Gu@physx@@@shdfnd@3@UGetKey@?$HashSetBase@PAVTriangleMesh@Gu@physx@@U?$Hash@PAVTriangleMesh@Gu@physx@@@shdfnd@3@VNonTrackingAllocator@53@$00@internal@53@VNonTrackingAllocator@53@$00@internal@shdfnd@physx@@QAE_NABQAVTriangleMesh@Gu@4@@Z 10015820 f i GuMeshFactory.obj
 0001:00014940       ?growAndPushBack@?$Array@PAVGuMeshFactoryListener@physx@@V?$ReflectionAllocator@PAVGuMeshFactoryListener@physx@@@shdfnd@2@@shdfnd@physx@@IAEAAPAVGuMeshFactoryListener@3@ABQAV43@@Z 10015940 f i GuMeshFactory.obj
 0001:000156c0       ?reserveInternal@?$HashBase@PAVBVHStructure@Gu@physx@@PAV123@U?$Hash@PAVBVHStructure@Gu@physx@@@shdfnd@3@UGetKey@?$HashSetBase@PAVBVHStructure@Gu@physx@@U?$Hash@PAVBVHStructure@Gu@physx@@@shdfnd@3@VNonTrackingAllocator@53@$00@internal@53@VNonTrackingAllocator@53@$00@internal@shdfnd@physx@@AAEXI@Z 100166c0 f i GuMeshFactory.obj
 0001:00015860       ?reserveInternal@?$HashBase@PAVConvexMesh@Gu@physx@@PAV123@U?$Hash@PAVConvexMesh@Gu@physx@@@shdfnd@3@UGetKey@?$HashSetBase@PAVConvexMesh@Gu@physx@@U?$Hash@PAVConvexMesh@Gu@physx@@@shdfnd@3@VNonTrackingAllocator@53@$00@internal@53@VNonTrackingAllocator@53@$00@internal@shdfnd@physx@@AAEXI@Z 10016860 f i GuMeshFactory.obj
 0001:00015a00       ?reserveInternal@?$HashBase@PAVHeightField@Gu@physx@@PAV123@U?$Hash@PAVHeightField@Gu@physx@@@shdfnd@3@UGetKey@?$HashSetBase@PAVHeightField@Gu@physx@@U?$Hash@PAVHeightField@Gu@physx@@@shdfnd@3@VNonTrackingAllocator@53@$00@internal@53@VNonTrackingAllocator@53@$00@internal@shdfnd@physx@@AAEXI@Z 10016a00 f i GuMeshFactory.obj
 0001:00015ba0       ?reserveInternal@?$HashBase@PAVTriangleMesh@Gu@physx@@PAV123@U?$Hash@PAVTriangleMesh@Gu@physx@@@shdfnd@3@UGetKey@?$HashSetBase@PAVTriangleMesh@Gu@physx@@U?$Hash@PAVTriangleMesh@Gu@physx@@@shdfnd@3@VNonTrackingAllocator@53@$00@internal@53@VNonTrackingAllocator@53@$00@internal@shdfnd@physx@@AAEXI@Z 10016ba0 f i GuMeshFactory.obj
 0001:00015d50       ?getBinaryMetaData@HeightField@Gu@physx@@SAXAAVPxOutputStream@3@@Z 10016d50 f   GuMetaData.obj
 0001:00016290       ?getBinaryMetaData@BigConvexData@physx@@SAXAAVPxOutputStream@2@@Z 10017290 f   GuMetaData.obj
 0001:00016600       ?getBinaryMetaData@ConvexMesh@Gu@physx@@SAXAAVPxOutputStream@3@@Z 10017600 f   GuMetaData.obj
 0001:00016e40       ?getBinaryMetaData@RTree@Gu@physx@@SAXAAVPxOutputStream@3@@Z 10017e40 f   GuMetaData.obj
 0001:00017240       ?getBinaryMetaData@SourceMesh@Gu@physx@@SAXAAVPxOutputStream@3@@Z 10018240 f   GuMetaData.obj
 0001:00017470       ?getBinaryMetaData@BV4Tree@Gu@physx@@SAXAAVPxOutputStream@3@@Z 10018470 f   GuMetaData.obj
 0001:000178c0       ?getBinaryMetaData@TriangleMesh@Gu@physx@@SAXAAVPxOutputStream@3@@Z 100188c0 f   GuMetaData.obj
 0001:00018270       ?getBinaryMetaData@BV4TriangleMesh@Gu@physx@@SAXAAVPxOutputStream@3@@Z 10019270 f   GuMetaData.obj
 0001:000185e0       ?getBinaryMetaData@RTreeTriangleMesh@Gu@physx@@SAXAAVPxOutputStream@3@@Z 100195e0 f   GuMetaData.obj
 0001:000186e0       ?getBinaryMetaData@MaterialIndicesStruct@physx@@SAXAAVPxOutputStream@2@@Z 100196e0 f   GuMetaData.obj
 0001:00018870       ?getBinaryMetaData@GeometryUnion@Gu@physx@@SAXAAVPxOutputStream@3@@Z 10019870 f   GuMetaData.obj
 0001:00019160       ??0BigConvexData@physx@@QAE@W4PxEMPTY@1@@Z 1001a160 f i GuMetaData.obj
 0001:00019170       ??4BigConvexData@physx@@QAEAAV01@ABV01@@Z 1001a170 f i GuMetaData.obj
 0001:00019190       ?GetAdjacentVerts@BigConvexData@physx@@QBEPBEXZ 1001a190 f i GuMetaData.obj
 0001:000191a0       ?GetNbNeighbors@BigConvexData@physx@@QBEGI@Z 1001a1a0 f i GuMetaData.obj
 0001:000191b0       ?GetNbSamples@BigConvexData@physx@@QBEIXZ 1001a1b0 f i GuMetaData.obj
 0001:000191c0       ?GetNbVerts@BigConvexData@physx@@QBEIXZ 1001a1c0 f i GuMetaData.obj
 0001:000191d0       ?GetNeighbors@BigConvexData@physx@@QBEPBEI@Z 1001a1d0 f i GuMetaData.obj
 0001:000191f0       ?GetOffset@BigConvexData@physx@@QBEGI@Z 1001a1f0 f i GuMetaData.obj
 0001:00019200       ?GetSubdiv@BigConvexData@physx@@QBEIXZ 1001a200 f i GuMetaData.obj
 0001:00019210       ?GetValencies@BigConvexData@physx@@QBEPBUValency@Gu@2@XZ 1001a210 f i GuMetaData.obj
 0001:00019220       ?GetValency@BigConvexData@physx@@QBEGI@Z 1001a220 f i GuMetaData.obj
 0001:0001aa00       ?doSupport@?$SupportLocalImpl@VConvexHullV@Gu@physx@@@Gu@physx@@UBE?AT__m128@@ABT4@@Z 1001ba00 f i GuMTD.obj
 0001:0001aab0       ?doSupport@?$SupportLocalImpl@VConvexHullV@Gu@physx@@@Gu@physx@@UBEXABT__m128@@AAT4@1@Z 1001bab0 f i GuMTD.obj
 0001:0001ade0       ?populateVerts@?$SupportLocalImpl@VConvexHullV@Gu@physx@@@Gu@physx@@UBEXPBEIPBVPxVec3@3@PAT__m128@@@Z 1001bde0 f i GuMTD.obj
 0001:0001ae50       ??_E?$SupportLocalImpl@VConvexHullV@Gu@physx@@@Gu@physx@@UAEPAXI@Z 1001be50 f i GuMTD.obj
 0001:0001ae50       ??_G?$SupportLocalImpl@VConvexHullV@Gu@physx@@@Gu@physx@@UAEPAXI@Z 1001be50 f i GuMTD.obj
 0001:0001ae80       ?doSupport@?$SupportLocalImpl@VConvexHullNoScaleV@Gu@physx@@@Gu@physx@@UBE?AT__m128@@ABT4@@Z 1001be80 f i GuMTD.obj
 0001:0001aeb0       ?doSupport@?$SupportLocalImpl@VConvexHullNoScaleV@Gu@physx@@@Gu@physx@@UBEXABT__m128@@AAT4@1@Z 1001beb0 f i GuMTD.obj
 0001:0001b000       ?populateVerts@?$SupportLocalImpl@VConvexHullNoScaleV@Gu@physx@@@Gu@physx@@UBEXPBEIPBVPxVec3@3@PAT__m128@@@Z 1001c000 f i GuMTD.obj
 0001:0001b040       ??_G?$SupportLocalImpl@VConvexHullNoScaleV@Gu@physx@@@Gu@physx@@UAEPAXI@Z 1001c040 f i GuMTD.obj
 0001:0001b040       ??_E?$SupportLocalImpl@VConvexHullNoScaleV@Gu@physx@@@Gu@physx@@UAEPAXI@Z 1001c040 f i GuMTD.obj
 0001:0001b070       ?doSupport@?$SupportLocalImpl@VBoxV@Gu@physx@@@Gu@physx@@UBE?AT__m128@@ABT4@@Z 1001c070 f i GuMTD.obj
 0001:0001b0a0       ?doSupport@?$SupportLocalImpl@VBoxV@Gu@physx@@@Gu@physx@@UBEXABT__m128@@AAT4@1@Z 1001c0a0 f i GuMTD.obj
 0001:0001b100       ?populateVerts@?$SupportLocalImpl@VBoxV@Gu@physx@@@Gu@physx@@UBEXPBEIPBVPxVec3@3@PAT__m128@@@Z 1001c100 f i GuMTD.obj
 0001:0001b140       ??_E?$SupportLocalImpl@VBoxV@Gu@physx@@@Gu@physx@@UAEPAXI@Z 1001c140 f i GuMTD.obj
 0001:0001b140       ??_G?$SupportLocalImpl@VBoxV@Gu@physx@@@Gu@physx@@UAEPAXI@Z 1001c140 f i GuMTD.obj
 0001:0001b170       ??_ESupportLocal@Gu@physx@@UAEPAXI@Z 1001c170 f i GuMTD.obj
 0001:0001b170       ??_GSupportLocal@Gu@physx@@UAEPAXI@Z 1001c170 f i GuMTD.obj
 0001:0001b1a0       ?pointConvexDistance@@YA_NAAVPxVec3@physx@@0AAMABV12@PBVConvexMesh@Gu@2@ABVPxMeshScale@2@ABVPxTransform@2@@Z 1001c1a0 f   GuMTD.obj
 0001:0001d8a0       ??$gjk@U?$LocalConvex@VCapsuleV@Gu@physx@@@Gu@physx@@U?$LocalConvex@VConvexHullV@Gu@physx@@@23@@Gu@physx@@YA?AW4GjkStatus@01@ABU?$LocalConvex@VCapsuleV@Gu@physx@@@01@ABU?$LocalConvex@VConvexHullV@Gu@physx@@@01@ABT__m128@@2AAT5@333@Z 1001e8a0 f i GuMTD.obj
 0001:0001e820       ??0ContactPoint@Gu@physx@@QAE@XZ 1001f820 f i GuMTD.obj
 0001:0001e830       ??0HullPolygonData@Gu@physx@@QAE@ABU012@@Z 1001f830 f i GuMTD.obj
 0001:0001e870       ??0MeshPersistentContact@Gu@physx@@QAE@XZ 1001f870 f i GuMTD.obj
 0001:0001e880       ??0MultiplePersistentContactManifold@Gu@physx@@QAE@XZ 1001f880 f i GuMTD.obj
 0001:0001e900       ??0PersistentContact@Gu@physx@@QAE@XZ 1001f900 f i GuMTD.obj
 0001:0001e910       ??0PolygonalBox@Gu@physx@@QAE@ABV012@@Z 1001f910 f i GuMTD.obj
 0001:0001eb90       ??0PxVec3@physx@@QAE@ABV01@@Z 1001fb90 f i GuMTD.obj
 0001:0001ebb0       ??0SeparatingAxes@Gu@physx@@QAE@$$QAV012@@Z 1001fbb0 f i GuMTD.obj
 0001:0001ec70       ??0SeparatingAxes@Gu@physx@@QAE@ABV012@@Z 1001fc70 f i GuMTD.obj
 0001:0001ed30       ??0SeparatingAxes@Gu@physx@@QAE@XZ 1001fd30 f i GuMTD.obj
 0001:0001ed40       ??0SinglePersistentContactManifold@Gu@physx@@QAE@XZ 1001fd40 f i GuMTD.obj
 0001:0001ed50       ??1GjkConvexBase@Gu@physx@@UAE@XZ 1001fd50 f i GuMTD.obj
 0001:0001ed60       ??1SupportLocal@Gu@physx@@UAE@XZ 1001fd60 f i GuMTD.obj
 0001:0001ed70       ??4MultiplePersistentContactManifold@Gu@physx@@QAEAAV012@$$QAV012@@Z 1001fd70 f i GuMTD.obj
 0001:0001ee60       ??4MultiplePersistentContactManifold@Gu@physx@@QAEAAV012@ABV012@@Z 1001fe60 f i GuMTD.obj
 0001:0001ee80       ??4SeparatingAxes@Gu@physx@@QAEAAV012@$$QAV012@@Z 1001fe80 f i GuMTD.obj
 0001:0001ef50       ??4SeparatingAxes@Gu@physx@@QAEAAV012@ABV012@@Z 1001ff50 f i GuMTD.obj
 0001:0001f020       ??_E?$LocalConvex@VCapsuleV@Gu@physx@@@Gu@physx@@UAEPAXI@Z 10020020 f i GuMTD.obj
 0001:0001f020       ??_G?$LocalConvex@VCapsuleV@Gu@physx@@@Gu@physx@@UAEPAXI@Z 10020020 f i GuMTD.obj
 0001:0001f050       ??_G?$LocalConvex@VConvexHullV@Gu@physx@@@Gu@physx@@UAEPAXI@Z 10020050 f i GuMTD.obj
 0001:0001f050       ??_E?$LocalConvex@VConvexHullV@Gu@physx@@@Gu@physx@@UAEPAXI@Z 10020050 f i GuMTD.obj
 0001:0001f080       ??_EGjkConvex@Gu@physx@@UAEPAXI@Z 10020080 f i GuMTD.obj
 0001:0001f080       ??_GGjkConvex@Gu@physx@@UAEPAXI@Z 10020080 f i GuMTD.obj
 0001:0001f0b0       ??_EGjkConvexBase@Gu@physx@@UAEPAXI@Z 100200b0 f i GuMTD.obj
 0001:0001f0b0       ??_GGjkConvexBase@Gu@physx@@UAEPAXI@Z 100200b0 f i GuMTD.obj
 0001:0001f0e0       ??__G@YGXPAX0IIP6EPAX00@Z@Z 100200e0 f i GuMTD.obj
 0001:0001f700       ?clearManifold@MultiplePersistentContactManifold@Gu@physx@@QAEXXZ 10020700 f i GuMTD.obj
 0001:000235b0       ?getAxes@SeparatingAxes@Gu@physx@@QBEPBVPxVec3@3@XZ 100245b0 f i GuMTD.obj
 0001:000235c0       ?getCenter@?$LocalConvex@VCapsuleV@Gu@physx@@@Gu@physx@@UBE?AT__m128@@XZ 100245c0 f i GuMTD.obj
 0001:000235d0       ?getCenter@?$LocalConvex@VConvexHullV@Gu@physx@@@Gu@physx@@UBE?AT__m128@@XZ 100245d0 f i GuMTD.obj
 0001:000235e0       ?getEmptyManifold@MultiplePersistentContactManifold@Gu@physx@@QAEPAVSinglePersistentContactManifold@23@XZ 100245e0 f i GuMTD.obj
 0001:00023600       ?getManifold@MultiplePersistentContactManifold@Gu@physx@@QAEPAVSinglePersistentContactManifold@23@I@Z 10024600 f i GuMTD.obj
 0001:00023620       ?getNumAxes@SeparatingAxes@Gu@physx@@QBEIXZ 10024620 f i GuMTD.obj
 0001:00023630       ?getSweepMargin@?$LocalConvex@VCapsuleV@Gu@physx@@@Gu@physx@@UBE?AT__m128@@XZ 10024630 f i GuMTD.obj
 0001:00023640       ?getSweepMargin@?$LocalConvex@VConvexHullV@Gu@physx@@@Gu@physx@@UBE?AT__m128@@XZ 10024640 f i GuMTD.obj
 0001:00023660       ?getSweepMargin@GjkConvex@Gu@physx@@UBE?AT__m128@@XZ 10024660 f i GuMTD.obj
 0001:00023670       ?hillClimbing@ConvexHullV@Gu@physx@@QBEIABT__m128@@@Z 10024670 f i GuMTD.obj
 0001:00023930       ?initialize@MultiplePersistentContactManifold@Gu@physx@@QAEXXZ 10024930 f i GuMTD.obj
 0001:000239a0       ?invalidate@MultiplePersistentContactManifold@Gu@physx@@QAEIABVPsTransformV@aos@shdfnd@3@ABT__m128@@1@Z 100249a0 f i GuMTD.obj
 0001:00023a30       ?invalidate@MultiplePersistentContactManifold@Gu@physx@@QAEIABVPsTransformV@aos@shdfnd@3@ABT__m128@@@Z 10024a30 f i GuMTD.obj
 0001:00023ac0       ?maxTransformPositionDelta@MultiplePersistentContactManifold@Gu@physx@@QAE?AT__m128@@ABT4@@Z 10024ac0 f i GuMTD.obj
 0001:00023b00       ?maxTransformQuatDelta@MultiplePersistentContactManifold@Gu@physx@@QAE?AT__m128@@ABT4@@Z 10024b00 f i GuMTD.obj
 0001:00023d20       ?reduceManifoldContactsInDifferentPatches@MultiplePersistentContactManifold@Gu@physx@@QAEIPAPAUPCMContactPatch@23@IPAVMeshPersistentContact@23@IABT__m128@@@Z 10024d20 f i GuMTD.obj
 0001:00023e80       ?refineContactPatchConnective@MultiplePersistentContactManifold@Gu@physx@@QAEXPAPAUPCMContactPatch@23@IPAVMeshPersistentContact@23@ABT__m128@@@Z 10024e80 f i GuMTD.obj
 0001:00023f40       ?refreshManifold@MultiplePersistentContactManifold@Gu@physx@@QAEXABVPsMatTransformV@aos@shdfnd@3@ABT__m128@@1@Z 10024f40 f i GuMTD.obj
 0001:00024020       ?reset@SeparatingAxes@Gu@physx@@QAEXXZ 10025020 f i GuMTD.obj
 0001:00024030       ?setRelativeTransform@MultiplePersistentContactManifold@Gu@physx@@QAEXABVPsTransformV@aos@shdfnd@3@@Z 10025030 f i GuMTD.obj
 0001:00024050       ?support@?$LocalConvex@VCapsuleV@Gu@physx@@@Gu@physx@@UBE?AT__m128@@ABT4@@Z 10025050 f i GuMTD.obj
 0001:000240b0       ?support@?$LocalConvex@VCapsuleV@Gu@physx@@@Gu@physx@@UBE?AT__m128@@ABT4@AAH@Z 100250b0 f i GuMTD.obj
 0001:00024130       ?support@?$LocalConvex@VConvexHullV@Gu@physx@@@Gu@physx@@UBE?AT__m128@@ABT4@@Z 10025130 f i GuMTD.obj
 0001:000241e0       ?support@?$LocalConvex@VConvexHullV@Gu@physx@@@Gu@physx@@UBE?AT__m128@@ABT4@AAH@Z 100251e0 f i GuMTD.obj
 0001:00024290       ?support@GjkConvex@Gu@physx@@UBE?AT__m128@@ABT4@@Z 10025290 f i GuMTD.obj
 0001:000242b0       ?support@GjkConvex@Gu@physx@@UBE?AT__m128@@ABT4@AAH@Z 100252b0 f i GuMTD.obj
 0001:000242d0       ?supportPoint@?$LocalConvex@VCapsuleV@Gu@physx@@@Gu@physx@@UBE?AT__m128@@H@Z 100252d0 f i GuMTD.obj
 0001:000242f0       ?supportPoint@?$LocalConvex@VConvexHullV@Gu@physx@@@Gu@physx@@UBE?AT__m128@@H@Z 100252f0 f i GuMTD.obj
 0001:00024340       ?supportPoint@GjkConvex@Gu@physx@@UBE?AT__m128@@H@Z 10025340 f i GuMTD.obj
 0001:00024360       ?supportVertexIndex@ConvexHullV@Gu@physx@@QBEIABT__m128@@@Z 10025360 f i GuMTD.obj
 0001:00024410       ?toBuffer@MultiplePersistentContactManifold@Gu@physx@@QAEXPIAE@Z 10025410 f i GuMTD.obj
 0001:000244f0       ?supportPoint@?$RelativeConvex@VBoxV@Gu@physx@@@Gu@physx@@UBE?AT__m128@@H@Z 100254f0 f i GuOverlapTests.obj
 0001:00024550       ?support@?$RelativeConvex@VBoxV@Gu@physx@@@Gu@physx@@UBE?AT__m128@@ABT4@@Z 10025550 f i GuOverlapTests.obj
 0001:000245d0       ?support@?$RelativeConvex@VBoxV@Gu@physx@@@Gu@physx@@UBE?AT__m128@@ABT4@AAH@Z 100255d0 f i GuOverlapTests.obj
 0001:00024660       ?getCenter@?$RelativeConvex@VBoxV@Gu@physx@@@Gu@physx@@UBE?AT__m128@@XZ 10025660 f i GuOverlapTests.obj
 0001:000246a0       ?getSweepMargin@?$RelativeConvex@VBoxV@Gu@physx@@@Gu@physx@@UBE?AT__m128@@XZ 100256a0 f i GuOverlapTests.obj
 0001:000246c0       ??_G?$RelativeConvex@VBoxV@Gu@physx@@@Gu@physx@@UAEPAXI@Z 100256c0 f i GuOverlapTests.obj
 0001:000246c0       ??_E?$RelativeConvex@VBoxV@Gu@physx@@@Gu@physx@@UAEPAXI@Z 100256c0 f i GuOverlapTests.obj
 0001:000246f0       ?getOverlapFuncTable@Gu@physx@@YAPAY06Q6A_NABVPxGeometry@2@ABVPxTransform@2@01PAUTriggerCache@12@@ZXZ 100256f0 f   GuOverlapTests.obj
 0001:00024700       ?registerHeightFields@Gu@physx@@YAXXZ 10025700 f   GuOverlapTests.obj
 0001:00026d20       ?supportPoint@?$RelativeConvex@VConvexHullV@Gu@physx@@@Gu@physx@@UBE?AT__m128@@H@Z 10027d20 f i GuOverlapTests.obj
 0001:00026da0       ?support@?$RelativeConvex@VConvexHullV@Gu@physx@@@Gu@physx@@UBE?AT__m128@@ABT4@@Z 10027da0 f i GuOverlapTests.obj
 0001:00026ea0       ?support@?$RelativeConvex@VConvexHullV@Gu@physx@@@Gu@physx@@UBE?AT__m128@@ABT4@AAH@Z 10027ea0 f i GuOverlapTests.obj
 0001:00026fa0       ?getCenter@?$RelativeConvex@VConvexHullV@Gu@physx@@@Gu@physx@@UBE?AT__m128@@XZ 10027fa0 f i GuOverlapTests.obj
 0001:00026fe0       ?getSweepMargin@?$RelativeConvex@VConvexHullV@Gu@physx@@@Gu@physx@@UBE?AT__m128@@XZ 10027fe0 f i GuOverlapTests.obj
 0001:00027000       ??_G?$RelativeConvex@VConvexHullV@Gu@physx@@@Gu@physx@@UAEPAXI@Z 10028000 f i GuOverlapTests.obj
 0001:00027000       ??_E?$RelativeConvex@VConvexHullV@Gu@physx@@@Gu@physx@@UAEPAXI@Z 10028000 f i GuOverlapTests.obj
 0001:00027030       ??$gjk@U?$RelativeConvex@VBoxV@Gu@physx@@@Gu@physx@@U?$LocalConvex@VConvexHullV@Gu@physx@@@23@@Gu@physx@@YA?AW4GjkStatus@01@ABU?$RelativeConvex@VBoxV@Gu@physx@@@01@ABU?$LocalConvex@VConvexHullV@Gu@physx@@@01@ABT__m128@@2AAT5@333@Z 10028030 f i GuOverlapTests.obj
 0001:00027ff0       ??$gjk@U?$RelativeConvex@VConvexHullV@Gu@physx@@@Gu@physx@@U?$LocalConvex@VConvexHullV@Gu@physx@@@23@@Gu@physx@@YA?AW4GjkStatus@01@ABU?$RelativeConvex@VConvexHullV@Gu@physx@@@01@ABU?$LocalConvex@VConvexHullV@Gu@physx@@@01@ABT__m128@@2AAT5@333@Z 10028ff0 f i GuOverlapTests.obj
 0001:000290e0       ?ComputeCubemapNearestOffset@physx@@YAIABVPxVec3@1@I@Z 1002a0e0 f i GuOverlapTests.obj
 0001:0002b020       ?getRaycastFuncTable@Gu@physx@@YAAAY06Q6AIABVPxGeometry@2@ABVPxTransform@2@ABVPxVec3@2@2MV?$PxFlags@W4Enum@PxHitFlag@physx@@G@2@IPIAUPxRaycastHit@2@@ZXZ 1002c020 f   GuRaycastTests.obj
 0001:0002b030       ?raycast_box@@YAIABVPxGeometry@physx@@ABVPxTransform@2@ABVPxVec3@2@2MV?$PxFlags@W4Enum@PxHitFlag@physx@@G@2@IPIAUPxRaycastHit@2@@Z 1002c030 f   GuRaycastTests.obj
 0001:0002b670       ?raycast_sphere@@YAIABVPxGeometry@physx@@ABVPxTransform@2@ABVPxVec3@2@2MV?$PxFlags@W4Enum@PxHitFlag@physx@@G@2@IPIAUPxRaycastHit@2@@Z 1002c670 f   GuRaycastTests.obj
 0001:0002b7e0       ?raycast_capsule@@YAIABVPxGeometry@physx@@ABVPxTransform@2@ABVPxVec3@2@2MV?$PxFlags@W4Enum@PxHitFlag@physx@@G@2@IPIAUPxRaycastHit@2@@Z 1002c7e0 f   GuRaycastTests.obj
 0001:0002bcf0       ?raycast_plane@@YAIABVPxGeometry@physx@@ABVPxTransform@2@ABVPxVec3@2@2MV?$PxFlags@W4Enum@PxHitFlag@physx@@G@2@IPIAUPxRaycastHit@2@@Z 1002ccf0 f   GuRaycastTests.obj
 0001:0002be30       ?raycast_convexMesh@@YAIABVPxGeometry@physx@@ABVPxTransform@2@ABVPxVec3@2@2MV?$PxFlags@W4Enum@PxHitFlag@physx@@G@2@IPIAUPxRaycastHit@2@@Z 1002ce30 f   GuRaycastTests.obj
 0001:0002cb30       ?raycast_triangleMesh@@YAIABVPxGeometry@physx@@ABVPxTransform@2@ABVPxVec3@2@2MV?$PxFlags@W4Enum@PxHitFlag@physx@@G@2@IPIAUPxRaycastHit@2@@Z 1002db30 f   GuRaycastTests.obj
 0001:0002cb80       ?raycast_heightField@@YAIABVPxGeometry@physx@@ABVPxTransform@2@ABVPxVec3@2@2MV?$PxFlags@W4Enum@PxHitFlag@physx@@G@2@IPIAUPxRaycastHit@2@@Z 1002db80 f   GuRaycastTests.obj
 0001:0002d390       ?registerHeightFields_Raycasts@@YAXXZ 1002e390 f   GuRaycastTests.obj
 0001:0002eaf0       ??Dphysx@@YA?AVMatrix34@Cm@0@ABVPxMeshScale@0@ABVPxTransform@0@@Z 1002faf0 f i GuRaycastTests.obj
 0001:0002f720       ?readChunk@physx@@YAXAAC000AAVPxInputStream@1@@Z 10030720 f   GuSerialize.obj
 0001:0002f760       ?readWord@physx@@YAG_NAAVPxInputStream@1@@Z 10030760 f   GuSerialize.obj
 0001:0002f790       ?readDword@physx@@YAI_NAAVPxInputStream@1@@Z 10030790 f   GuSerialize.obj
 0001:0002f7d0       ?readFloat@physx@@YAM_NAAVPxInputStream@1@@Z 100307d0 f   GuSerialize.obj
 0001:0002f810       ?writeWord@physx@@YAXG_NAAVPxOutputStream@1@@Z 10030810 f   GuSerialize.obj
 0001:0002f840       ?writeDword@physx@@YAXI_NAAVPxOutputStream@1@@Z 10030840 f   GuSerialize.obj
 0001:0002f880       ?writeFloat@physx@@YAXM_NAAVPxOutputStream@1@@Z 10030880 f   GuSerialize.obj
 0001:0002f8c0       ?readFloatBuffer@physx@@YA_NPAMI_NAAVPxInputStream@1@@Z 100308c0 f   GuSerialize.obj
 0001:0002f920       ?writeFloatBuffer@physx@@YAXPBMI_NAAVPxOutputStream@1@@Z 10030920 f   GuSerialize.obj
 0001:0002f9a0       ?writeWordBuffer@physx@@YAXPBGI_NAAVPxOutputStream@1@@Z 100309a0 f   GuSerialize.obj
 0001:0002fa10       ?readWordBuffer@physx@@YAXPAGI_NAAVPxInputStream@1@@Z 10030a10 f   GuSerialize.obj
 0001:0002fa50       ?writeHeader@physx@@YA_NCCCCI_NAAVPxOutputStream@1@@Z 10030a50 f   GuSerialize.obj
 0001:0002fb40       ?readHeader@physx@@YA_NCCCCAAIAA_NAAVPxInputStream@1@@Z 10030b40 f   GuSerialize.obj
 0001:0002fc30       ?computeMaxIndex@physx@@YAIPBII@Z 10030c30 f   GuSerialize.obj
 0001:0002fc60       ?computeMaxIndex@physx@@YAGPBGI@Z 10030c60 f   GuSerialize.obj
 0001:0002fca0       ?storeIndices@physx@@YAXIIPBIAAVPxOutputStream@1@_N@Z 10030ca0 f   GuSerialize.obj
 0001:0002fd70       ?readIndices@physx@@YAXIIPAIAAVPxInputStream@1@_N@Z 10030d70 f   GuSerialize.obj
 0001:0002fe30       ?WriteHeader@Gu@physx@@YA_NEEEEI_NAAVPxOutputStream@2@@Z 10030e30 f   GuSerialize.obj
 0001:0002ff20       ?ReadHeader@Gu@physx@@YA_NEEEEAAIAA_NAAVPxInputStream@2@@Z 10030f20 f   GuSerialize.obj
 0001:00030020       ?StoreIndices@Gu@physx@@YAXIIPBIAAVPxOutputStream@2@_N@Z 10031020 f   GuSerialize.obj
 0001:00030120       ?ReadIndices@Gu@physx@@YAXIIPAIAAVPxInputStream@2@_N@Z 10031120 f   GuSerialize.obj
 0001:000302d0       ?StoreIndices@Gu@physx@@YAXGIPBGAAVPxOutputStream@2@_N@Z 100312d0 f   GuSerialize.obj
 0001:00030360       ?ReadIndices@Gu@physx@@YAXGIPAGAAVPxInputStream@2@_N@Z 10031360 f   GuSerialize.obj
 0001:00030460       ?computeCapsule_TriangleMeshMTD@Gu@physx@@YA_NABVPxTriangleMeshGeometry@2@ABVPxTransform@2@AAVCapsuleV@12@M_NAAUPxSweepHit@2@@Z 10031460 f   GuSweepMTD.obj
 0001:00030ba0       ?computeCapsule_HeightFieldMTD@Gu@physx@@YA_NABVPxHeightFieldGeometry@2@ABVPxTransform@2@AAVCapsuleV@12@M_NIAAUPxSweepHit@2@@Z 10031ba0 f   GuSweepMTD.obj
 0001:00031220       ?computeBox_TriangleMeshMTD@Gu@physx@@YA_NABVPxTriangleMeshGeometry@2@ABVPxTransform@2@ABVBox@12@1M_NAAUPxSweepHit@2@@Z 10032220 f   GuSweepMTD.obj
 0001:00031e70       ?computeBox_HeightFieldMTD@Gu@physx@@YA_NABVPxHeightFieldGeometry@2@ABVPxTransform@2@ABVBox@12@1M_NIAAUPxSweepHit@2@@Z 10032e70 f   GuSweepMTD.obj
 0001:00032e50       ?computeConvex_TriangleMeshMTD@Gu@physx@@YA_NABVPxTriangleMeshGeometry@2@ABVPxTransform@2@ABVPxConvexMeshGeometry@2@1M_NAAUPxSweepHit@2@@Z 10033e50 f   GuSweepMTD.obj
 0001:00034290       ?computeConvex_HeightFieldMTD@Gu@physx@@YA_NABVPxHeightFieldGeometry@2@ABVPxTransform@2@ABVPxConvexMeshGeometry@2@1M_NIAAUPxSweepHit@2@@Z 10035290 f   GuSweepMTD.obj
 0001:00035860       ?computeSphere_SphereMTD@Gu@physx@@YA_NABVSphere@12@0AAUPxSweepHit@2@@Z 10036860 f   GuSweepMTD.obj
 0001:00035950       ?computeSphere_CapsuleMTD@Gu@physx@@YA_NABVSphere@12@ABVCapsule@12@AAUPxSweepHit@2@@Z 10036950 f   GuSweepMTD.obj
 0001:00035ae0       ?computeCapsule_CapsuleMTD@Gu@physx@@YA_NABVCapsule@12@0AAUPxSweepHit@2@@Z 10036ae0 f   GuSweepMTD.obj
 0001:00035ce0       ?computePlane_CapsuleMTD@Gu@physx@@YA_NABVPxPlane@2@ABVCapsule@12@AAUPxSweepHit@2@@Z 10036ce0 f   GuSweepMTD.obj
 0001:00035de0       ?computePlane_BoxMTD@Gu@physx@@YA_NABVPxPlane@2@ABVBox@12@AAUPxSweepHit@2@@Z 10036de0 f   GuSweepMTD.obj
 0001:00036030       ?computePlane_ConvexMTD@Gu@physx@@YA_NABVPxPlane@2@ABVPxConvexMeshGeometry@2@ABVPxTransform@2@AAUPxSweepHit@2@@Z 10037030 f   GuSweepMTD.obj
 0001:00036460       ??0FastVertex2ShapeScaling@Cm@physx@@QAE@XZ 10037460 f i GuSweepMTD.obj
 0001:000364f0       ??0MTDTriangle@@QAE@XZ     100374f0 f i GuSweepMTD.obj
 0001:00036500       ??1?$MeshHitCallback@UPxRaycastHit@physx@@@Gu@physx@@UAE@XZ 10037500 f i GuSweepMTD.obj
 0001:00036510       ??1MTDTriangle@@QAE@XZ     10037510 f i GuSweepMTD.obj
 0001:00036520       ??Dphysx@@YA?AVMatrix34@Cm@0@ABVPxTransform@0@ABVPxMeshScale@0@@Z 10037520 f i GuSweepMTD.obj
 0001:00036c00       ??_E?$MeshHitCallback@UPxRaycastHit@physx@@@Gu@physx@@UAEPAXI@Z 10037c00 f i GuSweepMTD.obj
 0001:00036c00       ??_G?$MeshHitCallback@UPxRaycastHit@physx@@@Gu@physx@@UAEPAXI@Z 10037c00 f i GuSweepMTD.obj
 0001:00036c30       ??_EMeshMTDGenerationCallback@@UAEPAXI@Z 10037c30 f i GuSweepMTD.obj
 0001:00036c30       ??_GMeshMTDGenerationCallback@@UAEPAXI@Z 10037c30 f i GuSweepMTD.obj
 0001:00036c60       ??_EMidPhaseQueryLocalReport@@UAEPAXI@Z 10037c60 f i GuSweepMTD.obj
 0001:00036c60       ??_GMidPhaseQueryLocalReport@@UAEPAXI@Z 10037c60 f i GuSweepMTD.obj
 0001:00036c90       ?allocate@?$ReflectionAllocator@I@shdfnd@physx@@QAEPAXIPBDH@Z 10037c90 f i GuSweepMTD.obj
 0001:00036ff0       ?getInverse@PxMat33@physx@@QBE?BV12@XZ 10037ff0 f i GuSweepMTD.obj
 0001:000372e0       ?growAndPushBack@?$Array@IV?$ReflectionAllocator@I@shdfnd@physx@@@shdfnd@physx@@IAEAAIABI@Z 100382e0 f i GuSweepMTD.obj
 0001:000373a0       ?init@FastVertex2ShapeScaling@Cm@physx@@QAEXABVPxVec3@3@ABVPxQuat@3@@Z 100383a0 f i GuSweepMTD.obj
 0001:00037820       ?onEvent@MidPhaseQueryLocalReport@@UAE_NIPAI@Z 10038820 f i GuSweepMTD.obj
 0001:00037870       ?processHit@MeshMTDGenerationCallback@@UAE_NABUPxRaycastHit@physx@@ABVPxVec3@3@11AAMPBI@Z 10038870 f i GuSweepMTD.obj
 0001:000378b0       ?recreate@?$Array@IV?$ReflectionAllocator@I@shdfnd@physx@@@shdfnd@physx@@IAEXI@Z 100388b0 f i GuSweepMTD.obj
 0001:00037980       ?sweepCapsuleTriangles@Gu@physx@@YA_NIPBVPxTriangle@2@_NABVPxCapsuleGeometry@2@ABVPxTransform@2@ABVPxVec3@2@MAAUPxSweepHit@2@PBIMV?$PxFlags@W4Enum@PxHitFlag@physx@@G@2@@Z 10038980 f   GuSweepSharedTests.obj
 0001:00037b10       ?sweepCapsule_SphereGeom@@YA_NABVPxGeometry@physx@@ABVPxTransform@2@ABVPxCapsuleGeometry@2@1ABVCapsule@Gu@2@ABVPxVec3@2@MAAUPxSweepHit@2@V?$PxFlags@W4Enum@PxHitFlag@physx@@G@2@M@Z 10038b10 f   GuSweepSharedTests.obj
 0001:00037ca0       ?sweepCapsule_PlaneGeom@@YA_NABVPxGeometry@physx@@ABVPxTransform@2@ABVPxCapsuleGeometry@2@1ABVCapsule@Gu@2@ABVPxVec3@2@MAAUPxSweepHit@2@V?$PxFlags@W4Enum@PxHitFlag@physx@@G@2@M@Z 10038ca0 f   GuSweepSharedTests.obj
 0001:00037f50       ?sweepCapsule_CapsuleGeom@@YA_NABVPxGeometry@physx@@ABVPxTransform@2@ABVPxCapsuleGeometry@2@1ABVCapsule@Gu@2@ABVPxVec3@2@MAAUPxSweepHit@2@V?$PxFlags@W4Enum@PxHitFlag@physx@@G@2@M@Z 10038f50 f   GuSweepSharedTests.obj
 0001:00038100       ?sweepCapsule_ConvexGeom@@YA_NABVPxGeometry@physx@@ABVPxTransform@2@ABVPxCapsuleGeometry@2@1ABVCapsule@Gu@2@ABVPxVec3@2@MAAUPxSweepHit@2@V?$PxFlags@W4Enum@PxHitFlag@physx@@G@2@M@Z 10039100 f   GuSweepSharedTests.obj
 0001:00038e60       ?sweepBox_PlaneGeom@@YA_NABVPxGeometry@physx@@ABVPxTransform@2@ABVPxBoxGeometry@2@1ABVBox@Gu@2@ABVPxVec3@2@MAAUPxSweepHit@2@V?$PxFlags@W4Enum@PxHitFlag@physx@@G@2@M@Z 10039e60 f   GuSweepSharedTests.obj
 0001:00039230       ?sweepBox_ConvexGeom@@YA_NABVPxGeometry@physx@@ABVPxTransform@2@ABVPxBoxGeometry@2@1ABVBox@Gu@2@ABVPxVec3@2@MAAUPxSweepHit@2@V?$PxFlags@W4Enum@PxHitFlag@physx@@G@2@M@Z 1003a230 f   GuSweepSharedTests.obj
 0001:00039f70       ?sweepConvex_SphereGeom@@YA_NABVPxGeometry@physx@@ABVPxTransform@2@ABVPxConvexMeshGeometry@2@1ABVPxVec3@2@MAAUPxSweepHit@2@V?$PxFlags@W4Enum@PxHitFlag@physx@@G@2@M@Z 1003af70 f   GuSweepSharedTests.obj
 0001:0003ab70       ?sweepConvex_PlaneGeom@@YA_NABVPxGeometry@physx@@ABVPxTransform@2@ABVPxConvexMeshGeometry@2@1ABVPxVec3@2@MAAUPxSweepHit@2@V?$PxFlags@W4Enum@PxHitFlag@physx@@G@2@M@Z 1003bb70 f   GuSweepSharedTests.obj
 0001:0003afd0       ?sweepConvex_CapsuleGeom@@YA_NABVPxGeometry@physx@@ABVPxTransform@2@ABVPxConvexMeshGeometry@2@1ABVPxVec3@2@MAAUPxSweepHit@2@V?$PxFlags@W4Enum@PxHitFlag@physx@@G@2@M@Z 1003bfd0 f   GuSweepSharedTests.obj
 0001:0003b1c0       ?sweepConvex_BoxGeom@@YA_NABVPxGeometry@physx@@ABVPxTransform@2@ABVPxConvexMeshGeometry@2@1ABVPxVec3@2@MAAUPxSweepHit@2@V?$PxFlags@W4Enum@PxHitFlag@physx@@G@2@M@Z 1003c1c0 f   GuSweepSharedTests.obj
 0001:0003b3a0       ?sweepConvex_ConvexGeom@@YA_NABVPxGeometry@physx@@ABVPxTransform@2@ABVPxConvexMeshGeometry@2@1ABVPxVec3@2@MAAUPxSweepHit@2@V?$PxFlags@W4Enum@PxHitFlag@physx@@G@2@M@Z 1003c3a0 f   GuSweepSharedTests.obj
 0001:0003c4d0       ??$gjkPenetration@U?$LocalConvex@VCapsuleV@Gu@physx@@@Gu@physx@@U?$LocalConvex@VConvexHullV@Gu@physx@@@23@@Gu@physx@@YA?AW4GjkStatus@01@ABU?$LocalConvex@VCapsuleV@Gu@physx@@@01@ABU?$LocalConvex@VConvexHullV@Gu@physx@@@01@ABT__m128@@2_NPIAE4AAEAAUGjkOutput@01@@Z 1003d4d0 f i GuSweepSharedTests.obj
 0001:0003de20       ??$gjkPenetration@U?$RelativeConvex@VBoxV@Gu@physx@@@Gu@physx@@U?$LocalConvex@VConvexHullV@Gu@physx@@@23@@Gu@physx@@YA?AW4GjkStatus@01@ABU?$RelativeConvex@VBoxV@Gu@physx@@@01@ABU?$LocalConvex@VConvexHullV@Gu@physx@@@01@ABT__m128@@2_NPIAE4AAEAAUGjkOutput@01@@Z 1003ee20 f i GuSweepSharedTests.obj
 0001:0003f7a0       ??$gjkPenetration@U?$RelativeConvex@VConvexHullV@Gu@physx@@@Gu@physx@@U?$LocalConvex@VConvexHullV@Gu@physx@@@23@@Gu@physx@@YA?AW4GjkStatus@01@ABU?$RelativeConvex@VConvexHullV@Gu@physx@@@01@ABU?$LocalConvex@VConvexHullV@Gu@physx@@@01@ABT__m128@@2_NPIAE4AAEAAUGjkOutput@01@@Z 100407a0 f i GuSweepSharedTests.obj
 0001:00041130       ??$gjkRaycast@U?$LocalConvex@VCapsuleV@Gu@physx@@@Gu@physx@@U?$LocalConvex@VConvexHullV@Gu@physx@@@23@@Gu@physx@@YA_NABU?$LocalConvex@VCapsuleV@Gu@physx@@@01@ABU?$LocalConvex@VConvexHullV@Gu@physx@@@01@ABT__m128@@222AAT4@33M@Z 10042130 f i GuSweepSharedTests.obj
 0001:00041fd0       ??$gjkRaycast@U?$RelativeConvex@VBoxV@Gu@physx@@@Gu@physx@@U?$LocalConvex@VConvexHullV@Gu@physx@@@23@@Gu@physx@@YA_NABU?$RelativeConvex@VBoxV@Gu@physx@@@01@ABU?$LocalConvex@VConvexHullV@Gu@physx@@@01@ABT__m128@@222AAT4@33M@Z 10042fd0 f i GuSweepSharedTests.obj
 0001:00042e80       ??$gjkRaycast@U?$RelativeConvex@VConvexHullV@Gu@physx@@@Gu@physx@@U?$LocalConvex@VConvexHullV@Gu@physx@@@23@@Gu@physx@@YA_NABU?$RelativeConvex@VConvexHullV@Gu@physx@@@01@ABU?$LocalConvex@VConvexHullV@Gu@physx@@@01@ABT__m128@@222AAT4@33M@Z 10043e80 f i GuSweepSharedTests.obj
 0001:00043d90       ??$gjkRaycastPenetration@U?$LocalConvex@VCapsuleV@Gu@physx@@@Gu@physx@@U?$LocalConvex@VConvexHullV@Gu@physx@@@23@@Gu@physx@@YA_NABU?$LocalConvex@VCapsuleV@Gu@physx@@@01@ABU?$LocalConvex@VConvexHullV@Gu@physx@@@01@ABT__m128@@222AAT4@33M_N@Z 10044d90 f i GuSweepSharedTests.obj
 0001:00043f90       ??$gjkRaycastPenetration@U?$RelativeConvex@VBoxV@Gu@physx@@@Gu@physx@@U?$LocalConvex@VConvexHullV@Gu@physx@@@23@@Gu@physx@@YA_NABU?$RelativeConvex@VBoxV@Gu@physx@@@01@ABU?$LocalConvex@VConvexHullV@Gu@physx@@@01@ABT__m128@@222AAT4@33M_N@Z 10044f90 f i GuSweepSharedTests.obj
 0001:000441a0       ??$gjkRaycastPenetration@U?$RelativeConvex@VConvexHullV@Gu@physx@@@Gu@physx@@U?$LocalConvex@VConvexHullV@Gu@physx@@@23@@Gu@physx@@YA_NABU?$RelativeConvex@VConvexHullV@Gu@physx@@@01@ABU?$LocalConvex@VConvexHullV@Gu@physx@@@01@ABT__m128@@222AAT4@33M_N@Z 100451a0 f i GuSweepSharedTests.obj
 0001:000443b0       ??0?$RelativeConvex@VBoxV@Gu@physx@@@Gu@physx@@QAE@ABVBoxV@12@ABVPsMatTransformV@aos@shdfnd@2@@Z 100453b0 f i GuSweepSharedTests.obj
 0001:00044430       ??0?$RelativeConvex@VConvexHullV@Gu@physx@@@Gu@physx@@QAE@ABVConvexHullV@12@ABVPsMatTransformV@aos@shdfnd@2@@Z 10045430 f i GuSweepSharedTests.obj
 0001:000448e0       ?getSweepFuncTable@Gu@physx@@YAABUGeomSweepFuncs@12@XZ 100458e0 f   GuSweepTests.obj
 0001:000448f0       ?sweepBoxTriangles@Gu@physx@@YA_NIPBVPxTriangle@2@_NABVPxBoxGeometry@2@ABVPxTransform@2@ABVPxVec3@2@MAAUPxSweepHit@2@PBIMV?$PxFlags@W4Enum@PxHitFlag@physx@@G@2@@Z 100458f0 f   GuSweepTests.obj
 0001:00045410       ?sweepCapsule_BoxGeom@@YA_NABVPxGeometry@physx@@ABVPxTransform@2@ABVPxCapsuleGeometry@2@1ABVCapsule@Gu@2@ABVPxVec3@2@MAAUPxSweepHit@2@V?$PxFlags@W4Enum@PxHitFlag@physx@@G@2@M@Z 10046410 f   GuSweepTests.obj
 0001:00045cd0       ?sweepBox_SphereGeom@@YA_NABVPxGeometry@physx@@ABVPxTransform@2@ABVPxBoxGeometry@2@1ABVBox@Gu@2@ABVPxVec3@2@MAAUPxSweepHit@2@V?$PxFlags@W4Enum@PxHitFlag@physx@@G@2@M@Z 10046cd0 f   GuSweepTests.obj
 0001:000463b0       ?sweepBox_CapsuleGeom@@YA_NABVPxGeometry@physx@@ABVPxTransform@2@ABVPxBoxGeometry@2@1ABVBox@Gu@2@ABVPxVec3@2@MAAUPxSweepHit@2@V?$PxFlags@W4Enum@PxHitFlag@physx@@G@2@M@Z 100473b0 f   GuSweepTests.obj
 0001:00046c00       ?sweepBox_BoxGeom@@YA_NABVPxGeometry@physx@@ABVPxTransform@2@ABVPxBoxGeometry@2@1ABVBox@Gu@2@ABVPxVec3@2@MAAUPxSweepHit@2@V?$PxFlags@W4Enum@PxHitFlag@physx@@G@2@M@Z 10047c00 f   GuSweepTests.obj
 0001:00047500       ?registerHeightFields_Sweeps@@YAXXZ 10048500 f   GuSweepTests.obj
 0001:00047540       ??$gjkPenetration@U?$LocalConvex@VCapsuleV@Gu@physx@@@Gu@physx@@U?$LocalConvex@VBoxV@Gu@physx@@@23@@Gu@physx@@YA?AW4GjkStatus@01@ABU?$LocalConvex@VCapsuleV@Gu@physx@@@01@ABU?$LocalConvex@VBoxV@Gu@physx@@@01@ABT__m128@@2_NPIAE4AAEAAUGjkOutput@01@@Z 10048540 f i GuSweepTests.obj
 0001:00048d90       ??$gjkPenetration@U?$LocalConvex@VTriangleV@Gu@physx@@@Gu@physx@@U?$LocalConvex@VBoxV@Gu@physx@@@23@@Gu@physx@@YA?AW4GjkStatus@01@ABU?$LocalConvex@VTriangleV@Gu@physx@@@01@ABU?$LocalConvex@VBoxV@Gu@physx@@@01@ABT__m128@@2_NPIAE4AAEAAUGjkOutput@01@@Z 10049d90 f i GuSweepTests.obj
 0001:0004a6b0       ??$gjkPenetration@U?$RelativeConvex@VBoxV@Gu@physx@@@Gu@physx@@U?$LocalConvex@VBoxV@Gu@physx@@@23@@Gu@physx@@YA?AW4GjkStatus@01@ABU?$RelativeConvex@VBoxV@Gu@physx@@@01@ABU?$LocalConvex@VBoxV@Gu@physx@@@01@ABT__m128@@2_NPIAE4AAEAAUGjkOutput@01@@Z 1004b6b0 f i GuSweepTests.obj
 0001:0004bf80       ??$gjkRaycast@U?$LocalConvex@VCapsuleV@Gu@physx@@@Gu@physx@@U?$LocalConvex@VBoxV@Gu@physx@@@23@@Gu@physx@@YA_NABU?$LocalConvex@VCapsuleV@Gu@physx@@@01@ABU?$LocalConvex@VBoxV@Gu@physx@@@01@ABT__m128@@222AAT4@33M@Z 1004cf80 f i GuSweepTests.obj
 0001:0004ccf0       ??$gjkRaycast@U?$LocalConvex@VTriangleV@Gu@physx@@@Gu@physx@@U?$LocalConvex@VBoxV@Gu@physx@@@23@@Gu@physx@@YA_NABU?$LocalConvex@VTriangleV@Gu@physx@@@01@ABU?$LocalConvex@VBoxV@Gu@physx@@@01@ABT__m128@@222AAT4@33M@Z 1004dcf0 f i GuSweepTests.obj
 0001:0004dad0       ??$gjkRaycast@U?$RelativeConvex@VBoxV@Gu@physx@@@Gu@physx@@U?$LocalConvex@VBoxV@Gu@physx@@@23@@Gu@physx@@YA_NABU?$RelativeConvex@VBoxV@Gu@physx@@@01@ABU?$LocalConvex@VBoxV@Gu@physx@@@01@ABT__m128@@222AAT4@33M@Z 1004ead0 f i GuSweepTests.obj
 0001:0004e8c0       ??$gjkRaycastPenetration@U?$LocalConvex@VCapsuleV@Gu@physx@@@Gu@physx@@U?$LocalConvex@VBoxV@Gu@physx@@@23@@Gu@physx@@YA_NABU?$LocalConvex@VCapsuleV@Gu@physx@@@01@ABU?$LocalConvex@VBoxV@Gu@physx@@@01@ABT__m128@@222AAT4@33M_N@Z 1004f8c0 f i GuSweepTests.obj
 0001:0004eac0       ??$gjkRaycastPenetration@U?$LocalConvex@VTriangleV@Gu@physx@@@Gu@physx@@U?$LocalConvex@VBoxV@Gu@physx@@@23@@Gu@physx@@YA_NABU?$LocalConvex@VTriangleV@Gu@physx@@@01@ABU?$LocalConvex@VBoxV@Gu@physx@@@01@ABT__m128@@222AAT4@33M_N@Z 1004fac0 f i GuSweepTests.obj
 0001:0004ecc0       ??$gjkRaycastPenetration@U?$RelativeConvex@VBoxV@Gu@physx@@@Gu@physx@@U?$LocalConvex@VBoxV@Gu@physx@@@23@@Gu@physx@@YA_NABU?$RelativeConvex@VBoxV@Gu@physx@@@01@ABU?$LocalConvex@VBoxV@Gu@physx@@@01@ABT__m128@@222AAT4@33M_N@Z 1004fcc0 f i GuSweepTests.obj
 0001:0004eed0       ??_E?$LocalConvex@VBoxV@Gu@physx@@@Gu@physx@@UAEPAXI@Z 1004fed0 f i GuSweepTests.obj
 0001:0004eed0       ??_G?$LocalConvex@VBoxV@Gu@physx@@@Gu@physx@@UAEPAXI@Z 1004fed0 f i GuSweepTests.obj
 0001:0004ef00       ??_G?$LocalConvex@VTriangleV@Gu@physx@@@Gu@physx@@UAEPAXI@Z 1004ff00 f i GuSweepTests.obj
 0001:0004ef00       ??_E?$LocalConvex@VTriangleV@Gu@physx@@@Gu@physx@@UAEPAXI@Z 1004ff00 f i GuSweepTests.obj
 0001:0004ef30       ?getCenter@?$LocalConvex@VBoxV@Gu@physx@@@Gu@physx@@UBE?AT__m128@@XZ 1004ff30 f i GuSweepTests.obj
 0001:0004ef40       ?getCenter@?$LocalConvex@VTriangleV@Gu@physx@@@Gu@physx@@UBE?AT__m128@@XZ 1004ff40 f i GuSweepTests.obj
 0001:0004ef50       ?getSweepMargin@?$LocalConvex@VBoxV@Gu@physx@@@Gu@physx@@UBE?AT__m128@@XZ 1004ff50 f i GuSweepTests.obj
 0001:0004ef70       ?getSweepMargin@?$LocalConvex@VTriangleV@Gu@physx@@@Gu@physx@@UBE?AT__m128@@XZ 1004ff70 f i GuSweepTests.obj
 0001:0004ef90       ?support@?$LocalConvex@VBoxV@Gu@physx@@@Gu@physx@@UBE?AT__m128@@ABT4@@Z 1004ff90 f i GuSweepTests.obj
 0001:0004efc0       ?support@?$LocalConvex@VBoxV@Gu@physx@@@Gu@physx@@UBE?AT__m128@@ABT4@AAH@Z 1004ffc0 f i GuSweepTests.obj
 0001:0004f000       ?support@?$LocalConvex@VTriangleV@Gu@physx@@@Gu@physx@@UBE?AT__m128@@ABT4@@Z 10050000 f i GuSweepTests.obj
 0001:0004f0a0       ?support@?$LocalConvex@VTriangleV@Gu@physx@@@Gu@physx@@UBE?AT__m128@@ABT4@AAH@Z 100500a0 f i GuSweepTests.obj
 0001:0004f190       ?supportPoint@?$LocalConvex@VBoxV@Gu@physx@@@Gu@physx@@UBE?AT__m128@@H@Z 10050190 f i GuSweepTests.obj
 0001:0004f1d0       ?supportPoint@?$LocalConvex@VTriangleV@Gu@physx@@@Gu@physx@@UBE?AT__m128@@H@Z 100501d0 f i GuSweepTests.obj
 0001:0004f1f0       ?subdivide@AABBTreeBuildNode@Gu@physx@@QAEXABVAABBTreeBuildParams@23@AAUBuildStats@23@AAVNodeAllocator@23@QAI@Z 100501f0 f   GuAABBTreeBuild.obj
 0001:0004f410       ?_buildHierarchy@AABBTreeBuildNode@Gu@physx@@QAEXAAVAABBTreeBuildParams@23@AAUBuildStats@23@AAVNodeAllocator@23@QAI@Z 10050410 f   GuAABBTreeBuild.obj
 0001:0004f470       ??0NodeAllocator@Gu@physx@@QAE@XZ 10050470 f   GuAABBTreeBuild.obj
 0001:0004f4a0       ??1NodeAllocator@Gu@physx@@QAE@XZ 100504a0 f   GuAABBTreeBuild.obj
 0001:0004f4d0       ?release@NodeAllocator@Gu@physx@@QAEXXZ 100504d0 f   GuAABBTreeBuild.obj
 0001:0004f550       ?init@NodeAllocator@Gu@physx@@QAEXII@Z 10050550 f   GuAABBTreeBuild.obj
 0001:0004f670       ?getBiNode@NodeAllocator@Gu@physx@@QAEPAVAABBTreeBuildNode@23@XZ 10050670 f   GuAABBTreeBuild.obj
 0001:0004f780       ?initAABBTreeBuild@Gu@physx@@YA_NAAVAABBTreeBuildParams@12@AAVNodeAllocator@12@AAUBuildStats@12@AAPAI@Z 10050780 f   GuAABBTreeBuild.obj
 0001:0004f940       ?buildAABBTree@Gu@physx@@YA_NAAVAABBTreeBuildParams@12@AAVNodeAllocator@12@AAUBuildStats@12@AAPAI@Z 10050940 f   GuAABBTreeBuild.obj
 0001:0004f9c0       ??$copy@V?$ReflectionAllocator@USlab@NodeAllocator@Gu@physx@@@shdfnd@physx@@@?$Array@USlab@NodeAllocator@Gu@physx@@V?$ReflectionAllocator@USlab@NodeAllocator@Gu@physx@@@shdfnd@4@@shdfnd@physx@@IAEXABV012@@Z 100509c0 f i GuAABBTreeBuild.obj
 0001:0004fa30       ??0AABBTreeBuildNode@Gu@physx@@QAE@ABV012@@Z 10050a30 f i GuAABBTreeBuild.obj
 0001:0004fa70       ??0AABBTreeBuildNode@Gu@physx@@QAE@XZ 10050a70 f i GuAABBTreeBuild.obj
 0001:0004fa80       ??0AABBTreeBuildParams@Gu@physx@@QAE@IIPBVPxBounds3@2@@Z 10050a80 f i GuAABBTreeBuild.obj
 0001:0004faa0       ??0BuildStats@Gu@physx@@QAE@XZ 10050aa0 f i GuAABBTreeBuild.obj
 0001:0004fab0       ??0NodeAllocator@Gu@physx@@QAE@ABV012@@Z 10050ab0 f i GuAABBTreeBuild.obj
 0001:0004fae0       ??1AABBTreeBuildNode@Gu@physx@@QAE@XZ 10050ae0 f i GuAABBTreeBuild.obj
 0001:0004faf0       ??1AABBTreeBuildParams@Gu@physx@@QAE@XZ 10050af0 f i GuAABBTreeBuild.obj
 0001:0004fb30       ??4AABBTreeBuildNode@Gu@physx@@QAEAAV012@ABV012@@Z 10050b30 f i GuAABBTreeBuild.obj
 0001:0004fb70       ??4AABBTreeBuildParams@Gu@physx@@QAEAAV012@ABV012@@Z 10050b70 f i GuAABBTreeBuild.obj
 0001:0004fb80       ??4BuildStats@Gu@physx@@QAEAAU012@$$QAU012@@Z 10050b80 f i GuAABBTreeBuild.obj
 0001:0004fba0       ??4BuildStats@Gu@physx@@QAEAAU012@ABU012@@Z 10050ba0 f i GuAABBTreeBuild.obj
 0001:0004fbc0       ??4NodeAllocator@Gu@physx@@QAEAAV012@ABV012@@Z 10050bc0 f i GuAABBTreeBuild.obj
 0001:0004fc50       ??_EAABBTreeBuildNode@Gu@physx@@QAEPAXI@Z 10050c50 f i GuAABBTreeBuild.obj
 0001:0004fcc0       ??_FAABBTreeBuildParams@Gu@physx@@QAEXXZ 10050cc0 f i GuAABBTreeBuild.obj
 0001:0004fce0       ?allocate@?$Array@USlab@NodeAllocator@Gu@physx@@V?$ReflectionAllocator@USlab@NodeAllocator@Gu@physx@@@shdfnd@4@@shdfnd@physx@@IAEPAUSlab@NodeAllocator@Gu@3@I@Z 10050ce0 f i GuAABBTreeBuild.obj
 0001:0004fd50       ?getAABB@AABBTreeBuildNode@Gu@physx@@QBEABVPxBounds3@3@XZ 10050d50 f i GuAABBTreeBuild.obj
 0001:0004fd60       ?getCount@BuildStats@Gu@physx@@QBEIXZ 10050d60 f i GuAABBTreeBuild.obj
 0001:0004fd70       ?getNbPrimitives@AABBTreeBuildNode@Gu@physx@@QBEIXZ 10050d70 f i GuAABBTreeBuild.obj
 0001:0004fd80       ?getNbRuntimePrimitives@AABBTreeBuildNode@Gu@physx@@QBEIXZ 10050d80 f i GuAABBTreeBuild.obj
 0001:0004fd90       ?getNeg@AABBTreeBuildNode@Gu@physx@@QBEPBV123@XZ 10050d90 f i GuAABBTreeBuild.obj
 0001:0004fda0       ?getPos@AABBTreeBuildNode@Gu@physx@@QBEPBV123@XZ 10050da0 f i GuAABBTreeBuild.obj
 0001:0004fdb0       ?getPrimitives@AABBTreeBuildNode@Gu@physx@@QAEPAIPAI@Z 10050db0 f i GuAABBTreeBuild.obj
 0001:0004fdc0       ?getPrimitives@AABBTreeBuildNode@Gu@physx@@QBEPBIPBI@Z 10050dc0 f i GuAABBTreeBuild.obj
 0001:0004fdd0       ?growAndPushBack@?$Array@USlab@NodeAllocator@Gu@physx@@V?$ReflectionAllocator@USlab@NodeAllocator@Gu@physx@@@shdfnd@4@@shdfnd@physx@@IAEAAUSlab@NodeAllocator@Gu@3@ABU4563@@Z 10050dd0 f i GuAABBTreeBuild.obj
 0001:0004fe90       ?increaseCount@BuildStats@Gu@physx@@QAEXI@Z 10050e90 f i GuAABBTreeBuild.obj
 0001:0004fea0       ?isLeaf@AABBTreeBuildNode@Gu@physx@@QBE_NXZ 10050ea0 f i GuAABBTreeBuild.obj
 0001:0004feb0       ?recreate@?$Array@USlab@NodeAllocator@Gu@physx@@V?$ReflectionAllocator@USlab@NodeAllocator@Gu@physx@@@shdfnd@4@@shdfnd@physx@@IAEXI@Z 10050eb0 f i GuAABBTreeBuild.obj
 0001:0004ff30       ?reset@AABBTreeBuildParams@Gu@physx@@QAEXXZ 10050f30 f i GuAABBTreeBuild.obj
 0001:0004ff70       ?reset@BuildStats@Gu@physx@@QAEXXZ 10050f70 f i GuAABBTreeBuild.obj
 0001:0004ff80       ?resize@?$Array@USlab@NodeAllocator@Gu@physx@@V?$ReflectionAllocator@USlab@NodeAllocator@Gu@physx@@@shdfnd@4@@shdfnd@physx@@QAEXIABUSlab@NodeAllocator@Gu@3@@Z 10050f80 f i GuAABBTreeBuild.obj
 0001:0004ffe0       ?setCount@BuildStats@Gu@physx@@QAEXI@Z 10050fe0 f i GuAABBTreeBuild.obj
 0001:0004fff0       ?setNbRunTimePrimitives@AABBTreeBuildNode@Gu@physx@@QAEXI@Z 10050ff0 f i GuAABBTreeBuild.obj
 0001:00050000       ??0BVHStructure@Gu@physx@@QAE@PAVGuMeshFactory@2@@Z 10051000 f   GuBVHStructure.obj
 0001:00050070       ??0BVHStructure@Gu@physx@@QAE@PAVGuMeshFactory@2@AAUBVHStructureData@12@@Z 10051070 f   GuBVHStructure.obj
 0001:000500e0       ??1BVHStructure@Gu@physx@@UAE@XZ 100510e0 f   GuBVHStructure.obj
 0001:000500f0       ?load@BVHStructure@Gu@physx@@QAE_NAAVPxInputStream@3@@Z 100510f0 f   GuBVHStructure.obj
 0001:00050240       ?release@BVHStructure@Gu@physx@@UAEXXZ 10051240 f   GuBVHStructure.obj
 0001:00050260       ?raycast@BVHStructure@Gu@physx@@UBEIABVPxVec3@3@0MIPIAI@Z 10051260 f   GuBVHStructure.obj
 0001:000502e0       ?sweep@BVHStructure@Gu@physx@@UBEIABVPxBounds3@3@ABVPxVec3@3@MIPIAI@Z 100512e0 f   GuBVHStructure.obj
 0001:000503d0       ?overlap@BVHStructure@Gu@physx@@UBEIABVPxBounds3@3@IPIAI@Z 100513d0 f   GuBVHStructure.obj
 0001:000504b0       ?onRefCountZero@BVHStructure@Gu@physx@@UAEXXZ 100514b0 f   GuBVHStructure.obj
 0001:000505a0       ?createVolumes@BVHStructure@Gu@physx@@ABEXXZ 100515a0 f   GuBVHStructure.obj
 0001:00050600       ??1PxBVHStructure@physx@@MAE@XZ 10051600 f i GuBVHStructure.obj
 0001:00050610       ??R?$AABBTreeOverlap@UAABBAABBTest@Gu@physx@@UBVHTree@23@UBVHNode@23@IUBVHCallback@23@@Gu@physx@@QAE_NPBIPBVPxBounds3@2@ABUBVHTree@12@ABUAABBAABBTest@12@AAUBVHCallback@12@@Z 10051610 f i GuBVHStructure.obj
 0001:00050910       ??R?$AABBTreeRaycast@$00UBVHTree@Gu@physx@@UBVHNode@23@IUBVHCallback@23@@Gu@physx@@QAE_NPBIPBVPxBounds3@2@ABUBVHTree@12@ABVPxVec3@2@3AAM3AAUBVHCallback@12@@Z 10051910 f i GuBVHStructure.obj
 0001:00051000       ??R?$AABBTreeRaycast@$0A@UBVHTree@Gu@physx@@UBVHNode@23@IUBVHCallback@23@@Gu@physx@@QAE_NPBIPBVPxBounds3@2@ABUBVHTree@12@ABVPxVec3@2@3AAM3AAUBVHCallback@12@@Z 10052000 f i GuBVHStructure.obj
 0001:00051659       ??_EBVHStructure@Gu@physx@@W7AEPAXI@Z 10052659 f i GuBVHStructure.obj
 0001:00051670       ??_GBVHStructure@Gu@physx@@UAEPAXI@Z 10052670 f i GuBVHStructure.obj
 0001:00051670       ??_EBVHStructure@Gu@physx@@UAEPAXI@Z 10052670 f i GuBVHStructure.obj
 0001:000516c0       ??_GPxBVHStructure@physx@@MAEPAXI@Z 100526c0 f i GuBVHStructure.obj
 0001:000516c0       ??_EPxBVHStructure@physx@@MAEPAXI@Z 100526c0 f i GuBVHStructure.obj
 0001:000516f0       ?allocate@?$Array@PBUBVHNode@Gu@physx@@V?$InlineAllocator@$0EAA@V?$ReflectionAllocator@PBUBVHNode@Gu@physx@@@shdfnd@physx@@@shdfnd@3@@shdfnd@physx@@IAEPAPBUBVHNode@Gu@3@I@Z 100526f0 f i GuBVHStructure.obj
 0001:00051780       ?getBounds@BVHStructure@Gu@physx@@UBEPBVPxBounds3@3@XZ 10052780 f i GuBVHStructure.obj
 0001:00051790       ?getConcreteTypeName@PxBVHStructure@physx@@UBEPBDXZ 10052790 f i GuBVHStructure.obj
 0001:000517a0       ?getNbBounds@BVHStructure@Gu@physx@@UBEIXZ 100527a0 f i GuBVHStructure.obj
 0001:000517b0       ?isKindOf@PxBVHStructure@physx@@MBE_NPBD@Z 100527b0 f i GuBVHStructure.obj
 0001:00051830       ?recreate@?$Array@PBUBVHNode@Gu@physx@@V?$InlineAllocator@$0EAA@V?$ReflectionAllocator@PBUBVHNode@Gu@physx@@@shdfnd@physx@@@shdfnd@3@@shdfnd@physx@@IAEXI@Z 10052830 f i GuBVHStructure.obj
 0001:000518e0       ?resizeUninitialized@?$Array@PBUBVHNode@Gu@physx@@V?$InlineAllocator@$0EAA@V?$ReflectionAllocator@PBUBVHNode@Gu@physx@@@shdfnd@physx@@@shdfnd@3@@shdfnd@physx@@QAEXI@Z 100528e0 f i GuBVHStructure.obj
 0001:00051910       ?SweepEstimateAnyShapeHeightfield@Gu@physx@@YAMABUCCDShape@12@0ABVPxTransform@2@111MM@Z 10052910 f   GuCCDSweepConvexMesh.obj
 0001:000522a0       ?SweepEstimateAnyShapeMesh@Gu@physx@@YAMABUCCDShape@12@0ABVPxTransform@2@111MM@Z 100532a0 f   GuCCDSweepConvexMesh.obj
 0001:000525a0       ?SweepAnyShapeHeightfield@Gu@physx@@YAMABUCCDShape@12@0ABVPxTransform@2@111MAAVPxVec3@2@2MAAIM@Z 100535a0 f   GuCCDSweepConvexMesh.obj
 0001:00053940       ?SweepAnyShapeMesh@Gu@physx@@YAMABUCCDShape@12@0ABVPxTransform@2@111MAAVPxVec3@2@2MAAIM@Z 10054940 f   GuCCDSweepConvexMesh.obj
 0001:00055330       ?allocate@?$Array@IV?$InlineAllocator@$0BAA@V?$ReflectionAllocator@I@shdfnd@physx@@@shdfnd@physx@@@shdfnd@physx@@IAEPAII@Z 10056330 f i GuCCDSweepConvexMesh.obj
 0001:00055ec0       ?growAndPushBack@?$Array@IV?$InlineAllocator@$0BAA@V?$ReflectionAllocator@I@shdfnd@physx@@@shdfnd@physx@@@shdfnd@physx@@IAEAAIABI@Z 10056ec0 f i GuCCDSweepConvexMesh.obj
 0001:000565e0       ?recreate@?$Array@IV?$InlineAllocator@$0BAA@V?$ReflectionAllocator@I@shdfnd@physx@@@shdfnd@physx@@@shdfnd@physx@@IAEXI@Z 100575e0 f i GuCCDSweepConvexMesh.obj
 0001:00056690       ?resize@?$Array@IV?$InlineAllocator@$0BAA@V?$ReflectionAllocator@I@shdfnd@physx@@@shdfnd@physx@@@shdfnd@physx@@QAEXIABI@Z 10057690 f i GuCCDSweepConvexMesh.obj
 0001:00056750       ?resize@?$Array@IV?$ReflectionAllocator@I@shdfnd@physx@@@shdfnd@physx@@QAEXIABI@Z 10057750 f i GuCCDSweepConvexMesh.obj
 0001:00056810       ?transformBoxOrthonormal@physx@@YA?AVBox@Gu@1@ABV231@ABVPxTransform@1@@Z 10057810 f i GuCCDSweepConvexMesh.obj
 0001:00056ca0       ?SweepShapeShape@Gu@physx@@YAMABUCCDShape@12@0ABVPxTransform@2@111MAAVPxVec3@2@2MAAIM@Z 10057ca0 f   GuCCDSweepPrimitives.obj
 0001:00056d10       ?UnimplementedSweep@Gu@physx@@YAMABUCCDShape@12@0ABVPxTransform@2@111MAAVPxVec3@2@2MAAIM@Z 10057d10 f   GuCCDSweepPrimitives.obj
 0001:00056d20       ?UnimplementedTriangleSweep@Gu@physx@@YAMABVGeometryUnion@12@0ABVPxTransform@2@111MAAVPxVec3@2@2ABVFastVertex2ShapeScaling@Cm@2@AAVTriangleV@12@M@Z 10057d20 f   GuCCDSweepPrimitives.obj
 0001:00056d30       ?SweepShapeTriangle@Gu@physx@@YAMABVGeometryUnion@12@0ABVPxTransform@2@111MAAVPxVec3@2@2ABVFastVertex2ShapeScaling@Cm@2@AAVTriangleV@12@M@Z 10057d30 f   GuCCDSweepPrimitives.obj
 0001:00056d90       ??$SweepGeomGeom@VCapsuleV@Gu@physx@@V123@@Gu@physx@@YAMABUCCDShape@01@0ABVPxTransform@1@111MAAVPxVec3@1@2MAAIM@Z 10057d90 f i GuCCDSweepPrimitives.obj
 0001:00056ee0       ??$SweepGeomGeom@VCapsuleV@Gu@physx@@VBoxV@23@@Gu@physx@@YAMABUCCDShape@01@0ABVPxTransform@1@111MAAVPxVec3@1@2MAAIM@Z 10057ee0 f i GuCCDSweepPrimitives.obj
 0001:00057040       ??$SweepGeomGeom@VCapsuleV@Gu@physx@@VConvexHullV@23@@Gu@physx@@YAMABUCCDShape@01@0ABVPxTransform@1@111MAAVPxVec3@1@2MAAIM@Z 10058040 f i GuCCDSweepPrimitives.obj
 0001:000575e0       ??$SweepGeomGeom@VBoxV@Gu@physx@@V123@@Gu@physx@@YAMABUCCDShape@01@0ABVPxTransform@1@111MAAVPxVec3@1@2MAAIM@Z 100585e0 f i GuCCDSweepPrimitives.obj
 0001:00057760       ??$SweepGeomGeom@VBoxV@Gu@physx@@VConvexHullV@23@@Gu@physx@@YAMABUCCDShape@01@0ABVPxTransform@1@111MAAVPxVec3@1@2MAAIM@Z 10058760 f i GuCCDSweepPrimitives.obj
 0001:00057cf0       ??$SweepGeomGeom@VConvexHullV@Gu@physx@@V123@@Gu@physx@@YAMABUCCDShape@01@0ABVPxTransform@1@111MAAVPxVec3@1@2MAAIM@Z 10058cf0 f i GuCCDSweepPrimitives.obj
 0001:00058680       ??$SweepGeomTriangles@VCapsuleV@Gu@physx@@@Gu@physx@@YAMABVGeometryUnion@01@0ABVPxTransform@1@111MAAVPxVec3@1@2ABVFastVertex2ShapeScaling@Cm@1@AAVTriangleV@01@M@Z 10059680 f i GuCCDSweepPrimitives.obj
 0001:00058740       ??$SweepGeomTriangles@VBoxV@Gu@physx@@@Gu@physx@@YAMABVGeometryUnion@01@0ABVPxTransform@1@111MAAVPxVec3@1@2ABVFastVertex2ShapeScaling@Cm@1@AAVTriangleV@01@M@Z 10059740 f i GuCCDSweepPrimitives.obj
 0001:00058800       ??$SweepGeomTriangles@VConvexHullV@Gu@physx@@@Gu@physx@@YAMABVGeometryUnion@01@0ABVPxTransform@1@111MAAVPxVec3@1@2ABVFastVertex2ShapeScaling@Cm@1@AAVTriangleV@01@M@Z 10059800 f i GuCCDSweepPrimitives.obj
 0001:00058cf0       ?supportPoint@?$RelativeConvex@VCapsuleV@Gu@physx@@@Gu@physx@@UBE?AT__m128@@H@Z 10059cf0 f i GuCCDSweepPrimitives.obj
 0001:00058d40       ?support@?$RelativeConvex@VCapsuleV@Gu@physx@@@Gu@physx@@UBE?AT__m128@@ABT4@@Z 10059d40 f i GuCCDSweepPrimitives.obj
 0001:00058df0       ?support@?$RelativeConvex@VCapsuleV@Gu@physx@@@Gu@physx@@UBE?AT__m128@@ABT4@AAH@Z 10059df0 f i GuCCDSweepPrimitives.obj
 0001:00058ec0       ?getCenter@?$RelativeConvex@VCapsuleV@Gu@physx@@@Gu@physx@@UBE?AT__m128@@XZ 10059ec0 f i GuCCDSweepPrimitives.obj
 0001:00058f00       ?getSweepMargin@?$RelativeConvex@VCapsuleV@Gu@physx@@@Gu@physx@@UBE?AT__m128@@XZ 10059f00 f i GuCCDSweepPrimitives.obj
 0001:00058f10       ??_E?$RelativeConvex@VCapsuleV@Gu@physx@@@Gu@physx@@UAEPAXI@Z 10059f10 f i GuCCDSweepPrimitives.obj
 0001:00058f10       ??_G?$RelativeConvex@VCapsuleV@Gu@physx@@@Gu@physx@@UAEPAXI@Z 10059f10 f i GuCCDSweepPrimitives.obj
 0001:00058f40       ?supportPoint@?$RelativeConvex@VTriangleV@Gu@physx@@@Gu@physx@@UBE?AT__m128@@H@Z 10059f40 f i GuCCDSweepPrimitives.obj
 0001:00058f90       ?support@?$RelativeConvex@VTriangleV@Gu@physx@@@Gu@physx@@UBE?AT__m128@@ABT4@@Z 10059f90 f i GuCCDSweepPrimitives.obj
 0001:00059080       ?support@?$RelativeConvex@VTriangleV@Gu@physx@@@Gu@physx@@UBE?AT__m128@@ABT4@AAH@Z 1005a080 f i GuCCDSweepPrimitives.obj
 0001:000591c0       ?getCenter@?$RelativeConvex@VTriangleV@Gu@physx@@@Gu@physx@@UBE?AT__m128@@XZ 1005a1c0 f i GuCCDSweepPrimitives.obj
 0001:00059200       ?getSweepMargin@?$RelativeConvex@VTriangleV@Gu@physx@@@Gu@physx@@UBE?AT__m128@@XZ 1005a200 f i GuCCDSweepPrimitives.obj
 0001:00059220       ??_G?$RelativeConvex@VTriangleV@Gu@physx@@@Gu@physx@@UAEPAXI@Z 1005a220 f i GuCCDSweepPrimitives.obj
 0001:00059220       ??_E?$RelativeConvex@VTriangleV@Gu@physx@@@Gu@physx@@UAEPAXI@Z 1005a220 f i GuCCDSweepPrimitives.obj
 0001:0005be30       ??$gjkPenetration@U?$RelativeConvex@VCapsuleV@Gu@physx@@@Gu@physx@@U?$LocalConvex@VBoxV@Gu@physx@@@23@@Gu@physx@@YA?AW4GjkStatus@01@ABU?$RelativeConvex@VCapsuleV@Gu@physx@@@01@ABU?$LocalConvex@VBoxV@Gu@physx@@@01@ABT__m128@@2_NPIAE4AAEAAUGjkOutput@01@@Z 1005ce30 f i GuCCDSweepPrimitives.obj
 0001:0005d6f0       ??$gjkPenetration@U?$RelativeConvex@VCapsuleV@Gu@physx@@@Gu@physx@@U?$LocalConvex@VCapsuleV@Gu@physx@@@23@@Gu@physx@@YA?AW4GjkStatus@01@ABU?$RelativeConvex@VCapsuleV@Gu@physx@@@01@ABU?$LocalConvex@VCapsuleV@Gu@physx@@@01@ABT__m128@@2_NPIAE4AAEAAUGjkOutput@01@@Z 1005e6f0 f i GuCCDSweepPrimitives.obj
 0001:0005f000       ??$gjkPenetration@U?$RelativeConvex@VCapsuleV@Gu@physx@@@Gu@physx@@U?$LocalConvex@VConvexHullV@Gu@physx@@@23@@Gu@physx@@YA?AW4GjkStatus@01@ABU?$RelativeConvex@VCapsuleV@Gu@physx@@@01@ABU?$LocalConvex@VConvexHullV@Gu@physx@@@01@ABT__m128@@2_NPIAE4AAEAAUGjkOutput@01@@Z 10060000 f i GuCCDSweepPrimitives.obj
 0001:00060a00       ??$gjkPenetration@U?$RelativeConvex@VTriangleV@Gu@physx@@@Gu@physx@@U?$LocalConvex@VBoxV@Gu@physx@@@23@@Gu@physx@@YA?AW4GjkStatus@01@ABU?$RelativeConvex@VTriangleV@Gu@physx@@@01@ABU?$LocalConvex@VBoxV@Gu@physx@@@01@ABT__m128@@2_NPIAE4AAEAAUGjkOutput@01@@Z 10061a00 f i GuCCDSweepPrimitives.obj
 0001:00062390       ??$gjkPenetration@U?$RelativeConvex@VTriangleV@Gu@physx@@@Gu@physx@@U?$LocalConvex@VCapsuleV@Gu@physx@@@23@@Gu@physx@@YA?AW4GjkStatus@01@ABU?$RelativeConvex@VTriangleV@Gu@physx@@@01@ABU?$LocalConvex@VCapsuleV@Gu@physx@@@01@ABT__m128@@2_NPIAE4AAEAAUGjkOutput@01@@Z 10063390 f i GuCCDSweepPrimitives.obj
 0001:00063d60       ??$gjkPenetration@U?$RelativeConvex@VTriangleV@Gu@physx@@@Gu@physx@@U?$LocalConvex@VConvexHullV@Gu@physx@@@23@@Gu@physx@@YA?AW4GjkStatus@01@ABU?$RelativeConvex@VTriangleV@Gu@physx@@@01@ABU?$LocalConvex@VConvexHullV@Gu@physx@@@01@ABT__m128@@2_NPIAE4AAEAAUGjkOutput@01@@Z 10064d60 f i GuCCDSweepPrimitives.obj
 0001:000657d0       ??$gjkRaycast@U?$RelativeConvex@VCapsuleV@Gu@physx@@@Gu@physx@@U?$LocalConvex@VBoxV@Gu@physx@@@23@@Gu@physx@@YA_NABU?$RelativeConvex@VCapsuleV@Gu@physx@@@01@ABU?$LocalConvex@VBoxV@Gu@physx@@@01@ABT__m128@@222AAT4@33M@Z 100667d0 f i GuCCDSweepPrimitives.obj
 0001:000665f0       ??$gjkRaycast@U?$RelativeConvex@VCapsuleV@Gu@physx@@@Gu@physx@@U?$LocalConvex@VCapsuleV@Gu@physx@@@23@@Gu@physx@@YA_NABU?$RelativeConvex@VCapsuleV@Gu@physx@@@01@ABU?$LocalConvex@VCapsuleV@Gu@physx@@@01@ABT__m128@@222AAT4@33M@Z 100675f0 f i GuCCDSweepPrimitives.obj
 0001:00067490       ??$gjkRaycast@U?$RelativeConvex@VCapsuleV@Gu@physx@@@Gu@physx@@U?$LocalConvex@VConvexHullV@Gu@physx@@@23@@Gu@physx@@YA_NABU?$RelativeConvex@VCapsuleV@Gu@physx@@@01@ABU?$LocalConvex@VConvexHullV@Gu@physx@@@01@ABT__m128@@222AAT4@33M@Z 10068490 f i GuCCDSweepPrimitives.obj
 0001:00068390       ??$gjkRaycast@U?$RelativeConvex@VTriangleV@Gu@physx@@@Gu@physx@@U?$LocalConvex@VBoxV@Gu@physx@@@23@@Gu@physx@@YA_NABU?$RelativeConvex@VTriangleV@Gu@physx@@@01@ABU?$LocalConvex@VBoxV@Gu@physx@@@01@ABT__m128@@222AAT4@33M@Z 10069390 f i GuCCDSweepPrimitives.obj
 0001:000691c0       ??$gjkRaycast@U?$RelativeConvex@VTriangleV@Gu@physx@@@Gu@physx@@U?$LocalConvex@VCapsuleV@Gu@physx@@@23@@Gu@physx@@YA_NABU?$RelativeConvex@VTriangleV@Gu@physx@@@01@ABU?$LocalConvex@VCapsuleV@Gu@physx@@@01@ABT__m128@@222AAT4@33M@Z 1006a1c0 f i GuCCDSweepPrimitives.obj
 0001:0006a0a0       ??$gjkRaycast@U?$RelativeConvex@VTriangleV@Gu@physx@@@Gu@physx@@U?$LocalConvex@VConvexHullV@Gu@physx@@@23@@Gu@physx@@YA_NABU?$RelativeConvex@VTriangleV@Gu@physx@@@01@ABU?$LocalConvex@VConvexHullV@Gu@physx@@@01@ABT__m128@@222AAT4@33M@Z 1006b0a0 f i GuCCDSweepPrimitives.obj
 0001:0006afd0       ??$gjkRaycastPenetration@U?$RelativeConvex@VCapsuleV@Gu@physx@@@Gu@physx@@U?$LocalConvex@VBoxV@Gu@physx@@@23@@Gu@physx@@YA_NABU?$RelativeConvex@VCapsuleV@Gu@physx@@@01@ABU?$LocalConvex@VBoxV@Gu@physx@@@01@ABT__m128@@222AAT4@33M_N@Z 1006bfd0 f i GuCCDSweepPrimitives.obj
 0001:0006b1e0       ??$gjkRaycastPenetration@U?$RelativeConvex@VCapsuleV@Gu@physx@@@Gu@physx@@U?$LocalConvex@VCapsuleV@Gu@physx@@@23@@Gu@physx@@YA_NABU?$RelativeConvex@VCapsuleV@Gu@physx@@@01@ABU?$LocalConvex@VCapsuleV@Gu@physx@@@01@ABT__m128@@222AAT4@33M_N@Z 1006c1e0 f i GuCCDSweepPrimitives.obj
 0001:0006b3f0       ??$gjkRaycastPenetration@U?$RelativeConvex@VCapsuleV@Gu@physx@@@Gu@physx@@U?$LocalConvex@VConvexHullV@Gu@physx@@@23@@Gu@physx@@YA_NABU?$RelativeConvex@VCapsuleV@Gu@physx@@@01@ABU?$LocalConvex@VConvexHullV@Gu@physx@@@01@ABT__m128@@222AAT4@33M_N@Z 1006c3f0 f i GuCCDSweepPrimitives.obj
 0001:0006b600       ??$gjkRaycastPenetration@U?$RelativeConvex@VTriangleV@Gu@physx@@@Gu@physx@@U?$LocalConvex@VBoxV@Gu@physx@@@23@@Gu@physx@@YA_NABU?$RelativeConvex@VTriangleV@Gu@physx@@@01@ABU?$LocalConvex@VBoxV@Gu@physx@@@01@ABT__m128@@222AAT4@33M_N@Z 1006c600 f i GuCCDSweepPrimitives.obj
 0001:0006b810       ??$gjkRaycastPenetration@U?$RelativeConvex@VTriangleV@Gu@physx@@@Gu@physx@@U?$LocalConvex@VCapsuleV@Gu@physx@@@23@@Gu@physx@@YA_NABU?$RelativeConvex@VTriangleV@Gu@physx@@@01@ABU?$LocalConvex@VCapsuleV@Gu@physx@@@01@ABT__m128@@222AAT4@33M_N@Z 1006c810 f i GuCCDSweepPrimitives.obj
 0001:0006ba20       ??$gjkRaycastPenetration@U?$RelativeConvex@VTriangleV@Gu@physx@@@Gu@physx@@U?$LocalConvex@VConvexHullV@Gu@physx@@@23@@Gu@physx@@YA_NABU?$RelativeConvex@VTriangleV@Gu@physx@@@01@ABU?$LocalConvex@VConvexHullV@Gu@physx@@@01@ABT__m128@@222AAT4@33M_N@Z 1006ca20 f i GuCCDSweepPrimitives.obj
 0001:0006bc30       ??0?$RelativeConvex@VCapsuleV@Gu@physx@@@Gu@physx@@QAE@ABVCapsuleV@12@ABVPsMatTransformV@aos@shdfnd@2@@Z 1006cc30 f i GuCCDSweepPrimitives.obj
 0001:0006bcb0       ??0?$RelativeConvex@VTriangleV@Gu@physx@@@Gu@physx@@QAE@ABVTriangleV@12@ABVPsMatTransformV@aos@shdfnd@2@@Z 1006ccb0 f i GuCCDSweepPrimitives.obj
 0001:0006bd30       ?barycentricCoordinates@Gu@physx@@YAXABT__m128@@00AAT3@@Z 1006cd30 f   GuBarycentricCoordinates.obj
 0001:0006bdb0       ?barycentricCoordinates@Gu@physx@@YAXABT__m128@@000AAT3@1@Z 1006cdb0 f   GuBarycentricCoordinates.obj
 0001:0006bef0       ?barycentricCoordinates@Gu@physx@@YAXABT__m128@@00AAT3@1@Z 1006cef0 f   GuBarycentricCoordinates.obj
 0001:0006bfe0       ?addAxis@SeparatingAxes@Gu@physx@@QAE_NABVPxVec3@3@@Z 1006cfe0 f   GuSeparatingAxes.obj
 0001:0006c080       ?contactBoxBox@Gu@physx@@YA_NABVGeometryUnion@12@0ABVPxTransform@2@1ABUNarrowPhaseParams@12@AAUCache@12@AAVContactBuffer@12@PAVRenderOutput@Cm@2@@Z 1006d080 f   GuContactBoxBox.obj
 0001:0006c3b0       ??0VertexInfo@@QAE@XZ      1006d3b0 f i GuContactBoxBox.obj
 0001:0006f220       ?contactCapsuleBox@Gu@physx@@YA_NABVGeometryUnion@12@0ABVPxTransform@2@1ABUNarrowPhaseParams@12@AAUCache@12@AAVContactBuffer@12@PAVRenderOutput@Cm@2@@Z 10070220 f   GuContactCapsuleBox.obj
 0001:00070c30       ?contactCapsuleCapsule@Gu@physx@@YA_NABVGeometryUnion@12@0ABVPxTransform@2@1ABUNarrowPhaseParams@12@AAUCache@12@AAVContactBuffer@12@PAVRenderOutput@Cm@2@@Z 10071c30 f   GuContactCapsuleCapsule.obj
 0001:00071760       ??0Segment@Gu@physx@@QAE@XZ 10072760 f i GuContactCapsuleCapsule.obj
 0001:00071770       ??1Segment@Gu@physx@@QAE@XZ 10072770 f i GuContactCapsuleCapsule.obj
 0001:00071780       ?contactCapsuleConvex@Gu@physx@@YA_NABVGeometryUnion@12@0ABVPxTransform@2@1ABUNarrowPhaseParams@12@AAUCache@12@AAVContactBuffer@12@PAVRenderOutput@Cm@2@@Z 10072780 f   GuContactCapsuleConvex.obj
 0001:00072930       ??0ConvexEdge@Gu@physx@@QAE@XZ 10073930 f i GuContactCapsuleConvex.obj
 0001:00074a00       ?contactCapsuleMesh@Gu@physx@@YA_NABVGeometryUnion@12@0ABVPxTransform@2@1ABUNarrowPhaseParams@12@AAUCache@12@AAVContactBuffer@12@PAVRenderOutput@Cm@2@@Z 10075a00 f   GuContactCapsuleMesh.obj
 0001:00074fe0       ?contactCapsuleHeightfield@Gu@physx@@YA_NABVGeometryUnion@12@0ABVPxTransform@2@1ABUNarrowPhaseParams@12@AAUCache@12@AAVContactBuffer@12@PAVRenderOutput@Cm@2@@Z 10075fe0 f   GuContactCapsuleMesh.obj
 0001:00077630       ?transformFast@PxBounds3@physx@@SA?AV12@ABVPxTransform@2@ABV12@@Z 10078630 f i GuContactCapsuleMesh.obj
 0001:000779f0       ?transformQueryBounds@FastVertex2ShapeScaling@Cm@physx@@QBEXAAVPxVec3@3@0AAVPxMat33@3@@Z 100789f0 f i GuContactCapsuleMesh.obj
 0001:00077c90       ?contactBoxConvex@Gu@physx@@YA_NABVGeometryUnion@12@0ABVPxTransform@2@1ABUNarrowPhaseParams@12@AAUCache@12@AAVContactBuffer@12@PAVRenderOutput@Cm@2@@Z 10078c90 f   GuContactConvexConvex.obj
 0001:00077dc0       ?contactConvexConvex@Gu@physx@@YA_NABVGeometryUnion@12@0ABVPxTransform@2@1ABUNarrowPhaseParams@12@AAUCache@12@AAVContactBuffer@12@PAVRenderOutput@Cm@2@@Z 10078dc0 f   GuContactConvexConvex.obj
 0001:0007c1a0       ?contactBoxMesh@Gu@physx@@YA_NABVGeometryUnion@12@0ABVPxTransform@2@1ABUNarrowPhaseParams@12@AAUCache@12@AAVContactBuffer@12@PAVRenderOutput@Cm@2@@Z 1007d1a0 f   GuContactConvexMesh.obj
 0001:0007c300       ?contactConvexMesh@Gu@physx@@YA_NABVGeometryUnion@12@0ABVPxTransform@2@1ABUNarrowPhaseParams@12@AAUCache@12@AAVContactBuffer@12@PAVRenderOutput@Cm@2@@Z 1007d300 f   GuContactConvexMesh.obj
 0001:0007c3f0       ?contactBoxHeightfield@Gu@physx@@YA_NABVGeometryUnion@12@0ABVPxTransform@2@1ABUNarrowPhaseParams@12@AAUCache@12@AAVContactBuffer@12@PAVRenderOutput@Cm@2@@Z 1007d3f0 f   GuContactConvexMesh.obj
 0001:0007c4f0       ?contactConvexHeightfield@Gu@physx@@YA_NABVGeometryUnion@12@0ABVPxTransform@2@1ABUNarrowPhaseParams@12@AAUCache@12@AAVContactBuffer@12@PAVRenderOutput@Cm@2@@Z 1007d4f0 f   GuContactConvexMesh.obj
 0001:0007c5d0       ??0CachedEdge@Gu@physx@@QAE@XZ 1007d5d0 f i GuContactConvexMesh.obj
 0001:0007c5e0       ??0CachedVertex@Gu@physx@@QAE@XZ 1007d5e0 f i GuContactConvexMesh.obj
 0001:0007cb70       ??_GConvexMeshContactGenerationCallback@@UAEPAXI@Z 1007db70 f i GuContactConvexMesh.obj
 0001:0007cb70       ??_EConvexMeshContactGenerationCallback@@UAEPAXI@Z 1007db70 f i GuContactConvexMesh.obj
 0001:0007cbd0       ?addData@?$CacheMap@UCachedEdge@Gu@physx@@$0IA@@Gu@physx@@QAE_NABUCachedEdge@23@@Z 1007dbd0 f i GuContactConvexMesh.obj
 0001:0007ccb0       ?addData@?$CacheMap@UCachedVertex@Gu@physx@@$0IA@@Gu@physx@@QAE_NABUCachedVertex@23@@Z 1007dcb0 f i GuContactConvexMesh.obj
 0001:0007cd50       ?allocate@?$Array@IV?$InlineAllocator@$0BBAA@V?$ReflectionAllocator@I@shdfnd@physx@@@shdfnd@physx@@@shdfnd@physx@@IAEPAII@Z 1007dd50 f i GuContactConvexMesh.obj
 0001:0007e580       ?contains@?$CacheMap@UCachedEdge@Gu@physx@@$0IA@@Gu@physx@@QBE_NABUCachedEdge@23@@Z 1007f580 f i GuContactConvexMesh.obj
 0001:0007e600       ?contains@?$CacheMap@UCachedVertex@Gu@physx@@$0IA@@Gu@physx@@QBE_NABUCachedVertex@23@@Z 1007f600 f i GuContactConvexMesh.obj
 0001:000809b0       ?processHit@ConvexMeshContactGenerationCallback@@UAE_NABUPxRaycastHit@physx@@ABVPxVec3@3@11AAMPBI@Z 100819b0 f i GuContactConvexMesh.obj
 0001:000810e0       ?recreate@?$Array@IV?$InlineAllocator@$0BBAA@V?$ReflectionAllocator@I@shdfnd@physx@@@shdfnd@physx@@@shdfnd@physx@@IAEXI@Z 100820e0 f i GuContactConvexMesh.obj
 0001:00082050       ?contactPlaneBox@Gu@physx@@YA_NABVGeometryUnion@12@0ABVPxTransform@2@1ABUNarrowPhaseParams@12@AAUCache@12@AAVContactBuffer@12@PAVRenderOutput@Cm@2@@Z 10083050 f   GuContactPlaneBox.obj
 0001:00082e40       ?contactPlaneCapsule@Gu@physx@@YA_NABVGeometryUnion@12@0ABVPxTransform@2@1ABUNarrowPhaseParams@12@AAUCache@12@AAVContactBuffer@12@PAVRenderOutput@Cm@2@@Z 10083e40 f   GuContactPlaneCapsule.obj
 0001:00083550       ?contactPlaneConvex@Gu@physx@@YA_NABVGeometryUnion@12@0ABVPxTransform@2@1ABUNarrowPhaseParams@12@AAUCache@12@AAVContactBuffer@12@PAVRenderOutput@Cm@2@@Z 10084550 f   GuContactPlaneConvex.obj
 0001:00083ff0       ?findRotationMatrixFromZ@Gu@physx@@YA?AVPxMat33@2@ABVPxVec3@2@@Z 10084ff0 f   GuContactPolygonPolygon.obj
 0001:00084230       ?contactPolygonPolygonExt@Gu@physx@@YA_NIPBVPxVec3@2@PBEABVMatrix34@Cm@2@ABVPxPlane@2@ABVPxMat33@2@I01234ABV32@22IIAAVContactBuffer@12@_N5M@Z 10085230 f   GuContactPolygonPolygon.obj
 0001:000853c0       ??4ContactPoint@Gu@physx@@QAEAAU012@ABU012@@Z 100863c0 f i GuContactPolygonPolygon.obj
 0001:00086220       ?contactSphereBox@Gu@physx@@YA_NABVGeometryUnion@12@0ABVPxTransform@2@1ABUNarrowPhaseParams@12@AAUCache@12@AAVContactBuffer@12@PAVRenderOutput@Cm@2@@Z 10087220 f   GuContactSphereBox.obj
 0001:00086820       ?contactSphereCapsule@Gu@physx@@YA_NABVGeometryUnion@12@0ABVPxTransform@2@1ABUNarrowPhaseParams@12@AAUCache@12@AAVContactBuffer@12@PAVRenderOutput@Cm@2@@Z 10087820 f   GuContactSphereCapsule.obj
 0001:00086b90       ?contactSphereMesh@Gu@physx@@YA_NABVGeometryUnion@12@0ABVPxTransform@2@1ABUNarrowPhaseParams@12@AAUCache@12@AAVContactBuffer@12@PAVRenderOutput@Cm@2@@Z 10087b90 f   GuContactSphereMesh.obj
 0001:00087040       ?contactSphereHeightfield@Gu@physx@@YA_NABVGeometryUnion@12@0ABVPxTransform@2@1ABUNarrowPhaseParams@12@AAUCache@12@AAVContactBuffer@12@PAVRenderOutput@Cm@2@@Z 10088040 f   GuContactSphereMesh.obj
 0001:00087660       ??0PxMat44@physx@@QAE@W4PxIDENTITY@1@@Z 10088660 f i GuContactSphereMesh.obj
 0001:000876e0       ??0TriangleData@@QAE@XZ    100886e0 f i GuContactSphereMesh.obj
 0001:00089200       ?contactSpherePlane@Gu@physx@@YA_NABVGeometryUnion@12@0ABVPxTransform@2@1ABUNarrowPhaseParams@12@AAUCache@12@AAVContactBuffer@12@PAVRenderOutput@Cm@2@@Z 1008a200 f   GuContactSpherePlane.obj
 0001:000893a0       ?contactSphereSphere@Gu@physx@@YA_NABVGeometryUnion@12@0ABVPxTransform@2@1ABUNarrowPhaseParams@12@AAUCache@12@AAVContactBuffer@12@PAVRenderOutput@Cm@2@@Z 1008a3a0 f   GuContactSphereSphere.obj
 0001:000894e0       ?selectNormal@Gu@physx@@YA_NEMM@Z 1008a4e0 f   GuFeatureCode.obj
 0001:000895e0       ??0BigConvexData@physx@@QAE@XZ 1008a5e0 f   GuBigConvexData.obj
 0001:00089600       ??1BigConvexData@physx@@QAE@XZ 1008a600 f   GuBigConvexData.obj
 0001:00089660       ?Load@BigConvexData@physx@@QAE_NAAVPxInputStream@2@@Z 1008a660 f   GuBigConvexData.obj
 0001:00089730       ?ComputeOffset@BigConvexData@physx@@QBEIABVPxVec3@2@@Z 1008a730 f   GuBigConvexData.obj
 0001:000897c0       ?ComputeNearestOffset@BigConvexData@physx@@QBEIABVPxVec3@2@@Z 1008a7c0 f   GuBigConvexData.obj
 0001:00089860       ?exportExtraData@BigConvexData@physx@@QAEXAAVPxSerializationContext@2@@Z 1008a860 f   GuBigConvexData.obj
 0001:000898c0       ?importExtraData@BigConvexData@physx@@QAEXAAVPxDeserializationContext@2@@Z 1008a8c0 f   GuBigConvexData.obj
 0001:00089920       ?CreateOffsets@BigConvexData@physx@@IAEXXZ 1008a920 f   GuBigConvexData.obj
 0001:00089950       ?VLoad@BigConvexData@physx@@IAE_NAAVPxInputStream@2@@Z 1008a950 f   GuBigConvexData.obj
 0001:00089a90       ?CubemapLookup@physx@@YA?AW4CubeIndex@1@ABVPxVec3@1@AAM1@Z 1008aa90 f i GuBigConvexData.obj
 0001:00089b50       ?getScaledConvex@Gu@physx@@YAXAAPAVPxVec3@2@AAPAEPAV32@PAE_NPBV32@PBEIABVFastVertex2ShapeScaling@Cm@2@@Z 1008ab50 f   GuConvexHelper.obj
 0001:00089c50       ?getConvexData@Gu@physx@@YA_NABVGeometryUnion@12@AAVFastVertex2ShapeScaling@Cm@2@AAVPxBounds3@2@AAUPolygonalData@12@@Z 1008ac50 f   GuConvexHelper.obj
 0001:00089eb0       ?findUniqueConvexEdges@Gu@physx@@YAIIPIAUConvexEdge@12@IPIBUHullPolygonData@12@PIBE@Z 1008aeb0 f   GuConvexHelper.obj
 0001:00089fe0       ?exportExtraData@ConvexMesh@Gu@physx@@UAEXAAVPxSerializationContext@3@@Z 1008afe0 f   GuConvexMesh.obj
 0001:0008a080       ?importExtraData@ConvexMesh@Gu@physx@@QAEXAAVPxDeserializationContext@3@@Z 1008b080 f   GuConvexMesh.obj
 0001:0008a120       ?onRefCountZero@ConvexMesh@Gu@physx@@UAEXXZ 1008b120 f   GuConvexMesh.obj
 0001:0008a1f0       ?createObject@ConvexMesh@Gu@physx@@SAPAV123@AAPAEAAVPxDeserializationContext@3@@Z 1008b1f0 f   GuConvexMesh.obj
 0001:0008a240       ??0ConvexMesh@Gu@physx@@QAE@XZ 1008b240 f   GuConvexMesh.obj
 0001:0008a310       ??0ConvexMesh@Gu@physx@@QAE@AAVGuMeshFactory@2@AAUConvexHullData@12@@Z 1008b310 f   GuConvexMesh.obj
 0001:0008a400       ?load@ConvexMesh@Gu@physx@@QAE_NAAVPxInputStream@3@@Z 1008b400 f   GuConvexMesh.obj
 0001:0008a620       ?release@ConvexMesh@Gu@physx@@UAEXXZ 1008b620 f   GuConvexMesh.obj
 0001:0008a640       ?getPolygonData@ConvexMesh@Gu@physx@@UBE_NIAAUPxHullPolygon@3@@Z 1008b640 f   GuConvexMesh.obj
 0001:0008a690       ?isGpuCompatible@ConvexMesh@Gu@physx@@UBE_NXZ 1008b690 f   GuConvexMesh.obj
 0001:0008a6b0       ?getReferenceCount@ConvexMesh@Gu@physx@@UBEIXZ 1008b6b0 f   GuConvexMesh.obj
 0001:0008a6c0       ?acquireReference@ConvexMesh@Gu@physx@@UAEXXZ 1008b6c0 f   GuConvexMesh.obj
 0001:0008a6d0       ?getMassInformation@ConvexMesh@Gu@physx@@UBEXAAMAAVPxMat33@3@AAVPxVec3@3@@Z 1008b6d0 f   GuConvexMesh.obj
 0001:0008a730       ?getLocalBounds@ConvexMesh@Gu@physx@@UBE?AVPxBounds3@3@XZ 1008b730 f   GuConvexMesh.obj
 0001:0008a790       ??1ConvexMesh@Gu@physx@@UAE@XZ 1008b790 f   GuConvexMesh.obj
 0001:0008a800       ?computeBufferSize@Gu@physx@@YAIABUConvexHullData@12@I@Z 1008b800 f i GuConvexMesh.obj
 0001:0008abf0       ?computeHullOBB@Gu@physx@@YAXAAVBox@12@ABVPxBounds3@2@MABVMatrix34@Cm@2@2ABVFastVertex2ShapeScaling@62@_N@Z 1008bbf0 f   GuConvexUtilsInternal.obj
 0001:0008b030       ?computeVertexSpaceOBB@Gu@physx@@YAXAAVBox@12@ABV312@ABVPxTransform@2@ABVPxMeshScale@2@@Z 1008c030 f   GuConvexUtilsInternal.obj
 0001:0008b3e0       ?computeOBBAroundConvex@Gu@physx@@YAXAAVBox@12@ABVPxConvexMeshGeometry@2@PBVPxConvexMesh@2@ABVPxTransform@2@@Z 1008c3e0 f   GuConvexUtilsInternal.obj
 0001:0008be60       ??Dphysx@@YA?AVMatrix34@Cm@0@ABVPxMeshScale@0@ABV120@@Z 1008ce60 f i GuConvexUtilsInternal.obj
 0001:0008c4c0       ?transform@physx@@YA?AVBox@Gu@1@ABVMatrix34@Cm@1@ABV231@@Z 1008d4c0 f i GuConvexUtilsInternal.obj
 0001:0008c750       ?localSearch@physx@@YAXAAIABVPxVec3@1@PBV21@PBUBigConvexRawData@Gu@1@@Z 1008d750 f   GuHillClimbing.obj
 0001:0008c8b0       ??0PolygonalBox@Gu@physx@@QAE@ABVPxVec3@2@@Z 1008d8b0 f   GuShapeConvex.obj
 0001:0008cac0       ?getPolygonalData@PolygonalBox@Gu@physx@@QBEXPIAUPolygonalData@23@@Z 1008dac0 f   GuShapeConvex.obj
 0001:0008cb40       ?getPolygonalData_Convex@Gu@physx@@YAXPIAUPolygonalData@12@PIBUConvexHullData@12@ABVFastVertex2ShapeScaling@Cm@2@@Z 1008db40 f   GuShapeConvex.obj
 0001:0008d720       ??0HullPolygonData@Gu@physx@@QAE@XZ 1008e720 f i GuShapeConvex.obj
 0001:0008d730       ?distancePointBoxSquared@Gu@physx@@YAMABVPxVec3@2@00ABVPxMat33@2@PAV32@@Z 1008e730 f   GuDistancePointBox.obj
 0001:0008d8a0       ?closestPtPointTriangle@Gu@physx@@YA?AVPxVec3@2@ABV32@000AAM1@Z 1008e8a0 f   GuDistancePointTriangle.obj
 0001:0008dd60       ?distancePointTriangleSquared@Gu@physx@@YA?AT__m128@@ABT3@000AAT3@11@Z 1008ed60 f   GuDistancePointTriangle.obj
 0001:0008e0e0       ?distanceSegmentBoxSquared@Gu@physx@@YAMABVPxVec3@2@000ABVPxMat33@2@PAMPAV32@@Z 1008f0e0 f   GuDistanceSegmentBox.obj
 0001:0008f0c0       ?distanceSegmentSegmentSquared@Gu@physx@@YAMABVPxVec3@2@0M00MPAM1@Z 100900c0 f   GuDistanceSegmentSegment.obj
 0001:0008f8a0       ?distanceSegmentSegmentSquared@Gu@physx@@YAMABVPxVec3@2@000PAM1@Z 100908a0 f   GuDistanceSegmentSegment.obj
 0001:0008fb00       ?distanceSegmentSegmentSquared@Gu@physx@@YA?AT__m128@@ABT3@000AAT3@1@Z 10090b00 f   GuDistanceSegmentSegment.obj
 0001:0008fca0       ?distanceSegmentSegmentSquared4@Gu@physx@@YA?AT__m128@@ABT3@000000000AAT3@1@Z 10090ca0 f   GuDistanceSegmentSegment.obj
 0001:0008ffd0       ?distanceSegmentTriangleSquared@Gu@physx@@YAMABVPxVec3@2@0000PAM11@Z 10090fd0 f   GuDistanceSegmentTriangle.obj
 0001:00092140       ?distanceSegmentTriangleSquared@Gu@physx@@YA?AT__m128@@ABT3@0000AAT3@1@Z 10093140 f   GuDistanceSegmentTriangle.obj
 0001:00092830       ?epaPenetration@Gu@physx@@YA?AW4GjkStatus@12@ABUGjkConvex@12@0PIBE1E_NT__m128@@AAUGjkOutput@12@@Z 10093830 f   GuEPA.obj
 0001:00092930       ?isValid2@Facet@Gu@physx@@QAE?AT__m128@@IIIPIBT4@0ABT4@@Z 10093930 f   GuEPA.obj
 0001:00092a10       ?silhouette@Facet@Gu@physx@@QAEXABT__m128@@PIBT4@1AAVEdgeBuffer@23@AAV?$InlineDeferredIDPool@$0EA@@Cm@3@@Z 10093a10 f   GuEPA.obj
 0001:00092bc0       ?PenetrationDepth@EPA@Gu@physx@@QAE?AW4GjkStatus@23@ABUGjkConvex@23@0PIBT__m128@@1E_NT6@AAUGjkOutput@23@@Z 10093bc0 f   GuEPA.obj
 0001:000933c0       ?expandPoint@EPA@Gu@physx@@QAE_NABUGjkConvex@23@0AAHABT__m128@@@Z 100943c0 f   GuEPA.obj
 0001:00093480       ?expandSegment@EPA@Gu@physx@@QAE_NABUGjkConvex@23@0AAHABT__m128@@@Z 10094480 f   GuEPA.obj
 0001:000935b0       ?expandTriangle@EPA@Gu@physx@@QAE_NAAHABT__m128@@@Z 100945b0 f   GuEPA.obj
 0001:00093620       ?addFacet@EPA@Gu@physx@@QAEPAVFacet@23@IIIABT__m128@@@Z 10094620 f   GuEPA.obj
 0001:00093740       ??0Edge@Gu@physx@@QAE@XZ   10094740 f i GuEPA.obj
 0001:00093750       ??0Facet@Gu@physx@@QAE@XZ  10094750 f i GuEPA.obj
 0001:000939a0       ?closestPtPointTetrahedron@Gu@physx@@YA?AT__m128@@PIAT3@00AAI@Z 100949a0 f   GuGJKSimplex.obj
 0001:000941e0       ?closestPtPointTetrahedron@Gu@physx@@YA?AT__m128@@PIAT3@00PIAH1AAI@Z 100951e0 f   GuGJKSimplex.obj
 0001:00096160       ?testGjk@Gu@physx@@YA?AW4GjkStatus@12@AAUGjkConvex@12@0ABT__m128@@1AAT5@222@Z 10097160 f   GuGJKTest.obj
 0001:00096170       ?testGjkPenetration@Gu@physx@@YA?AW4GjkStatus@12@AAUGjkConvex@12@0ABT__m128@@1PAE2AAEAAUGjkOutput@12@@Z 10097170 f   GuGJKTest.obj
 0001:000961a0       ?testEpaPenetration@Gu@physx@@YA?AW4GjkStatus@12@AAUGjkConvex@12@0PBE1EAAUGjkOutput@12@@Z 100971a0 f   GuGJKTest.obj
 0001:000961d0       ?testGjkRaycast@Gu@physx@@YA_NAAUGjkConvex@12@0ABT__m128@@111AAT4@22M@Z 100971d0 f   GuGJKTest.obj
 0001:00096210       ??$gjk@UGjkConvex@Gu@physx@@U123@@Gu@physx@@YA?AW4GjkStatus@01@ABUGjkConvex@01@0ABT__m128@@1AAT4@222@Z 10097210 f i GuGJKTest.obj
 0001:00096ff0       ??$gjkPenetration@UGjkConvex@Gu@physx@@U123@@Gu@physx@@YA?AW4GjkStatus@01@ABUGjkConvex@01@0ABT__m128@@1_NPIAE3AAEAAUGjkOutput@01@@Z 10097ff0 f i GuGJKTest.obj
 0001:00098840       ??$gjkRaycast@UGjkConvex@Gu@physx@@U123@@Gu@physx@@YA_NABUGjkConvex@01@0ABT__m128@@111AAT3@22M@Z 10099840 f i GuGJKTest.obj
 0001:000995d0       ?exportExtraData@HeightField@Gu@physx@@UAEXAAVPxSerializationContext@3@@Z 1009a5d0 f   GuHeightField.obj
 0001:00099600       ?importExtraData@HeightField@Gu@physx@@QAEXAAVPxDeserializationContext@3@@Z 1009a600 f   GuHeightField.obj
 0001:00099630       ?createObject@HeightField@Gu@physx@@SAPAV123@AAPAEAAVPxDeserializationContext@3@@Z 1009a630 f   GuHeightField.obj
 0001:00099690       ??0HeightField@Gu@physx@@QAE@PAVGuMeshFactory@2@@Z 1009a690 f   GuHeightField.obj
 0001:00099720       ??0HeightField@Gu@physx@@QAE@AAVGuMeshFactory@2@AAUHeightFieldData@12@@Z 1009a720 f   GuHeightField.obj
 0001:000997a0       ?release@HeightField@Gu@physx@@UAEXXZ 1009a7a0 f   GuHeightField.obj
 0001:000997c0       ?saveCells@HeightField@Gu@physx@@UBEIPAXI@Z 1009a7c0 f   GuHeightField.obj
 0001:000997f0       ?modifySamples@HeightField@Gu@physx@@UAE_NHHABVPxHeightFieldDesc@3@_N@Z 1009a7f0 f   GuHeightField.obj
 0001:00099af0       ?acquireReference@HeightField@Gu@physx@@UAEXXZ 1009aaf0 f   GuHeightField.obj
 0001:00099b00       ?getReferenceCount@HeightField@Gu@physx@@UBEIXZ 1009ab00 f   GuHeightField.obj
 0001:00099b10       ?onRefCountZero@HeightField@Gu@physx@@UAEXXZ 1009ab10 f   GuHeightField.obj
 0001:00099b80       ?loadFromDesc@HeightField@Gu@physx@@QAE_NABVPxHeightFieldDesc@3@@Z 1009ab80 f   GuHeightField.obj
 0001:00099de0       ?load@HeightField@Gu@physx@@QAE_NAAVPxInputStream@3@@Z 1009ade0 f   GuHeightField.obj
 0001:0009a080       ?computeCellCoordinates@HeightField@Gu@physx@@QBEIMMAAM0@Z 1009b080 f   GuHeightField.obj
 0001:0009a1a0       ?isSolidVertex@HeightField@Gu@physx@@QBE_NIIIGAA_N@Z 1009b1a0 f   GuHeightField.obj
 0001:0009a2f0       ?isCollisionVertexPreca@HeightField@Gu@physx@@QBE_NIIIG@Z 1009b2f0 f   GuHeightField.obj
 0001:0009a360       ?parseTrianglesForCollisionVertices@HeightField@Gu@physx@@QAEXG@Z 1009b360 f   GuHeightField.obj
 0001:0009a7c0       ?releaseMemory@HeightField@Gu@physx@@QAEXXZ 1009b7c0 f   GuHeightField.obj
 0001:0009a7f0       ??1HeightField@Gu@physx@@UAE@XZ 1009b7f0 f   GuHeightField.obj
 0001:0009a840       ?getVertexEdgeIndices@physx@@YAIABVHeightField@Gu@1@IIIQAUEdgeData@1@@Z 1009b840 f   GuHeightField.obj
 0001:0009aa20       ?getEdgeTriangleIndices@physx@@YAIABVHeightField@Gu@1@ABUEdgeData@1@PIAI@Z 1009ba20 f   GuHeightField.obj
 0001:0009ab40       ??0?$BitMapBase@VNonTrackingAllocator@shdfnd@physx@@@Cm@physx@@QAE@XZ 1009bb40 f i GuHeightField.obj
 0001:0009ab50       ??1?$BitMapBase@VNonTrackingAllocator@shdfnd@physx@@@Cm@physx@@QAE@XZ 1009bb50 f i GuHeightField.obj
 0001:0009ab80       ??_EHeightField@Gu@physx@@UAEPAXI@Z 1009bb80 f i GuHeightField.obj
 0001:0009aca2       ??_EHeightField@Gu@physx@@W7AEPAXI@Z 1009bca2 f i GuHeightField.obj
 0001:0009acb0       ??_EPxHeightField@physx@@MAEPAXI@Z 1009bcb0 f i GuHeightField.obj
 0001:0009ad20       ?isConvexVertex@HeightField@Gu@physx@@QBE_NIII@Z 1009bd20 f i GuHeightField.obj
 0001:0009add0       ?requiresObjects@HeightField@Gu@physx@@UAEXAAVPxProcessPxBaseCallback@3@@Z 1009bdd0 f i GuHeightField.obj
 0001:0009ade0       ?resizeAndClear@?$BitMapBase@VNonTrackingAllocator@shdfnd@physx@@@Cm@physx@@QAEXI@Z 1009bde0 f i GuHeightField.obj
 0001:0009ae70       ?computeLocalBounds@HeightFieldUtil@Gu@physx@@QBEXAAVPxBounds3@3@@Z 1009be70 f   GuHeightFieldUtil.obj
 0001:0009af40       ?getFaceIndexAtShapePoint@HeightFieldUtil@Gu@physx@@QBEIMM@Z 1009bf40 f   GuHeightFieldUtil.obj
 0001:0009b040       ?getVertexNormal@HeightFieldUtil@Gu@physx@@QBE?AVPxVec3@3@III@Z 1009c040 f   GuHeightFieldUtil.obj
 0001:0009b360       ?getVertexFaceIndex@HeightFieldUtil@Gu@physx@@QBEIIII@Z 1009c360 f   GuHeightFieldUtil.obj
 0001:0009b5a0       ?getEdge@HeightFieldUtil@Gu@physx@@QBEXIIIIAAVPxVec3@3@0@Z 1009c5a0 f   GuHeightFieldUtil.obj
 0001:0009b840       ?getEdgeFaceIndex@HeightFieldUtil@Gu@physx@@QBEII@Z 1009c840 f   GuHeightFieldUtil.obj
 0001:0009b9d0       ?getEdgeFaceIndex@HeightFieldUtil@Gu@physx@@QBEIIIII@Z 1009c9d0 f   GuHeightFieldUtil.obj
 0001:0009bb50       ?getEdgeFaceIndex@HeightFieldUtil@Gu@physx@@QBEIIIPIBI@Z 1009cb50 f   GuHeightFieldUtil.obj
 0001:0009bbb0       ?findClosestPointsOnCell@HeightFieldUtil@Gu@physx@@QBEIIIVPxVec3@3@PIAV43@PIAI_N33@Z 1009cbb0 f   GuHeightFieldUtil.obj
 0001:0009c360       ?findProjectionOnTriangle@HeightFieldUtil@Gu@physx@@QBE_NIIIABVPxVec3@3@AAV43@@Z 1009d360 f   GuHeightFieldUtil.obj
 0001:0009c640       ?findClosestPointOnEdge@HeightFieldUtil@Gu@physx@@QBEMIIIIABVPxVec3@3@AAV43@@Z 1009d640 f   GuHeightFieldUtil.obj
 0001:0009c970       ?getTriangle@HeightFieldUtil@Gu@physx@@QBEIABVPxTransform@3@AAVPxTriangle@3@PAI2I_N3@Z 1009d970 f   GuHeightFieldUtil.obj
 0001:0009d4c0       ?overlapAABBTriangles@HeightFieldUtil@Gu@physx@@QBE_NABVPxTransform@3@ABVPxBounds3@3@IPAV?$EntityReport@I@23@@Z 1009e4c0 f   GuHeightFieldUtil.obj
 0001:0009dc00       ?getTriangleAdjacencyIndices@HeightField@Gu@physx@@QBEXIIIIAAI00@Z 1009ec00 f i GuHeightFieldUtil.obj
 0001:0009dd90       ?getTriangleNormalInternal@HeightField@Gu@physx@@QBE?AVPxVec3@3@I@Z 1009ed90 f i GuHeightFieldUtil.obj
 0001:0009dea0       ?getTriangleVertexIndices@HeightField@Gu@physx@@QBEXIAAI00@Z 1009eea0 f i GuHeightFieldUtil.obj
 0001:0009df30       ?checkOverlapAABB_heightFieldGeom@Gu@physx@@YA_NABVPxGeometry@2@ABVPxTransform@2@ABVPxBounds3@2@@Z 1009ef30 f   GuOverlapTestsHF.obj
 0001:0009e3d0       ?GeomOverlapCallback_SphereHeightfield@@YA_NABVPxGeometry@physx@@ABVPxTransform@2@01PAUTriggerCache@Gu@2@@Z 1009f3d0 f   GuOverlapTestsHF.obj
 0001:0009e570       ?GeomOverlapCallback_CapsuleHeightfield@@YA_NABVPxGeometry@physx@@ABVPxTransform@2@01PAUTriggerCache@Gu@2@@Z 1009f570 f   GuOverlapTestsHF.obj
 0001:0009e820       ?GeomOverlapCallback_BoxHeightfield@@YA_NABVPxGeometry@physx@@ABVPxTransform@2@01PAUTriggerCache@Gu@2@@Z 1009f820 f   GuOverlapTestsHF.obj
 0001:0009eb80       ?GeomOverlapCallback_ConvexHeightfield@@YA_NABVPxGeometry@physx@@ABVPxTransform@2@01PAUTriggerCache@Gu@2@@Z 1009fb80 f   GuOverlapTestsHF.obj
 0001:0009ebf0       ??$traceSegment@UTriggerTraceSegmentCallback@Gu@physx@@$0A@$0A@@HeightFieldTraceUtil@Gu@physx@@QBEXABVPxVec3@2@0MPAUTriggerTraceSegmentCallback@12@ABVPxBounds3@2@_NPBV32@@Z 1009fbf0 f i GuOverlapTestsHF.obj
 0001:000a3360       ?sweepCapsule_HeightFieldGeom@@YA_NABVPxGeometry@physx@@ABVPxTransform@2@ABVPxCapsuleGeometry@2@1ABVCapsule@Gu@2@ABVPxVec3@2@MAAUPxSweepHit@2@V?$PxFlags@W4Enum@PxHitFlag@physx@@G@2@M@Z 100a4360 f   GuSweepsHF.obj
 0001:000a3db0       ?sweepConvex_HeightFieldGeom@@YA_NABVPxGeometry@physx@@ABVPxTransform@2@ABVPxConvexMeshGeometry@2@1ABVPxVec3@2@MAAUPxSweepHit@2@V?$PxFlags@W4Enum@PxHitFlag@physx@@G@2@M@Z 100a4db0 f   GuSweepsHF.obj
 0001:000a48b0       ?sweepBox_HeightFieldGeom@@YA_NABVPxGeometry@physx@@ABVPxTransform@2@ABVPxBoxGeometry@2@1ABVBox@Gu@2@ABVPxVec3@2@MAAUPxSweepHit@2@V?$PxFlags@W4Enum@PxHitFlag@physx@@G@2@M@Z 100a58b0 f   GuSweepsHF.obj
 0001:000a5460       ??$gjkPenetration@U?$LocalConvex@VTriangleV@Gu@physx@@@Gu@physx@@U?$LocalConvex@VConvexHullV@Gu@physx@@@23@@Gu@physx@@YA?AW4GjkStatus@01@ABU?$LocalConvex@VTriangleV@Gu@physx@@@01@ABU?$LocalConvex@VConvexHullV@Gu@physx@@@01@ABT__m128@@2_NPIAE4AAEAAUGjkOutput@01@@Z 100a6460 f i GuSweepsHF.obj
 0001:000a6e30       ??$gjkRaycast@U?$LocalConvex@VTriangleV@Gu@physx@@@Gu@physx@@U?$LocalConvex@VConvexHullV@Gu@physx@@@23@@Gu@physx@@YA_NABU?$LocalConvex@VTriangleV@Gu@physx@@@01@ABU?$LocalConvex@VConvexHullV@Gu@physx@@@01@ABT__m128@@222AAT4@33M@Z 100a7e30 f i GuSweepsHF.obj
 0001:000a7d00       ??$gjkRaycastPenetration@U?$LocalConvex@VTriangleV@Gu@physx@@@Gu@physx@@U?$LocalConvex@VConvexHullV@Gu@physx@@@23@@Gu@physx@@YA_NABU?$LocalConvex@VTriangleV@Gu@physx@@@01@ABU?$LocalConvex@VConvexHullV@Gu@physx@@@01@ABT__m128@@222AAT4@33M_N@Z 100a8d00 f i GuSweepsHF.obj
 0001:000a7f00       ??$traceSegment@VBoxTraceSegmentReport@@$0A@$00@HeightFieldTraceUtil@Gu@physx@@QBEXABVPxVec3@2@0MPAVBoxTraceSegmentReport@@ABVPxBounds3@2@_NPBV32@@Z 100a8f00 f i GuSweepsHF.obj
 0001:000a88f0       ??$traceSegment@VCapsuleTraceSegmentReport@@$0A@$00@HeightFieldTraceUtil@Gu@physx@@QBEXABVPxVec3@2@0MPAVCapsuleTraceSegmentReport@@ABVPxBounds3@2@_NPBV32@@Z 100a98f0 f i GuSweepsHF.obj
 0001:000a92e0       ??$traceSegment@VConvexTraceSegmentReport@@$0A@$00@HeightFieldTraceUtil@Gu@physx@@QBEXABVPxVec3@2@0MPAVConvexTraceSegmentReport@@ABVPxBounds3@2@_NPBV32@@Z 100aa2e0 f i GuSweepsHF.obj
 0001:000a9cd0       ??0ConvexTraceSegmentReport@@QAE@ABVHeightFieldUtil@Gu@physx@@ABUConvexHullData@23@ABVPxMeshScale@3@ABVPxTransform@3@3ABVPxVec3@3@MV?$PxFlags@W4Enum@PxHitFlag@physx@@G@3@M@Z 100aacd0 f i GuSweepsHF.obj
 0001:000aa6b0       ??_EBoxTraceSegmentReport@@UAEPAXI@Z 100ab6b0 f i GuSweepsHF.obj
 0001:000aa6b0       ??_GBoxTraceSegmentReport@@UAEPAXI@Z 100ab6b0 f i GuSweepsHF.obj
 0001:000aa6e0       ??_GCapsuleTraceSegmentReport@@UAEPAXI@Z 100ab6e0 f i GuSweepsHF.obj
 0001:000aa6e0       ??_ECapsuleTraceSegmentReport@@UAEPAXI@Z 100ab6e0 f i GuSweepsHF.obj
 0001:000aa710       ??_EConvexTraceSegmentReport@@UAEPAXI@Z 100ab710 f i GuSweepsHF.obj
 0001:000aa710       ??_GConvexTraceSegmentReport@@UAEPAXI@Z 100ab710 f i GuSweepsHF.obj
 0001:000aa740       ??_GHeightFieldTraceSegmentReport@@UAEPAXI@Z 100ab740 f i GuSweepsHF.obj
 0001:000aa740       ??_EHeightFieldTraceSegmentReport@@UAEPAXI@Z 100ab740 f i GuSweepsHF.obj
 0001:000aa770       ?addIndex@?$OverlapTraceSegment@VBoxTraceSegmentReport@@@HeightFieldTraceUtil@Gu@physx@@QAE_NI@Z 100ab770 f i GuSweepsHF.obj
 0001:000aa7c0       ?addIndex@?$OverlapTraceSegment@VCapsuleTraceSegmentReport@@@HeightFieldTraceUtil@Gu@physx@@QAE_NI@Z 100ab7c0 f i GuSweepsHF.obj
 0001:000aa810       ?addIndex@?$OverlapTraceSegment@VConvexTraceSegmentReport@@@HeightFieldTraceUtil@Gu@physx@@QAE_NI@Z 100ab810 f i GuSweepsHF.obj
 0001:000aa860       ?finalizeHit@BoxTraceSegmentReport@@QAE_NAAUPxSweepHit@physx@@ABVPxHeightFieldGeometry@3@ABVPxTransform@3@2ABVBox@Gu@3@ABVPxVec3@3@MM@Z 100ab860 f i GuSweepsHF.obj
 0001:000aac20       ?finalizeHit@ConvexTraceSegmentReport@@QAE_NAAUPxSweepHit@physx@@ABVPxHeightFieldGeometry@3@ABVPxTransform@3@ABVPxConvexMeshGeometry@3@2ABVPxVec3@3@M@Z 100abc20 f i GuSweepsHF.obj
 0001:000aae20       ?onEvent@BoxTraceSegmentReport@@UAE_NIPAI@Z 100abe20 f i GuSweepsHF.obj
 0001:000ab2e0       ?onEvent@CapsuleTraceSegmentReport@@UAE_NIPAI@Z 100ac2e0 f i GuSweepsHF.obj
 0001:000ab460       ?onEvent@ConvexTraceSegmentReport@@UAE_NIPAI@Z 100ac460 f i GuSweepsHF.obj
 0001:000aba40       ?prepare@?$OverlapTraceSegment@VBoxTraceSegmentReport@@@HeightFieldTraceUtil@Gu@physx@@QAEXABVPxVec3@4@00AAM1@Z 100aca40 f i GuSweepsHF.obj
 0001:000abd10       ?prepare@?$OverlapTraceSegment@VCapsuleTraceSegmentReport@@@HeightFieldTraceUtil@Gu@physx@@QAEXABVPxVec3@4@00AAM1@Z 100acd10 f i GuSweepsHF.obj
 0001:000abfe0       ?prepare@?$OverlapTraceSegment@VConvexTraceSegmentReport@@@HeightFieldTraceUtil@Gu@physx@@QAEXABVPxVec3@4@00AAM1@Z 100acfe0 f i GuSweepsHF.obj
 0001:000ac2b0       ?testVertexIndex@?$OverlapTraceSegment@VBoxTraceSegmentReport@@@HeightFieldTraceUtil@Gu@physx@@QAE_NI@Z 100ad2b0 f i GuSweepsHF.obj
 0001:000ac3a0       ?testVertexIndex@?$OverlapTraceSegment@VCapsuleTraceSegmentReport@@@HeightFieldTraceUtil@Gu@physx@@QAE_NI@Z 100ad3a0 f i GuSweepsHF.obj
 0001:000ac490       ?testVertexIndex@?$OverlapTraceSegment@VConvexTraceSegmentReport@@@HeightFieldTraceUtil@Gu@physx@@QAE_NI@Z 100ad490 f i GuSweepsHF.obj
 0001:000ac580       ?visitCells@?$OverlapTraceSegment@VBoxTraceSegmentReport@@@HeightFieldTraceUtil@Gu@physx@@QAE_NABUOverlapRectangle@1234@@Z 100ad580 f i GuSweepsHF.obj
 0001:000ac740       ?visitCells@?$OverlapTraceSegment@VCapsuleTraceSegmentReport@@@HeightFieldTraceUtil@Gu@physx@@QAE_NABUOverlapRectangle@1234@@Z 100ad740 f i GuSweepsHF.obj
 0001:000ac900       ?visitCells@?$OverlapTraceSegment@VConvexTraceSegmentReport@@@HeightFieldTraceUtil@Gu@physx@@QAE_NABUOverlapRectangle@1234@@Z 100ad900 f i GuSweepsHF.obj
 0001:000acac0       ?intersectOBBOBB@Gu@physx@@YA_NABVPxVec3@2@0ABVPxMat33@2@001_N@Z 100adac0 f   GuIntersectionBoxBox.obj
 0001:000ad410       ?intersectCapsuleTriangle@Gu@physx@@YA_NABVPxVec3@2@000ABVCapsule@12@ABUCapsuleTriangleOverlapData@12@@Z 100ae410 f   GuIntersectionCapsuleTriangle.obj
 0001:000ae010       ?intersectEdgeEdge@Gu@physx@@YA_NABVPxVec3@2@0000AAMAAV32@@Z 100af010 f   GuIntersectionEdgeEdge.obj
 0001:000ae330       ?rayAABBIntersect@Gu@physx@@YA_NABVPxVec3@2@000AAV32@@Z 100af330 f   GuIntersectionRayBox.obj
 0001:000ae4c0       ?rayAABBIntersect2@Gu@physx@@YAIABVPxVec3@2@000AAV32@AAM@Z 100af4c0 f   GuIntersectionRayBox.obj
 0001:000ae660       ?intersectRayAABB@Gu@physx@@YAHABVPxVec3@2@000AAM1@Z 100af660 f   GuIntersectionRayBox.obj
 0001:000ae770       ?intersectRayAABB@Gu@physx@@YAHABVPxVec3@2@0000AAM1@Z 100af770 f   GuIntersectionRayBox.obj
 0001:000ae940       ?intersectRayAABB2@Gu@physx@@YA_NABVPxVec3@2@000MAAM1@Z 100af940 f   GuIntersectionRayBox.obj
 0001:000aead0       ?intersectRayAABB2@Gu@physx@@YA_NABT__m128@@0000AAT3@1@Z 100afad0 f   GuIntersectionRayBox.obj
 0001:000aeba0       ?intersectRayCapsuleInternal@Gu@physx@@YAIABVPxVec3@2@000MQAM@Z 100afba0 f   GuIntersectionRayCapsule.obj
 0001:000af450       ?intersectRaySphereBasic@Gu@physx@@YA_NABVPxVec3@2@0M0MAAMPAV32@@Z 100b0450 f   GuIntersectionRaySphere.obj
 0001:000af580       ?intersectRaySphere@Gu@physx@@YA_NABVPxVec3@2@0M0MAAMPAV32@@Z 100b0580 f   GuIntersectionRaySphere.obj
 0001:000af680       ?intersectSphereBox@Gu@physx@@YA_NABVSphere@12@ABVBox@12@@Z 100b0680 f   GuIntersectionSphereBox.obj
 0001:000af830       ?intersectTriangleBox_ReferenceCode@Gu@physx@@YAHABVPxVec3@2@0000@Z 100b0830 f   GuIntersectionTriangleBox.obj
 0001:000b01d0       ?intersectTriangleBox_Unsafe@Gu@physx@@YAHABVPxVec3@2@0000@Z 100b11d0 f   GuIntersectionTriangleBox.obj
 0001:000b05b0       ?intersectTriangleBox@Gu@physx@@YAHABVBoxPadded@12@ABVPxVec3@2@11@Z 100b15b0 f   GuIntersectionTriangleBox.obj
 0001:000b0af0       ?intersectTriangleBoxBV4@@YAHABVPxVec3@physx@@00ABVPxMat33@2@00@Z 100b1af0 f   GuIntersectionTriangleBox.obj
 0001:000b0f20       ??0SourceMeshBase@Gu@physx@@QAE@XZ 100b1f20 f   GuBV4.obj
 0001:000b0f40       ??1SourceMeshBase@Gu@physx@@QAE@XZ 100b1f40 f   GuBV4.obj
 0001:000b0f70       ??0SourceMesh@Gu@physx@@QAE@XZ 100b1f70 f   GuBV4.obj
 0001:000b0fa0       ??1SourceMesh@Gu@physx@@QAE@XZ 100b1fa0 f   GuBV4.obj
 0001:000b0fd0       ?reset@SourceMesh@Gu@physx@@QAEXXZ 100b1fd0 f   GuBV4.obj
 0001:000b1000       ??4SourceMesh@Gu@physx@@QAEXAAV012@@Z 100b2000 f   GuBV4.obj
 0001:000b1060       ?remapTopology@SourceMesh@Gu@physx@@QAEXPBI@Z 100b2060 f   GuBV4.obj
 0001:000b1280       ?isValid@SourceMesh@Gu@physx@@QBE_NXZ 100b2280 f   GuBV4.obj
 0001:000b12b0       ??0BV4Tree@Gu@physx@@QAE@W4PxEMPTY@2@@Z 100b22b0 f   GuBV4.obj
 0001:000b12c0       ?exportExtraData@BV4Tree@Gu@physx@@QAEXAAVPxSerializationContext@3@@Z 100b22c0 f   GuBV4.obj
 0001:000b12f0       ?importExtraData@BV4Tree@Gu@physx@@QAEXAAVPxDeserializationContext@3@@Z 100b22f0 f   GuBV4.obj
 0001:000b1320       ??0BV4Tree@Gu@physx@@QAE@XZ 100b2320 f   GuBV4.obj
 0001:000b1390       ??0BV4Tree@Gu@physx@@QAE@PAVSourceMesh@12@ABVPxBounds3@2@@Z 100b2390 f   GuBV4.obj
 0001:000b1490       ??1BV4Tree@Gu@physx@@QAE@XZ 100b2490 f   GuBV4.obj
 0001:000b14a0       ?load@BV4Tree@Gu@physx@@QAE_NAAVPxInputStream@3@_N@Z 100b24a0 f   GuBV4.obj
 0001:000b1640       ?reset@BV4Tree@Gu@physx@@QAEXXZ 100b2640 f   GuBV4.obj
 0001:000b1690       ??4BV4Tree@Gu@physx@@QAEXAAV012@@Z 100b2690 f   GuBV4.obj
 0001:000b1750       ?init@BV4Tree@Gu@physx@@QAE_NPAVSourceMesh@23@ABVPxBounds3@3@@Z 100b2750 f   GuBV4.obj
 0001:000b17f0       ?release@BV4Tree@Gu@physx@@QAEXXZ 100b27f0 f   GuBV4.obj
 0001:000b1860       ?refit@BV4Tree@Gu@physx@@QAEXM@Z 100b2860 f   GuBV4.obj
 0001:000b1870       ??0IndTri16@Gu@physx@@QAE@XZ 100b2870 f i GuBV4.obj
 0001:000b1880       ??0IndTri32@Gu@physx@@QAE@XZ 100b2880 f i GuBV4.obj
 0001:000b1890       ??1IndTri16@Gu@physx@@QAE@XZ 100b2890 f i GuBV4.obj
 0001:000b18a0       ??1IndTri32@Gu@physx@@QAE@XZ 100b28a0 f i GuBV4.obj
 0001:000b18b0       ??_EIndTri16@Gu@physx@@QAEPAXI@Z 100b28b0 f i GuBV4.obj
 0001:000b1920       ??_EIndTri32@Gu@physx@@QAEPAXI@Z 100b2920 f i GuBV4.obj
 0001:000b1990       ??0AABBTree@Gu@physx@@QAE@XZ 100b2990 f   GuBV4Build.obj
 0001:000b19b0       ??1AABBTree@Gu@physx@@QAE@XZ 100b29b0 f   GuBV4Build.obj
 0001:000b19c0       ?buildFromMesh@AABBTree@Gu@physx@@QAE_NAAVSourceMesh@23@I@Z 100b29c0 f   GuBV4Build.obj
 0001:000b1d40       ?release@AABBTree@Gu@physx@@QAEXXZ 100b2d40 f   GuBV4Build.obj
 0001:000b1dd0       ?walk@AABBTree@Gu@physx@@QBEIP6A_NPBVAABBTreeNode@23@IPAX@Z1@Z 100b2dd0 f   GuBV4Build.obj
 0001:000b1e10       ?BuildBV4Ex@Gu@physx@@YA_NAAVBV4Tree@12@AAVSourceMesh@12@MI@Z 100b2e10 f   GuBV4Build.obj
 0001:000b20c0       ??0BVData@@QAE@XZ          100b30c0 f   GuBV4Build.obj
 0001:000b2100       ??1BV4BuildParams@@QAE@XZ  100b3100 f   GuBV4Build.obj
 0001:000b2110       ?allocateNode@BV4BuildParams@@QAEPAUBV4Node@@XZ 100b3110 f   GuBV4Build.obj
 0001:000b21e0       ?releaseNodes@BV4BuildParams@@QAEXXZ 100b31e0 f   GuBV4Build.obj
 0001:000b2290       ??0AABBTreeNode@Gu@physx@@QAE@XZ 100b3290 f i GuBV4Build.obj
 0001:000b22b0       ??0BV4Node@@QAE@XZ         100b32b0 f i GuBV4Build.obj
 0001:000b23a0       ??1AABBTreeNode@Gu@physx@@QAE@XZ 100b33a0 f i GuBV4Build.obj
 0001:000b23c0       ??1BV4Node@@QAE@XZ         100b33c0 f i GuBV4Build.obj
 0001:000b23d0       ??1BVData@@QAE@XZ          100b33d0 f i GuBV4Build.obj
 0001:000b23e0       ??_EAABBTreeNode@Gu@physx@@QAEPAXI@Z 100b33e0 f i GuBV4Build.obj
 0001:000b3ab0       ?Sweep_AABB_BV4@@YAHABVBox@Gu@physx@@ABVPxVec3@3@MABVBV4Tree@23@PIAVSweepHit@23@I@Z 100b4ab0 f   GuBV4_AABBSweep.obj
 0001:000b3fd0       ?Sweep_AABB_BV4_CB@@YAXABVBox@Gu@physx@@ABVPxVec3@3@MABVBV4Tree@23@PIBVPxMat44@3@P6A_NPAXABVSweepHit@23@@Z4I_N@Z 100b4fd0 f   GuBV4_AABBSweep.obj
 0001:000b4180       ?GenericSweep_AABB_CB@@YAXABVBox@Gu@physx@@ABVPxVec3@3@MABVBV4Tree@23@P6A_NPAX111IAAM@Z3I@Z 100b5180 f   GuBV4_AABBSweep.obj
 0001:000bbc00       ?transform@PxMat44@physx@@QBE?BVPxVec4@2@ABV32@@Z 100bcc00 f i GuBV4_AABBSweep.obj
 0001:000bcaa0       ?BV4_OverlapBoxAny@@YAHABVBox@Gu@physx@@ABVBV4Tree@23@PIBVPxMat44@3@@Z 100bdaa0 f   GuBV4_BoxOverlap.obj
 0001:000bd2e0       ?BV4_OverlapBoxAll@@YAIABVBox@Gu@physx@@ABVBV4Tree@23@PIBVPxMat44@3@PAIIAA_N@Z 100be2e0 f   GuBV4_BoxOverlap.obj
 0001:000bdb90       ?BV4_OverlapBoxCB@@YAXABVBox@Gu@physx@@ABVBV4Tree@23@P6A_NPAXABVPxVec3@3@33IPBI@Z2@Z 100beb90 f   GuBV4_BoxOverlap.obj
 0001:000be060       ?BV4_OverlapCapsuleAny@@YAHABVCapsule@Gu@physx@@ABVBV4Tree@23@PIBVPxMat44@3@@Z 100bf060 f   GuBV4_BoxOverlap.obj
 0001:000be7e0       ?BV4_OverlapCapsuleAll@@YAIABVCapsule@Gu@physx@@ABVBV4Tree@23@PIBVPxMat44@3@PAIIAA_N@Z 100bf7e0 f   GuBV4_BoxOverlap.obj
 0001:000befd0       ?BV4_OverlapCapsuleCB@@YAXABVCapsule@Gu@physx@@ABVBV4Tree@23@PIBVPxMat44@3@P6A_NPAXABVPxVec3@3@44IPBI@Z3@Z 100bffd0 f   GuBV4_BoxOverlap.obj
 0001:000c3d70       ?BV4_CapsuleSweepSingle@@YAHABVCapsule@Gu@physx@@ABVPxVec3@3@MABVBV4Tree@23@PIAVSweepHit@23@I@Z 100c4d70 f   GuBV4_CapsuleSweep.obj
 0001:000c42e0       ?BV4_CapsuleSweepCB@@YAXABVCapsule@Gu@physx@@ABVPxVec3@3@MABVBV4Tree@23@PIBVPxMat44@3@P6A_NPAXABVSweepHit@23@@Z4I_N@Z 100c52e0 f   GuBV4_CapsuleSweep.obj
 0001:000cd120       ?BV4_CapsuleSweepSingleAA@@YAHABVCapsule@Gu@physx@@ABVPxVec3@3@MABVBV4Tree@23@PIAVSweepHit@23@I@Z 100ce120 f   GuBV4_CapsuleSweepAA.obj
 0001:000d0280       ?Sweep_OBB_BV4@@YAHABVBox@Gu@physx@@ABVPxVec3@3@MABVBV4Tree@23@PIAVSweepHit@23@I@Z 100d1280 f   GuBV4_OBBSweep.obj
 0001:000d0730       ?Sweep_OBB_BV4_CB@@YAXABVBox@Gu@physx@@ABVPxVec3@3@MABVBV4Tree@23@PIBVPxMat44@3@P6A_NPAXABVSweepHit@23@@Z4I_N@Z 100d1730 f   GuBV4_OBBSweep.obj
 0001:000d08c0       ?GenericSweep_OBB_CB@@YAXABVBox@Gu@physx@@ABVPxVec3@3@MABVBV4Tree@23@P6A_NPAX111IAAM@Z3I@Z 100d18c0 f   GuBV4_OBBSweep.obj
 0001:000d09b0       ?BV4_BoxSweepSingle@@YAHABVBox@Gu@physx@@ABVPxVec3@3@MABVBV4Tree@23@PIBVPxMat44@3@PIAVSweepHit@23@I@Z 100d19b0 f   GuBV4_OBBSweep.obj
 0001:000d1090       ?BV4_BoxSweepCB@@YAXABVBox@Gu@physx@@ABVPxVec3@3@MABVBV4Tree@23@PIBVPxMat44@3@P6A_NPAXABVSweepHit@23@@Z4I_N@Z 100d2090 f   GuBV4_OBBSweep.obj
 0001:000d1980       ?BV4_GenericSweepCB@@YAXABVBox@Gu@physx@@ABVPxVec3@3@MABVBV4Tree@23@P6A_NPAX111IAAM@Z3_N@Z 100d2980 f   GuBV4_OBBSweep.obj
 0001:000db950       ?BV4_RaycastSingle@@YAHABVPxVec3@physx@@0ABVBV4Tree@Gu@2@PIBVPxMat44@2@PIAUPxRaycastHit@2@MMIV?$PxFlags@W4Enum@PxHitFlag@physx@@G@2@@Z 100dc950 f   GuBV4_Raycast.obj
 0001:000dbe80       ?BV4_RaycastCB@@YAXABVPxVec3@physx@@0ABVBV4Tree@Gu@2@PIBVPxMat44@2@MMIP6A?AW4HitCode@42@PAX000IMMM@Z3@Z 100dce80 f   GuBV4_Raycast.obj
 0001:000dc1e0       ?BV4_RaycastAll@@YAIABVPxVec3@physx@@0ABVBV4Tree@Gu@2@PIBVPxMat44@2@PIAUPxRaycastHit@2@IMMIV?$PxFlags@W4Enum@PxHitFlag@physx@@G@2@@Z 100dd1e0 f   GuBV4_Raycast.obj
 0001:000dd4e0       ??$doBruteForceTests@VLeafFunction_RaycastAny@?A0x7d303ae7@@VLeafFunction_RaycastClosest@2@URayParams@@@Gu@physx@@YAXIPIAURayParams@@@Z 100de4e0 f i GuBV4_Raycast.obj
 0001:000de970       ?BV4_OverlapSphereAny@@YAHABVSphere@Gu@physx@@ABVBV4Tree@23@PIBVPxMat44@3@@Z 100df970 f   GuBV4_SphereOverlap.obj
 0001:000deba0       ?BV4_OverlapSphereAll@@YAIABVSphere@Gu@physx@@ABVBV4Tree@23@PIBVPxMat44@3@PAIIAA_N@Z 100dfba0 f   GuBV4_SphereOverlap.obj
 0001:000dee10       ?BV4_OverlapSphereCB@@YAXABVSphere@Gu@physx@@ABVBV4Tree@23@PIBVPxMat44@3@P6A_NPAXABVPxVec3@3@44IPBI@Z3@Z 100dfe10 f   GuBV4_SphereOverlap.obj
 0001:000e1f90       ?BV4_SphereSweepSingle@@YAHABVSphere@Gu@physx@@ABVPxVec3@3@MABVBV4Tree@23@PIBVPxMat44@3@PIAVSweepHit@23@I@Z 100e2f90 f   GuBV4_SphereSweep.obj
 0001:000e2630       ?BV4_SphereSweepCB@@YAXABVSphere@Gu@physx@@ABVPxVec3@3@MABVBV4Tree@23@PIBVPxMat44@3@P6A_NPAXABVSweepHit@23@@Z4I_N@Z 100e3630 f   GuBV4_SphereSweep.obj
 0001:000e2960       ?BV4_GenericSweepCB_Old@@YAXABVPxVec3@physx@@00MABVBV4Tree@Gu@2@PIBVPxMat44@2@P6A_NPAX000IAAM@Z3@Z 100e3960 f   GuBV4_SphereSweep.obj
 0001:000e7b40       ?raycast_triangleMesh_BV4@Gu@physx@@YAIPBVTriangleMesh@12@ABVPxTriangleMeshGeometry@2@ABVPxTransform@2@ABVPxVec3@2@3MV?$PxFlags@W4Enum@PxHitFlag@physx@@G@2@IPIAUPxRaycastHit@2@@Z 100e8b40 f   GuMidphaseBV4.obj
 0001:000e8990       ?intersectSphereVsMesh_BV4@Gu@physx@@YA_NABVSphere@12@ABVTriangleMesh@12@ABVPxTransform@2@ABVPxMeshScale@2@PAULimitedResults@12@@Z 100e9990 f   GuMidphaseBV4.obj
 0001:000e91b0       ?intersectBoxVsMesh_BV4@Gu@physx@@YA_NABVBox@12@ABVTriangleMesh@12@ABVPxTransform@2@ABVPxMeshScale@2@PAULimitedResults@12@@Z 100ea1b0 f   GuMidphaseBV4.obj
 0001:000e9eb0       ?intersectCapsuleVsMesh_BV4@Gu@physx@@YA_NABVCapsule@12@ABVTriangleMesh@12@ABVPxTransform@2@ABVPxMeshScale@2@PAULimitedResults@12@@Z 100eaeb0 f   GuMidphaseBV4.obj
 0001:000ea7d0       ?intersectOBB_BV4@Gu@physx@@YAXPBVTriangleMesh@12@ABVBox@12@AAU?$MeshHitCallback@UPxRaycastHit@physx@@@12@_N3@Z 100eb7d0 f   GuMidphaseBV4.obj
 0001:000ea7f0       ?sweepCapsule_MeshGeom_BV4@Gu@physx@@YA_NPBVTriangleMesh@12@ABVPxTriangleMeshGeometry@2@ABVPxTransform@2@ABVCapsule@12@ABVPxVec3@2@MAAUPxSweepHit@2@V?$PxFlags@W4Enum@PxHitFlag@physx@@G@2@M@Z 100eb7f0 f   GuMidphaseBV4.obj
 0001:000eb3f0       ?sweepBox_MeshGeom_BV4@Gu@physx@@YA_NPBVTriangleMesh@12@ABVPxTriangleMeshGeometry@2@ABVPxTransform@2@ABVBox@12@ABVPxVec3@2@MAAUPxSweepHit@2@V?$PxFlags@W4Enum@PxHitFlag@physx@@G@2@M@Z 100ec3f0 f   GuMidphaseBV4.obj
 0001:000ed020       ?sweepConvex_MeshGeom_BV4@Gu@physx@@YAXPBVTriangleMesh@12@ABVBox@12@ABVPxVec3@2@MAAUSweepConvexMeshHitCallback@12@_N@Z 100ee020 f   GuMidphaseBV4.obj
 0001:000ee0f0       ??0PxMat33@physx@@QAE@ABV01@@Z 100ef0f0 f i GuMidphaseBV4.obj
 0001:000ee130       ??1SweepBoxMeshHitCallback@Gu@physx@@UAE@XZ 100ef130 f i GuMidphaseBV4.obj
 0001:000ee890       ?computeSweepData@physx@@YAMABVPxTriangleMeshGeometry@1@AAVPxVec3@1@11M@Z 100ef890 f i GuMidphaseBV4.obj
 0001:000eec40       ?transform@PxMeshScale@physx@@QBE?AVPxVec3@2@ABV32@@Z 100efc40 f i GuMidphaseBV4.obj
 0001:000eee30       ?getTriangle@PxMeshQuery@physx@@SAXABVPxTriangleMeshGeometry@2@ABVPxTransform@2@IAAVPxTriangle@2@PAI3@Z 100efe30 f   GuMeshQuery.obj
 0001:000ef170       ?getTriangle@PxMeshQuery@physx@@SAXABVPxHeightFieldGeometry@2@ABVPxTransform@2@IAAVPxTriangle@2@PAI3@Z 100f0170 f   GuMeshQuery.obj
 0001:000ef1e0       ?findOverlapTriangleMesh@PxMeshQuery@physx@@SAIABVPxGeometry@2@ABVPxTransform@2@ABVPxTriangleMeshGeometry@2@1PAIIIAA_N@Z 100f01e0 f   GuMeshQuery.obj
 0001:000ef4c0       ?findOverlapHeightField@PxMeshQuery@physx@@SAIABVPxGeometry@2@ABVPxTransform@2@ABVPxHeightFieldGeometry@2@1PAIIIAA_N@Z 100f04c0 f   GuMeshQuery.obj
 0001:000efad0       ?sweep@PxMeshQuery@physx@@SA_NABVPxVec3@2@MABVPxGeometry@2@ABVPxTransform@2@IPBVPxTriangle@2@AAUPxSweepHit@2@V?$PxFlags@W4Enum@PxHitFlag@physx@@G@2@PBIM_N@Z 100f0ad0 f   GuMeshQuery.obj
 0001:000efe90       ?raycast_triangleMesh_RTREE@Gu@physx@@YAIPBVTriangleMesh@12@ABVPxTriangleMeshGeometry@2@ABVPxTransform@2@ABVPxVec3@2@3MV?$PxFlags@W4Enum@PxHitFlag@physx@@G@2@IPIAUPxRaycastHit@2@@Z 100f0e90 f   GuMidphaseRTree.obj
 0001:000f0720       ?intersectSphereVsMesh_RTREE@Gu@physx@@YA_NABVSphere@12@ABVTriangleMesh@12@ABVPxTransform@2@ABVPxMeshScale@2@PAULimitedResults@12@@Z 100f1720 f   GuMidphaseRTree.obj
 0001:000f0750       ?intersectBoxVsMesh_RTREE@Gu@physx@@YA_NABVBox@12@ABVTriangleMesh@12@ABVPxTransform@2@ABVPxMeshScale@2@PAULimitedResults@12@@Z 100f1750 f   GuMidphaseRTree.obj
 0001:000f07d0       ?intersectCapsuleVsMesh_RTREE@Gu@physx@@YA_NABVCapsule@12@ABVTriangleMesh@12@ABVPxTransform@2@ABVPxMeshScale@2@PAULimitedResults@12@@Z 100f17d0 f   GuMidphaseRTree.obj
 0001:000f0850       ?intersectOBB_RTREE@Gu@physx@@YAXPBVTriangleMesh@12@ABVBox@12@AAU?$MeshHitCallback@UPxRaycastHit@physx@@@12@_N3@Z 100f1850 f   GuMidphaseRTree.obj
 0001:000f0870       ?sweepCapsule_MeshGeom_RTREE@Gu@physx@@YA_NPBVTriangleMesh@12@ABVPxTriangleMeshGeometry@2@ABVPxTransform@2@ABVCapsule@12@ABVPxVec3@2@MAAUPxSweepHit@2@V?$PxFlags@W4Enum@PxHitFlag@physx@@G@2@M@Z 100f1870 f   GuMidphaseRTree.obj
 0001:000f11a0       ?sweepBox_MeshGeom_RTREE@Gu@physx@@YA_NPBVTriangleMesh@12@ABVPxTriangleMeshGeometry@2@ABVPxTransform@2@ABVBox@12@ABVPxVec3@2@MAAUPxSweepHit@2@V?$PxFlags@W4Enum@PxHitFlag@physx@@G@2@M@Z 100f21a0 f   GuMidphaseRTree.obj
 0001:000f2c00       ?sweepConvex_MeshGeom_RTREE@Gu@physx@@YAXPBVTriangleMesh@12@ABVBox@12@ABVPxVec3@2@MAAUSweepConvexMeshHitCallback@12@_N@Z 100f3c00 f   GuMidphaseRTree.obj
 0001:000f2c50       ?collideOBB@MeshRayCollider@@SAXABVBox@Gu@physx@@_NPBVRTreeTriangleMesh@34@AAU?$MeshHitCallback@UPxRaycastHit@physx@@@34@1@Z 100f3c50 f   GuMidphaseRTree.obj
 0001:000f2e80       ??$collide@$00$00@MeshRayCollider@@SAXABVPxVec3@physx@@0M_NPBVRTreeTriangleMesh@Gu@2@AAU?$MeshHitCallback@UPxRaycastHit@physx@@@42@PBV12@@Z 100f3e80 f i GuMidphaseRTree.obj
 0001:000f30f0       ??$collide@$00$0A@@MeshRayCollider@@SAXABVPxVec3@physx@@0M_NPBVRTreeTriangleMesh@Gu@2@AAU?$MeshHitCallback@UPxRaycastHit@physx@@@42@PBV12@@Z 100f40f0 f i GuMidphaseRTree.obj
 0001:000f3250       ??$collide@$0A@$00@MeshRayCollider@@SAXABVPxVec3@physx@@0M_NPBVRTreeTriangleMesh@Gu@2@AAU?$MeshHitCallback@UPxRaycastHit@physx@@@42@PBV12@@Z 100f4250 f i GuMidphaseRTree.obj
 0001:000f3470       ??$collide@$0A@$0A@@MeshRayCollider@@SAXABVPxVec3@physx@@0M_NPBVRTreeTriangleMesh@Gu@2@AAU?$MeshHitCallback@UPxRaycastHit@physx@@@42@PBV12@@Z 100f4470 f i GuMidphaseRTree.obj
 0001:000f5c60       ??0?$RayRTreeCallback@$00$0A@@@QAE@MAAU?$MeshHitCallback@UPxRaycastHit@physx@@@Gu@physx@@HPBXPBVPxVec3@3@ABV43@3M_N2@Z 100f6c60 f i GuMidphaseRTree.obj
 0001:000f5d90       ??0?$RayRTreeCallback@$0A@$0A@@@QAE@MAAU?$MeshHitCallback@UPxRaycastHit@physx@@@Gu@physx@@HPBXPBVPxVec3@3@ABV43@3M_N2@Z 100f6d90 f i GuMidphaseRTree.obj
 0001:000f5f00       ??1?$RayRTreeCallback@$00$00@@UAE@XZ 100f6f00 f i GuMidphaseRTree.obj
 0001:000f5f60       ??1?$RayRTreeCallback@$00$0A@@@UAE@XZ 100f6f60 f i GuMidphaseRTree.obj
 0001:000f5fc0       ??1?$RayRTreeCallback@$0A@$00@@UAE@XZ 100f6fc0 f i GuMidphaseRTree.obj
 0001:000f6020       ??1?$RayRTreeCallback@$0A@$0A@@@UAE@XZ 100f7020 f i GuMidphaseRTree.obj
 0001:000f6080       ??1Callback@RTree@Gu@physx@@UAE@XZ 100f7080 f i GuMidphaseRTree.obj
 0001:000f6090       ??1CallbackRaycast@RTree@Gu@physx@@UAE@XZ 100f7090 f i GuMidphaseRTree.obj
 0001:000f60b0       ??4PxRaycastHit@physx@@QAEAAU01@ABU01@@Z 100f70b0 f i GuMidphaseRTree.obj
 0001:000f6117       ??_E?$RayRTreeCallback@$00$00@@W3AEPAXI@Z 100f7117 f i GuMidphaseRTree.obj
 0001:000f611f       ??_E?$RayRTreeCallback@$00$0A@@@W3AEPAXI@Z 100f711f f i GuMidphaseRTree.obj
 0001:000f6127       ??_E?$RayRTreeCallback@$0A@$00@@W3AEPAXI@Z 100f7127 f i GuMidphaseRTree.obj
 0001:000f612f       ??_E?$RayRTreeCallback@$0A@$0A@@@W3AEPAXI@Z 100f712f f i GuMidphaseRTree.obj
 0001:000f6260       ??_G?$RayRTreeCallback@$00$00@@UAEPAXI@Z 100f7260 f i GuMidphaseRTree.obj
 0001:000f6260       ??_E?$RayRTreeCallback@$00$00@@UAEPAXI@Z 100f7260 f i GuMidphaseRTree.obj
 0001:000f62d0       ??_E?$RayRTreeCallback@$00$0A@@@UAEPAXI@Z 100f72d0 f i GuMidphaseRTree.obj
 0001:000f62d0       ??_G?$RayRTreeCallback@$00$0A@@@UAEPAXI@Z 100f72d0 f i GuMidphaseRTree.obj
 0001:000f6340       ??_E?$RayRTreeCallback@$0A@$00@@UAEPAXI@Z 100f7340 f i GuMidphaseRTree.obj
 0001:000f6340       ??_G?$RayRTreeCallback@$0A@$00@@UAEPAXI@Z 100f7340 f i GuMidphaseRTree.obj
 0001:000f63b0       ??_G?$RayRTreeCallback@$0A@$0A@@@UAEPAXI@Z 100f73b0 f i GuMidphaseRTree.obj
 0001:000f63b0       ??_E?$RayRTreeCallback@$0A@$0A@@@UAEPAXI@Z 100f73b0 f i GuMidphaseRTree.obj
 0001:000f6420       ??_ECallback@RTree@Gu@physx@@UAEPAXI@Z 100f7420 f i GuMidphaseRTree.obj
 0001:000f6420       ??_GCallback@RTree@Gu@physx@@UAEPAXI@Z 100f7420 f i GuMidphaseRTree.obj
 0001:000f6450       ??_GCallbackRaycast@RTree@Gu@physx@@UAEPAXI@Z 100f7450 f i GuMidphaseRTree.obj
 0001:000f6450       ??_ECallbackRaycast@RTree@Gu@physx@@UAEPAXI@Z 100f7450 f i GuMidphaseRTree.obj
 0001:000f64b0       ??_ERayMeshColliderCallback@@UAEPAXI@Z 100f74b0 f i GuMidphaseRTree.obj
 0001:000f64b0       ??_GRayMeshColliderCallback@@UAEPAXI@Z 100f74b0 f i GuMidphaseRTree.obj
 0001:000f73a0       ?processHit@RayMeshColliderCallback@@UAE_NABUPxRaycastHit@physx@@ABVPxVec3@3@11AAMPBI@Z 100f83a0 f i GuMidphaseRTree.obj
 0001:000f7ab0       ?processResults@?$RayRTreeCallback@$00$00@@UAE_NIPAI@Z 100f8ab0 f i GuMidphaseRTree.obj
 0001:000f7ea0       ?processResults@?$RayRTreeCallback@$00$00@@UAE_NIPAIAAM@Z 100f8ea0 f i GuMidphaseRTree.obj
 0001:000f8270       ?processResults@?$RayRTreeCallback@$00$0A@@@UAE_NIPAI@Z 100f9270 f i GuMidphaseRTree.obj
 0001:000f85a0       ?processResults@?$RayRTreeCallback@$00$0A@@@UAE_NIPAIAAM@Z 100f95a0 f i GuMidphaseRTree.obj
 0001:000f88b0       ?processResults@?$RayRTreeCallback@$0A@$00@@UAE_NIPAI@Z 100f98b0 f i GuMidphaseRTree.obj
 0001:000f8fe0       ?processResults@?$RayRTreeCallback@$0A@$00@@UAE_NIPAIAAM@Z 100f9fe0 f i GuMidphaseRTree.obj
 0001:000f96f0       ?processResults@?$RayRTreeCallback@$0A@$0A@@@UAE_NIPAI@Z 100fa6f0 f i GuMidphaseRTree.obj
 0001:000f9a20       ?processResults@?$RayRTreeCallback@$0A@$0A@@@UAE_NIPAIAAM@Z 100faa20 f i GuMidphaseRTree.obj
 0001:000f9d30       ?profile@Callback@RTree@Gu@physx@@UAEXXZ 100fad30 f i GuMidphaseRTree.obj
 0001:000f9d40       ?checkOverlapAABB_triangleGeom@Gu@physx@@YA_NABVPxGeometry@2@ABVPxTransform@2@ABVPxBounds3@2@@Z 100fad40 f   GuOverlapTestsMesh.obj
 0001:000f9e10       ?GeomOverlapCallback_SphereMesh@@YA_NABVPxGeometry@physx@@ABVPxTransform@2@01PAUTriggerCache@Gu@2@@Z 100fae10 f   GuOverlapTestsMesh.obj
 0001:000f9e80       ?GeomOverlapCallback_CapsuleMesh@@YA_NABVPxGeometry@physx@@ABVPxTransform@2@01PAUTriggerCache@Gu@2@@Z 100fae80 f   GuOverlapTestsMesh.obj
 0001:000f9f80       ?GeomOverlapCallback_BoxMesh@@YA_NABVPxGeometry@physx@@ABVPxTransform@2@01PAUTriggerCache@Gu@2@@Z 100faf80 f   GuOverlapTestsMesh.obj
 0001:000fa080       ?GeomOverlapCallback_ConvexMesh@@YA_NABVPxGeometry@physx@@ABVPxTransform@2@01PAUTriggerCache@Gu@2@@Z 100fb080 f   GuOverlapTestsMesh.obj
 0001:000fa680       ??$gjk@U?$RelativeConvex@VTriangleV@Gu@physx@@@Gu@physx@@U?$LocalConvex@VConvexHullV@Gu@physx@@@23@@Gu@physx@@YA?AW4GjkStatus@01@ABU?$RelativeConvex@VTriangleV@Gu@physx@@@01@ABU?$LocalConvex@VConvexHullV@Gu@physx@@@01@ABT__m128@@2AAT5@333@Z 100fb680 f i GuOverlapTestsMesh.obj
 0001:000fb770       ??0ConvexVsMeshOverlapCallback@@QAE@ABVConvexMesh@Gu@physx@@ABVPxMeshScale@3@ABVFastVertex2ShapeScaling@Cm@3@ABVPxTransform@3@3_NABVBox@23@@Z 100fc770 f i GuOverlapTestsMesh.obj
 0001:000fc190       ??1ConvexVsMeshOverlapCallback@@UAE@XZ 100fd190 f i GuOverlapTestsMesh.obj
 0001:000fc1a0       ??_EConvexVsMeshOverlapCallback@@UAEPAXI@Z 100fd1a0 f i GuOverlapTestsMesh.obj
 0001:000fc1a0       ??_GConvexVsMeshOverlapCallback@@UAEPAXI@Z 100fd1a0 f i GuOverlapTestsMesh.obj
 0001:000fc1d0       ?processHit@ConvexVsMeshOverlapCallback@@UAE_NABUPxRaycastHit@physx@@ABVPxVec3@3@11AAMPBI@Z 100fd1d0 f i GuOverlapTestsMesh.obj
 0001:000fc570       ??0RTree@Gu@physx@@QAE@W4PxEMPTY@2@@Z 100fd570 f   GuRTree.obj
 0001:000fc580       ?exportExtraData@RTree@Gu@physx@@QAEXAAVPxSerializationContext@3@@Z 100fd580 f   GuRTree.obj
 0001:000fc5b0       ?importExtraData@RTree@Gu@physx@@QAEXAAVPxDeserializationContext@3@@Z 100fd5b0 f   GuRTree.obj
 0001:000fc5e0       ?load@RTree@Gu@physx@@QAE_NAAVPxInputStream@3@I_N@Z 100fd5e0 f   GuRTree.obj
 0001:000fc830       ?refitAllStaticTree@RTree@Gu@physx@@QAEXAAUCallbackRefit@123@PAVPxBounds3@3@@Z 100fd830 f   GuRTree.obj
 0001:000fcb00       ?validate@RTree@Gu@physx@@QAEXPAUCallbackRefit@123@@Z 100fdb00 f   GuRTree.obj
 0001:000fcc00       ?computeBottomLevelCount@RTree@Gu@physx@@QBEII@Z 100fdc00 f   GuRTree.obj
 0001:000fcca0       ?validateRecursive@RTree@Gu@physx@@IAEXIURTreeNodeQ@23@PAURTreePage@23@PAUCallbackRefit@123@@Z 100fdca0 f   GuRTree.obj
 0001:000fcdc0       ?traverseAABB@RTree@Gu@physx@@QBEXABVPxVec3@3@0IPAIPAUCallback@123@@Z 100fddc0 f   GuRTreeQueries.obj
 0001:000fcf80       ?traverseOBB@RTree@Gu@physx@@QBEXABVBox@23@IPAIPAUCallback@123@@Z 100fdf80 f   GuRTreeQueries.obj
 0001:000fd950       ??$traverseRay@$00@RTree@Gu@physx@@QBEXABVPxVec3@2@0IPAIPAUCallbackRaycast@012@PBV32@M@Z 100fe950 f i GuRTreeQueries.obj
 0001:000fdc90       ??$traverseRay@$0A@@RTree@Gu@physx@@QBEXABVPxVec3@2@0IPAIPAUCallbackRaycast@012@PBV32@M@Z 100fec90 f i GuRTreeQueries.obj
 0001:000fdf70       ??0SweepShapeMeshHitCallback@Gu@physx@@QAE@W4Enum@CallbackMode@12@ABV?$PxFlags@W4Enum@PxHitFlag@physx@@G@2@_NM@Z 100fef70 f   GuSweepsMesh.obj
 0001:000fdfb0       ??0SweepCapsuleMeshHitCallback@Gu@physx@@QAE@AAUPxSweepHit@2@ABVMatrix34@Cm@2@M_NABVCapsule@12@ABVPxVec3@2@ABV?$PxFlags@W4Enum@PxHitFlag@physx@@G@2@2M@Z 100fefb0 f   GuSweepsMesh.obj
 0001:000fe080       ?processHit@SweepCapsuleMeshHitCallback@Gu@physx@@UAE_NABUPxRaycastHit@3@ABVPxVec3@3@11AAMPBI@Z 100ff080 f   GuSweepsMesh.obj
 0001:000fe5e0       ?finalizeHit@SweepCapsuleMeshHitCallback@Gu@physx@@QBE_NAAUPxSweepHit@3@ABVCapsule@23@ABVPxTriangleMeshGeometry@3@ABVPxTransform@3@_N@Z 100ff5e0 f   GuSweepsMesh.obj
 0001:000fe7a0       ??0SweepBoxMeshHitCallback@Gu@physx@@QAE@W4Enum@CallbackMode@12@ABVMatrix34Padded@12@M_NABVBox@12@ABVPxVec3@2@44ABV?$PxFlags@W4Enum@PxHitFlag@physx@@G@2@M2M@Z 100ff7a0 f   GuSweepsMesh.obj
 0001:000fe8c0       ?processHit@SweepBoxMeshHitCallback@Gu@physx@@UAE_NABUPxRaycastHit@3@ABVPxVec3@3@11AAMPBI@Z 100ff8c0 f   GuSweepsMesh.obj
 0001:000ff0e0       ?finalizeHit@SweepBoxMeshHitCallback@Gu@physx@@QBE_NAAUPxSweepHit@3@ABVPxTriangleMeshGeometry@3@ABVPxTransform@3@2ABVPxVec3@3@_N4@Z 101000e0 f   GuSweepsMesh.obj
 0001:000ff760       ??0SweepConvexMeshHitCallback@Gu@physx@@QAE@ABUConvexHullData@12@ABVPxMeshScale@2@ABVFastVertex2ShapeScaling@Cm@2@ABVPxTransform@2@3ABVPxVec3@2@MV?$PxFlags@W4Enum@PxHitFlag@physx@@G@2@_NM6M@Z 10100760 f   GuSweepsMesh.obj
 0001:00100130       ?processHit@SweepConvexMeshHitCallback@Gu@physx@@UAE_NABUPxRaycastHit@3@ABVPxVec3@3@11AAMPBI@Z 10101130 f   GuSweepsMesh.obj
 0001:001008e0       ?finalizeHit@SweepConvexMeshHitCallback@Gu@physx@@QAE_NAAUPxSweepHit@3@ABVPxTriangleMeshGeometry@3@ABVPxTransform@3@ABVPxConvexMeshGeometry@3@2ABVPxVec3@3@M_N555@Z 101018e0 f   GuSweepsMesh.obj
 0001:00100d30       ?sweepCapsule_MeshGeom@@YA_NABVPxGeometry@physx@@ABVPxTransform@2@ABVPxCapsuleGeometry@2@1ABVCapsule@Gu@2@ABVPxVec3@2@MAAUPxSweepHit@2@V?$PxFlags@W4Enum@PxHitFlag@physx@@G@2@M@Z 10101d30 f   GuSweepsMesh.obj
 0001:00100d90       ?sweepBox_MeshGeom@@YA_NABVPxGeometry@physx@@ABVPxTransform@2@ABVPxBoxGeometry@2@1ABVBox@Gu@2@ABVPxVec3@2@MAAUPxSweepHit@2@V?$PxFlags@W4Enum@PxHitFlag@physx@@G@2@M@Z 10101d90 f   GuSweepsMesh.obj
 0001:00100df0       ?sweepConvex_MeshGeom@@YA_NABVPxGeometry@physx@@ABVPxTransform@2@ABVPxConvexMeshGeometry@2@1ABVPxVec3@2@MAAUPxSweepHit@2@V?$PxFlags@W4Enum@PxHitFlag@physx@@G@2@M@Z 10101df0 f   GuSweepsMesh.obj
 0001:00101790       ??1SweepConvexMeshHitCallback@Gu@physx@@UAE@XZ 10102790 f i GuSweepsMesh.obj
 0001:001017a0       ??_ESweepBoxMeshHitCallback@Gu@physx@@UAEPAXI@Z 101027a0 f i GuSweepsMesh.obj
 0001:001017a0       ??_GSweepBoxMeshHitCallback@Gu@physx@@UAEPAXI@Z 101027a0 f i GuSweepsMesh.obj
 0001:001017d0       ??_GSweepCapsuleMeshHitCallback@Gu@physx@@UAEPAXI@Z 101027d0 f i GuSweepsMesh.obj
 0001:001017d0       ??_ESweepCapsuleMeshHitCallback@Gu@physx@@UAEPAXI@Z 101027d0 f i GuSweepsMesh.obj
 0001:00101800       ??_GSweepConvexMeshHitCallback@Gu@physx@@UAEPAXI@Z 10102800 f i GuSweepsMesh.obj
 0001:00101800       ??_ESweepConvexMeshHitCallback@Gu@physx@@UAEPAXI@Z 10102800 f i GuSweepsMesh.obj
 0001:00101830       ??_ESweepShapeMeshHitCallback@Gu@physx@@UAEPAXI@Z 10102830 f i GuSweepsMesh.obj
 0001:00101830       ??_GSweepShapeMeshHitCallback@Gu@physx@@UAEPAXI@Z 10102830 f i GuSweepsMesh.obj
 0001:00101ad0       ?exportExtraData@TriangleMesh@Gu@physx@@UAEXAAVPxSerializationContext@3@@Z 10102ad0 f   GuTriangleMesh.obj
 0001:00101bc0       ?importExtraData@TriangleMesh@Gu@physx@@QAEXAAVPxDeserializationContext@3@@Z 10102bc0 f   GuTriangleMesh.obj
 0001:00101ca0       ?release@TriangleMesh@Gu@physx@@UAEXXZ 10102ca0 f   GuTriangleMesh.obj
 0001:00101cc0       ?onRefCountZero@TriangleMesh@Gu@physx@@UAEXXZ 10102cc0 f   GuTriangleMesh.obj
 0001:00101d30       ??0TriangleMesh@Gu@physx@@QAE@AAVGuMeshFactory@2@AAVTriangleMeshData@12@@Z 10102d30 f   GuTriangleMesh.obj
 0001:00101ea0       ??1TriangleMesh@Gu@physx@@UAE@XZ 10102ea0 f   GuTriangleMesh.obj
 0001:00101fe0       ?getVerticesForModification@TriangleMesh@Gu@physx@@UAEPAVPxVec3@3@XZ 10102fe0 f   GuTriangleMesh.obj
 0001:00102010       ?refitBVH@TriangleMesh@Gu@physx@@UAE?AVPxBounds3@3@XZ 10103010 f   GuTriangleMesh.obj
 0001:001020a0       ??1PxTriangleMesh@physx@@MAE@XZ 101030a0 f i GuTriangleMesh.obj
 0001:001020a7       ??_ETriangleMesh@Gu@physx@@W7AEPAXI@Z 101030a7 f i GuTriangleMesh.obj
 0001:001020b0       ??_EPxTriangleMesh@physx@@MAEPAXI@Z 101030b0 f i GuTriangleMesh.obj
 0001:001020b0       ??_GPxTriangleMesh@physx@@MAEPAXI@Z 101030b0 f i GuTriangleMesh.obj
 0001:001020e0       ??_GTriangleMesh@Gu@physx@@UAEPAXI@Z 101030e0 f i GuTriangleMesh.obj
 0001:001020e0       ??_ETriangleMesh@Gu@physx@@UAEPAXI@Z 101030e0 f i GuTriangleMesh.obj
 0001:00102120       ?acquireReference@TriangleMesh@Gu@physx@@UAEXXZ 10103120 f i GuTriangleMesh.obj
 0001:00102130       ?getLocalBounds@TriangleMesh@Gu@physx@@UBE?AVPxBounds3@3@XZ 10103130 f i GuTriangleMesh.obj
 0001:00102190       ?getNbTriangles@TriangleMesh@Gu@physx@@UBEIXZ 10103190 f i GuTriangleMesh.obj
 0001:001021a0       ?getNbVertices@TriangleMesh@Gu@physx@@UBEIXZ 101031a0 f i GuTriangleMesh.obj
 0001:001021b0       ?getReferenceCount@TriangleMesh@Gu@physx@@UBEIXZ 101031b0 f i GuTriangleMesh.obj
 0001:001021c0       ?getTriangleMaterialIndex@TriangleMesh@Gu@physx@@UBEGI@Z 101031c0 f i GuTriangleMesh.obj
 0001:001021e0       ?getTriangleMeshFlags@TriangleMesh@Gu@physx@@UBE?AV?$PxFlags@W4Enum@PxTriangleMeshFlag@physx@@E@3@XZ 101031e0 f i GuTriangleMesh.obj
 0001:001021f0       ?getTriangles@TriangleMesh@Gu@physx@@UBEPBXXZ 101031f0 f i GuTriangleMesh.obj
 0001:00102200       ?getTrianglesRemap@TriangleMesh@Gu@physx@@UBEPBIXZ 10103200 f i GuTriangleMesh.obj
 0001:00102210       ?getVertices@TriangleMesh@Gu@physx@@UBEPBVPxVec3@3@XZ 10103210 f i GuTriangleMesh.obj
 0001:00102220       ?isKindOf@PxTriangleMesh@physx@@MBE_NPBD@Z 10103220 f i GuTriangleMesh.obj
 0001:001022a0       ?requiresObjects@TriangleMesh@Gu@physx@@UAEXAAVPxProcessPxBaseCallback@3@@Z 101032a0 f i GuTriangleMesh.obj
 0001:001022b0       ?exportExtraData@BV4TriangleMesh@Gu@physx@@UAEXAAVPxSerializationContext@3@@Z 101032b0 f   GuTriangleMeshBV4.obj
 0001:001022d0       ?importExtraData@BV4TriangleMesh@Gu@physx@@QAEXAAVPxDeserializationContext@3@@Z 101032d0 f   GuTriangleMeshBV4.obj
 0001:00102320       ?createObject@BV4TriangleMesh@Gu@physx@@SAPAVTriangleMesh@23@AAPAEAAVPxDeserializationContext@3@@Z 10103320 f   GuTriangleMeshBV4.obj
 0001:001023c0       ??0BV4TriangleMesh@Gu@physx@@QAE@AAVGuMeshFactory@2@AAVTriangleMeshData@12@@Z 101033c0 f   GuTriangleMeshBV4.obj
 0001:00102420       ??1BV4TriangleMesh@Gu@physx@@UAE@XZ 10103420 f i GuTriangleMeshBV4.obj
 0001:00102448       ??_EBV4TriangleMesh@Gu@physx@@W7AEPAXI@Z 10103448 f i GuTriangleMeshBV4.obj
 0001:00102450       ??_EBV4TriangleMesh@Gu@physx@@UAEPAXI@Z 10103450 f i GuTriangleMeshBV4.obj
 0001:00102450       ??_GBV4TriangleMesh@Gu@physx@@UAEPAXI@Z 10103450 f i GuTriangleMeshBV4.obj
 0001:001024b0       ?getConcreteTypeName@BV4TriangleMesh@Gu@physx@@UBEPBDXZ 101034b0 f i GuTriangleMeshBV4.obj
 0001:001024c0       ?getMidphaseID@BV4TriangleMesh@Gu@physx@@UBE?AW4Enum@PxMeshMidPhase@3@XZ 101034c0 f i GuTriangleMeshBV4.obj
 0001:001024d0       ?exportExtraData@RTreeTriangleMesh@Gu@physx@@UAEXAAVPxSerializationContext@3@@Z 101034d0 f   GuTriangleMeshRTree.obj
 0001:001024f0       ?importExtraData@RTreeTriangleMesh@Gu@physx@@QAEXAAVPxDeserializationContext@3@@Z 101034f0 f   GuTriangleMeshRTree.obj
 0001:00102510       ?createObject@RTreeTriangleMesh@Gu@physx@@SAPAVTriangleMesh@23@AAPAEAAVPxDeserializationContext@3@@Z 10103510 f   GuTriangleMeshRTree.obj
 0001:00102570       ??0RTreeTriangleMesh@Gu@physx@@QAE@AAVGuMeshFactory@2@AAVTriangleMeshData@12@@Z 10103570 f   GuTriangleMeshRTree.obj
 0001:001026d0       ?getVerticesForModification@RTreeTriangleMesh@Gu@physx@@UAEPAVPxVec3@3@XZ 101036d0 f   GuTriangleMeshRTree.obj
 0001:001026e0       ?refitBVH@RTreeTriangleMesh@Gu@physx@@UAE?AVPxBounds3@3@XZ 101036e0 f   GuTriangleMeshRTree.obj
 0001:00102860       ??1CallbackRefit@RTree@Gu@physx@@UAE@XZ 10103860 f i GuTriangleMeshRTree.obj
 0001:00102870       ??1RTreeTriangleMesh@Gu@physx@@UAE@XZ 10103870 f i GuTriangleMeshRTree.obj
 0001:001028ba       ??_ERTreeTriangleMesh@Gu@physx@@W7AEPAXI@Z 101038ba f i GuTriangleMeshRTree.obj
 0001:001028d0       ??_G?$RefitCallback@G@physx@@UAEPAXI@Z 101038d0 f i GuTriangleMeshRTree.obj
 0001:001028d0       ??_E?$RefitCallback@G@physx@@UAEPAXI@Z 101038d0 f i GuTriangleMeshRTree.obj
 0001:00102900       ??_E?$RefitCallback@I@physx@@UAEPAXI@Z 10103900 f i GuTriangleMeshRTree.obj
 0001:00102900       ??_G?$RefitCallback@I@physx@@UAEPAXI@Z 10103900 f i GuTriangleMeshRTree.obj
 0001:00102930       ??_GCallbackRefit@RTree@Gu@physx@@UAEPAXI@Z 10103930 f i GuTriangleMeshRTree.obj
 0001:00102930       ??_ECallbackRefit@RTree@Gu@physx@@UAEPAXI@Z 10103930 f i GuTriangleMeshRTree.obj
 0001:00102960       ??_ERTreeTriangleMesh@Gu@physx@@UAEPAXI@Z 10103960 f i GuTriangleMeshRTree.obj
 0001:00102960       ??_GRTreeTriangleMesh@Gu@physx@@UAEPAXI@Z 10103960 f i GuTriangleMeshRTree.obj
 0001:001029e0       ?getConcreteTypeName@RTreeTriangleMesh@Gu@physx@@UBEPBDXZ 101039e0 f i GuTriangleMeshRTree.obj
 0001:001029f0       ?getMidphaseID@RTreeTriangleMesh@Gu@physx@@UBE?AW4Enum@PxMeshMidPhase@3@XZ 101039f0 f i GuTriangleMeshRTree.obj
 0001:00102a00       ?recomputeBounds@?$RefitCallback@G@physx@@UAEXIAAT__m128@@0@Z 10103a00 f i GuTriangleMeshRTree.obj
 0001:00102b50       ?recomputeBounds@?$RefitCallback@I@physx@@UAEXIAAT__m128@@0@Z 10103b50 f i GuTriangleMeshRTree.obj
 0001:00102c90       ??0BV32Tree@Gu@physx@@QAE@W4PxEMPTY@2@@Z 10103c90 f   GuBV32.obj
 0001:00102cc0       ?exportExtraData@BV32Tree@Gu@physx@@QAEXAAVPxSerializationContext@3@@Z 10103cc0 f   GuBV32.obj
 0001:00102cf0       ?importExtraData@BV32Tree@Gu@physx@@QAEXAAVPxDeserializationContext@3@@Z 10103cf0 f   GuBV32.obj
 0001:00102d20       ??0BV32Tree@Gu@physx@@QAE@XZ 10103d20 f   GuBV32.obj
 0001:00102d70       ??0BV32Tree@Gu@physx@@QAE@PAVSourceMesh@12@ABVPxBounds3@2@@Z 10103d70 f   GuBV32.obj
 0001:00102e50       ??1BV32Tree@Gu@physx@@QAE@XZ 10103e50 f   GuBV32.obj
 0001:00102eb0       ?load@BV32Tree@Gu@physx@@QAE_NAAVPxInputStream@3@_N@Z 10103eb0 f   GuBV32.obj
 0001:001030c0       ?calculateLeafNode@BV32Tree@Gu@physx@@QAEXAAUBV32Data@23@@Z 101040c0 f   GuBV32.obj
 0001:00103250       ?createSOAformatNode@BV32Tree@Gu@physx@@QAEXAAUBV32DataPacked@23@ABUBV32Data@23@IAAI2@Z 10104250 f   GuBV32.obj
 0001:00103440       ?reset@BV32Tree@Gu@physx@@QAEXXZ 10104440 f   GuBV32.obj
 0001:00103470       ??4BV32Tree@Gu@physx@@QAEXAAV012@@Z 10104470 f   GuBV32.obj
 0001:001034e0       ?init@BV32Tree@Gu@physx@@QAE_NPAVSourceMesh@23@ABVPxBounds3@3@@Z 101044e0 f   GuBV32.obj
 0001:00103580       ?release@BV32Tree@Gu@physx@@QAEXXZ 10104580 f   GuBV32.obj
 0001:001035e0       ?BuildBV32Ex@Gu@physx@@YA_NAAVBV32Tree@12@AAVSourceMesh@12@MI@Z 101045e0 f   GuBV32Build.obj
 0001:00103760       ??0BV32Data@Gu@physx@@QAE@XZ 10104760 f i GuBV32Build.obj
 0001:001037a0       ??0BV32Node@@QAE@XZ        101047a0 f i GuBV32Build.obj
 0001:00104290       ?pcmContactBoxBox@Gu@physx@@YA_NABVGeometryUnion@12@0ABVPxTransform@2@1ABUNarrowPhaseParams@12@AAUCache@12@AAVContactBuffer@12@PAVRenderOutput@Cm@2@@Z 10105290 f   GuPCMContactBoxBox.obj
 0001:00107dc0       ?pcmContactBoxConvex@Gu@physx@@YA_NABVGeometryUnion@12@0ABVPxTransform@2@1ABUNarrowPhaseParams@12@AAUCache@12@AAVContactBuffer@12@PAVRenderOutput@Cm@2@@Z 10108dc0 f   GuPCMContactBoxConvex.obj
 0001:00108d10       ??$gjkPenetration@U?$RelativeConvex@VBoxV@Gu@physx@@@Gu@physx@@U?$LocalConvex@VConvexHullNoScaleV@Gu@physx@@@23@@Gu@physx@@YA?AW4GjkStatus@01@ABU?$RelativeConvex@VBoxV@Gu@physx@@@01@ABU?$LocalConvex@VConvexHullNoScaleV@Gu@physx@@@01@ABT__m128@@2_NPIAE4AAEAAUGjkOutput@01@@Z 10109d10 f i GuPCMContactBoxConvex.obj
 0001:0010a610       ??_G?$LocalConvex@VConvexHullNoScaleV@Gu@physx@@@Gu@physx@@UAEPAXI@Z 1010b610 f i GuPCMContactBoxConvex.obj
 0001:0010a610       ??_E?$LocalConvex@VConvexHullNoScaleV@Gu@physx@@@Gu@physx@@UAEPAXI@Z 1010b610 f i GuPCMContactBoxConvex.obj
 0001:0010ab80       ?getCenter@?$LocalConvex@VConvexHullNoScaleV@Gu@physx@@@Gu@physx@@UBE?AT__m128@@XZ 1010bb80 f i GuPCMContactBoxConvex.obj
 0001:0010ab90       ?getSweepMargin@?$LocalConvex@VConvexHullNoScaleV@Gu@physx@@@Gu@physx@@UBE?AT__m128@@XZ 1010bb90 f i GuPCMContactBoxConvex.obj
 0001:0010abb0       ?support@?$LocalConvex@VConvexHullNoScaleV@Gu@physx@@@Gu@physx@@UBE?AT__m128@@ABT4@@Z 1010bbb0 f i GuPCMContactBoxConvex.obj
 0001:0010abe0       ?support@?$LocalConvex@VConvexHullNoScaleV@Gu@physx@@@Gu@physx@@UBE?AT__m128@@ABT4@AAH@Z 1010bbe0 f i GuPCMContactBoxConvex.obj
 0001:0010ac20       ?supportPoint@?$LocalConvex@VConvexHullNoScaleV@Gu@physx@@@Gu@physx@@UBE?AT__m128@@H@Z 1010bc20 f i GuPCMContactBoxConvex.obj
 0001:0010ac50       ?pcmContactCapsuleBox@Gu@physx@@YA_NABVGeometryUnion@12@0ABVPxTransform@2@1ABUNarrowPhaseParams@12@AAUCache@12@AAVContactBuffer@12@PAVRenderOutput@Cm@2@@Z 1010bc50 f   GuPCMContactCapsuleBox.obj
 0001:0010bb20       ?pcmContactCapsuleCapsule@Gu@physx@@YA_NABVGeometryUnion@12@0ABVPxTransform@2@1ABUNarrowPhaseParams@12@AAUCache@12@AAVContactBuffer@12@PAVRenderOutput@Cm@2@@Z 1010cb20 f   GuPCMContactCapsuleCapsule.obj
 0001:0010c4a0       ?pcmContactCapsuleConvex@Gu@physx@@YA_NABVGeometryUnion@12@0ABVPxTransform@2@1ABUNarrowPhaseParams@12@AAUCache@12@AAVContactBuffer@12@PAVRenderOutput@Cm@2@@Z 1010d4a0 f   GuPCMContactCapsuleConvex.obj
 0001:0010d480       ??$gjkPenetration@U?$LocalConvex@VCapsuleV@Gu@physx@@@Gu@physx@@U?$LocalConvex@VConvexHullNoScaleV@Gu@physx@@@23@@Gu@physx@@YA?AW4GjkStatus@01@ABU?$LocalConvex@VCapsuleV@Gu@physx@@@01@ABU?$LocalConvex@VConvexHullNoScaleV@Gu@physx@@@01@ABT__m128@@2_NPIAE4AAEAAUGjkOutput@01@@Z 1010e480 f i GuPCMContactCapsuleConvex.obj
 0001:0010efd0       ?pcmContactCapsuleHeightField@Gu@physx@@YA_NABVGeometryUnion@12@0ABVPxTransform@2@1ABUNarrowPhaseParams@12@AAUCache@12@AAVContactBuffer@12@PAVRenderOutput@Cm@2@@Z 1010ffd0 f   GuPCMContactCapsuleHeightField.obj
 0001:0010fea0       ??0PCMContactPatch@Gu@physx@@QAE@XZ 10110ea0 f i GuPCMContactCapsuleHeightField.obj
 0001:0010fed0       ??0PCMMeshContactGeneration@Gu@physx@@QAE@ABT__m128@@0ABVPsTransformV@aos@shdfnd@2@1AAVMultiplePersistentContactManifold@12@AAVContactBuffer@12@PAV?$InlineArray@I$0EEA@V?$ReflectionAllocator@I@shdfnd@physx@@@62@PAVRenderOutput@Cm@2@@Z 10110ed0 f i GuPCMContactCapsuleHeightField.obj
 0001:00110230       ??_G?$PCMHeightfieldContactGenerationCallback@UPCMCapsuleVsHeightfieldContactGenerationCallback@physx@@@Gu@physx@@UAEPAXI@Z 10111230 f i GuPCMContactCapsuleHeightField.obj
 0001:00110230       ??_E?$PCMHeightfieldContactGenerationCallback@UPCMCapsuleVsHeightfieldContactGenerationCallback@physx@@@Gu@physx@@UAEPAXI@Z 10111230 f i GuPCMContactCapsuleHeightField.obj
 0001:00110260       ??_GPCMCapsuleVsHeightfieldContactGenerationCallback@physx@@UAEPAXI@Z 10111260 f i GuPCMContactCapsuleHeightField.obj
 0001:00110260       ??_EPCMCapsuleVsHeightfieldContactGenerationCallback@physx@@UAEPAXI@Z 10111260 f i GuPCMContactCapsuleHeightField.obj
 0001:00110290       ?onEvent@?$PCMHeightfieldContactGenerationCallback@UPCMCapsuleVsHeightfieldContactGenerationCallback@physx@@@Gu@physx@@UAE_NIPAI@Z 10111290 f i GuPCMContactCapsuleHeightField.obj
 0001:00110710       ?pcmContactCapsuleMesh@Gu@physx@@YA_NABVGeometryUnion@12@0ABVPxTransform@2@1ABUNarrowPhaseParams@12@AAUCache@12@AAVContactBuffer@12@PAVRenderOutput@Cm@2@@Z 10111710 f   GuPCMContactCapsuleMesh.obj
 0001:00111670       ??$processTriangleCache@$0BA@@PCMCapsuleVsMeshContactGenerationCallback@physx@@QAEXAAU?$TriangleCache@$0BA@@Gu@1@@Z 10112670 f i GuPCMContactCapsuleMesh.obj
 0001:001116e0       ??_E?$PCMMeshContactGenerationCallback@UPCMCapsuleVsMeshContactGenerationCallback@physx@@@Gu@physx@@UAEPAXI@Z 101126e0 f i GuPCMContactCapsuleMesh.obj
 0001:001116e0       ??_G?$PCMMeshContactGenerationCallback@UPCMCapsuleVsMeshContactGenerationCallback@physx@@@Gu@physx@@UAEPAXI@Z 101126e0 f i GuPCMContactCapsuleMesh.obj
 0001:00111710       ??_EPCMCapsuleVsMeshContactGenerationCallback@physx@@UAEPAXI@Z 10112710 f i GuPCMContactCapsuleMesh.obj
 0001:00111710       ??_GPCMCapsuleVsMeshContactGenerationCallback@physx@@UAEPAXI@Z 10112710 f i GuPCMContactCapsuleMesh.obj
 0001:00111740       ?processHit@?$PCMMeshContactGenerationCallback@UPCMCapsuleVsMeshContactGenerationCallback@physx@@@Gu@physx@@UAE_NABUPxRaycastHit@3@ABVPxVec3@3@11AAMPBI@Z 10112740 f i GuPCMContactCapsuleMesh.obj
 0001:00111ad0       ?generateLastContacts@PCMConvexVsMeshContactGeneration@Gu@physx@@QAEXXZ 10112ad0 f   GuPCMContactConvexCommon.obj
 0001:00111f60       ?addContactsToPatch@PCMConvexVsMeshContactGeneration@Gu@physx@@QAEXABT__m128@@I@Z 10112f60 f   GuPCMContactConvexCommon.obj
 0001:00112730       ?processTriangle@PCMConvexVsMeshContactGeneration@Gu@physx@@QAE_NPBVPxVec3@3@IEPBI@Z 10113730 f   GuPCMContactConvexCommon.obj
 0001:00112b10       ?processTriangle@PCMConvexVsMeshContactGeneration@Gu@physx@@SA_NABUPolygonalData@23@PAVSupportLocal@23@PBVPxVec3@3@IEABT__m128@@_NABVPsTransformV@aos@shdfnd@3@ABVPsMatTransformV@9shdfnd@3@PAVMeshPersistentContact@23@AAI@Z 10113b10 f   GuPCMContactConvexCommon.obj
 0001:00112da0       ?processTriangle@PCMSphereVsMeshContactGeneration@Gu@physx@@QAE_NPBVPxVec3@3@IEPBI@Z 10113da0 f   GuPCMContactConvexCommon.obj
 0001:00113170       ?generateLastContacts@PCMSphereVsMeshContactGeneration@Gu@physx@@QAEXXZ 10114170 f   GuPCMContactConvexCommon.obj
 0001:00113590       ?addToPatch@PCMSphereVsMeshContactGeneration@Gu@physx@@QAEXABT__m128@@0T4@I@Z 10114590 f   GuPCMContactConvexCommon.obj
 0001:00113a70       ?generateEEContacts@PCMCapsuleVsMeshContactGeneration@Gu@physx@@QAEXABT__m128@@000I000PAVMeshPersistentContact@23@AAI@Z 10114a70 f   GuPCMContactConvexCommon.obj
 0001:00113b00       ?generateEE@PCMCapsuleVsMeshContactGeneration@Gu@physx@@QAEXABT__m128@@000I00PAVMeshPersistentContact@23@AAI@Z 10114b00 f   GuPCMContactConvexCommon.obj
 0001:00113d30       ?generateContacts@PCMCapsuleVsMeshContactGeneration@Gu@physx@@SA_NABT__m128@@0000I000PAVMeshPersistentContact@23@AAI@Z 10114d30 f   GuPCMContactConvexCommon.obj
 0001:001141c0       ?generateEEContactsMTD@PCMCapsuleVsMeshContactGeneration@Gu@physx@@SAXABT__m128@@000I000PAVMeshPersistentContact@23@AAI@Z 101151c0 f   GuPCMContactConvexCommon.obj
 0001:00114240       ?generateEEMTD@PCMCapsuleVsMeshContactGeneration@Gu@physx@@SAXABT__m128@@000I00PAVMeshPersistentContact@23@AAI@Z 10115240 f   GuPCMContactConvexCommon.obj
 0001:00114440       ?processTriangle@PCMCapsuleVsMeshContactGeneration@Gu@physx@@QAE_NPBVPxVec3@3@IEPBI@Z 10115440 f   GuPCMContactConvexCommon.obj
 0001:00114e90       ?processTriangle@PCMCapsuleVsMeshContactGeneration@Gu@physx@@SA_NABVTriangleV@23@IABVCapsuleV@23@ABT__m128@@EPAVMeshPersistentContact@23@AAI@Z 10115e90 f   GuPCMContactConvexCommon.obj
 0001:001150c0       ?pcmDistanceSegmentTriangleSquared@Gu@physx@@YA?AT__m128@@ABT3@0000AAT3@11@Z 101160c0 f   GuPCMContactConvexCommon.obj
 0001:00115a80       ??$sort@USortedTriangle@Gu@physx@@U?$Less@USortedTriangle@Gu@physx@@@shdfnd@3@@shdfnd@physx@@YAXPAUSortedTriangle@Gu@1@IABU?$Less@USortedTriangle@Gu@physx@@@01@@Z 10116a80 f i GuPCMContactConvexCommon.obj
 0001:00115aa0       ??$sort@USortedTriangle@Gu@physx@@U?$Less@USortedTriangle@Gu@physx@@@shdfnd@3@V?$ReflectionAllocator@USortedTriangle@Gu@physx@@@53@@shdfnd@physx@@YAXPAUSortedTriangle@Gu@1@IABU?$Less@USortedTriangle@Gu@physx@@@01@ABV?$ReflectionAllocator@USortedTriangle@Gu@physx@@@01@I@Z 10116aa0 f i GuPCMContactConvexCommon.obj
 0001:00115f50       ??_E?$SupportLocalImpl@VTriangleV@Gu@physx@@@Gu@physx@@UAEPAXI@Z 10116f50 f i GuPCMContactConvexCommon.obj
 0001:00115f50       ??_G?$SupportLocalImpl@VTriangleV@Gu@physx@@@Gu@physx@@UAEPAXI@Z 10116f50 f i GuPCMContactConvexCommon.obj
 0001:00115f80       ?allocate@?$Array@USortedTriangle@Gu@physx@@V?$InlineAllocator@$0IAA@V?$ReflectionAllocator@USortedTriangle@Gu@physx@@@shdfnd@physx@@@shdfnd@3@@shdfnd@physx@@IAEPAUSortedTriangle@Gu@3@I@Z 10116f80 f i GuPCMContactConvexCommon.obj
 0001:00116010       ?doSupport@?$SupportLocalImpl@VTriangleV@Gu@physx@@@Gu@physx@@UBE?AT__m128@@ABT4@@Z 10117010 f i GuPCMContactConvexCommon.obj
 0001:001160b0       ?doSupport@?$SupportLocalImpl@VTriangleV@Gu@physx@@@Gu@physx@@UBEXABT__m128@@AAT4@1@Z 101170b0 f i GuPCMContactConvexCommon.obj
 0001:00116130       ?get@?$CacheMap@UCachedEdge@Gu@physx@@$0IA@@Gu@physx@@QBEPBUCachedEdge@23@ABU423@@Z 10117130 f i GuPCMContactConvexCommon.obj
 0001:001161b0       ?growAndPushBack@?$Array@USortedTriangle@Gu@physx@@V?$InlineAllocator@$0IAA@V?$ReflectionAllocator@USortedTriangle@Gu@physx@@@shdfnd@physx@@@shdfnd@3@@shdfnd@physx@@IAEAAUSortedTriangle@Gu@3@ABU453@@Z 101171b0 f i GuPCMContactConvexCommon.obj
 0001:001167c0       ?populateVerts@?$SupportLocalImpl@VTriangleV@Gu@physx@@@Gu@physx@@UBEXPBEIPBVPxVec3@3@PAT__m128@@@Z 101177c0 f i GuPCMContactConvexCommon.obj
 0001:001168d0       ?pcmContactConvexConvex@Gu@physx@@YA_NABVGeometryUnion@12@0ABVPxTransform@2@1ABUNarrowPhaseParams@12@AAUCache@12@AAVContactBuffer@12@PAVRenderOutput@Cm@2@@Z 101178d0 f   GuPCMContactConvexConvex.obj
 0001:00117b60       ??$gjkPenetration@U?$RelativeConvex@VConvexHullNoScaleV@Gu@physx@@@Gu@physx@@U?$LocalConvex@VConvexHullNoScaleV@Gu@physx@@@23@@Gu@physx@@YA?AW4GjkStatus@01@ABU?$RelativeConvex@VConvexHullNoScaleV@Gu@physx@@@01@ABU?$LocalConvex@VConvexHullNoScaleV@Gu@physx@@@01@ABT__m128@@2_NPIAE4AAEAAUGjkOutput@01@@Z 10118b60 f i GuPCMContactConvexConvex.obj
 0001:00119420       ??$gjkPenetration@U?$RelativeConvex@VConvexHullNoScaleV@Gu@physx@@@Gu@physx@@U?$LocalConvex@VConvexHullV@Gu@physx@@@23@@Gu@physx@@YA?AW4GjkStatus@01@ABU?$RelativeConvex@VConvexHullNoScaleV@Gu@physx@@@01@ABU?$LocalConvex@VConvexHullV@Gu@physx@@@01@ABT__m128@@2_NPIAE4AAEAAUGjkOutput@01@@Z 1011a420 f i GuPCMContactConvexConvex.obj
 0001:0011ad50       ??$gjkPenetration@U?$RelativeConvex@VConvexHullV@Gu@physx@@@Gu@physx@@U?$LocalConvex@VConvexHullNoScaleV@Gu@physx@@@23@@Gu@physx@@YA?AW4GjkStatus@01@ABU?$RelativeConvex@VConvexHullV@Gu@physx@@@01@ABU?$LocalConvex@VConvexHullNoScaleV@Gu@physx@@@01@ABT__m128@@2_NPIAE4AAEAAUGjkOutput@01@@Z 1011bd50 f i GuPCMContactConvexConvex.obj
 0001:0011c690       ??_G?$RelativeConvex@VConvexHullNoScaleV@Gu@physx@@@Gu@physx@@UAEPAXI@Z 1011d690 f i GuPCMContactConvexConvex.obj
 0001:0011c690       ??_E?$RelativeConvex@VConvexHullNoScaleV@Gu@physx@@@Gu@physx@@UAEPAXI@Z 1011d690 f i GuPCMContactConvexConvex.obj
 0001:0011ce20       ?getCenter@?$RelativeConvex@VConvexHullNoScaleV@Gu@physx@@@Gu@physx@@UBE?AT__m128@@XZ 1011de20 f i GuPCMContactConvexConvex.obj
 0001:0011ce60       ?getSweepMargin@?$RelativeConvex@VConvexHullNoScaleV@Gu@physx@@@Gu@physx@@UBE?AT__m128@@XZ 1011de60 f i GuPCMContactConvexConvex.obj
 0001:0011ce80       ?support@?$RelativeConvex@VConvexHullNoScaleV@Gu@physx@@@Gu@physx@@UBE?AT__m128@@ABT4@@Z 1011de80 f i GuPCMContactConvexConvex.obj
 0001:0011cf20       ?support@?$RelativeConvex@VConvexHullNoScaleV@Gu@physx@@@Gu@physx@@UBE?AT__m128@@ABT4@AAH@Z 1011df20 f i GuPCMContactConvexConvex.obj
 0001:0011cfc0       ?supportPoint@?$RelativeConvex@VConvexHullNoScaleV@Gu@physx@@@Gu@physx@@UBE?AT__m128@@H@Z 1011dfc0 f i GuPCMContactConvexConvex.obj
 0001:0011d020       ?pcmContactBoxHeightField@Gu@physx@@YA_NABVGeometryUnion@12@0ABVPxTransform@2@1ABUNarrowPhaseParams@12@AAUCache@12@AAVContactBuffer@12@PAVRenderOutput@Cm@2@@Z 1011e020 f   GuPCMContactConvexHeightField.obj
 0001:0011d250       ?pcmContactConvexHeightField@Gu@physx@@YA_NABVGeometryUnion@12@0ABVPxTransform@2@1ABUNarrowPhaseParams@12@AAUCache@12@AAVContactBuffer@12@PAVRenderOutput@Cm@2@@Z 1011e250 f   GuPCMContactConvexHeightField.obj
 0001:0011d8a0       ?PCMContactConvexHeightfield@Gu@physx@@YA_NABUPolygonalData@12@PAVSupportLocal@12@ABT__m128@@ABVPxBounds3@2@ABVPxHeightFieldGeometry@2@ABVPxTransform@2@5MAAVContactBuffer@12@ABVFastVertex2ShapeScaling@Cm@2@_NAAVMultiplePersistentContactManifold@12@PAVRenderOutput@Cm@2@@Z 1011e8a0 f   GuPCMContactConvexHeightField.obj
 0001:0011e450       ??_E?$PCMHeightfieldContactGenerationCallback@UPCMConvexVsHeightfieldContactGenerationCallback@physx@@@Gu@physx@@UAEPAXI@Z 1011f450 f i GuPCMContactConvexHeightField.obj
 0001:0011e450       ??_G?$PCMHeightfieldContactGenerationCallback@UPCMConvexVsHeightfieldContactGenerationCallback@physx@@@Gu@physx@@UAEPAXI@Z 1011f450 f i GuPCMContactConvexHeightField.obj
 0001:0011e480       ??_GPCMConvexVsHeightfieldContactGenerationCallback@physx@@UAEPAXI@Z 1011f480 f i GuPCMContactConvexHeightField.obj
 0001:0011e480       ??_EPCMConvexVsHeightfieldContactGenerationCallback@physx@@UAEPAXI@Z 1011f480 f i GuPCMContactConvexHeightField.obj
 0001:0011e4b0       ?onEvent@?$PCMHeightfieldContactGenerationCallback@UPCMConvexVsHeightfieldContactGenerationCallback@physx@@@Gu@physx@@UAE_NIPAI@Z 1011f4b0 f i GuPCMContactConvexHeightField.obj
 0001:0011e930       ?pcmContactBoxMesh@Gu@physx@@YA_NABVGeometryUnion@12@0ABVPxTransform@2@1ABUNarrowPhaseParams@12@AAUCache@12@AAVContactBuffer@12@PAVRenderOutput@Cm@2@@Z 1011f930 f   GuPCMContactConvexMesh.obj
 0001:0011ebc0       ?pcmContactConvexMesh@Gu@physx@@YA_NABVGeometryUnion@12@0ABVPxTransform@2@1ABUNarrowPhaseParams@12@AAUCache@12@AAVContactBuffer@12@PAVRenderOutput@Cm@2@@Z 1011fbc0 f   GuPCMContactConvexMesh.obj
 0001:0011f230       ?PCMContactConvexMesh@Gu@physx@@YA_NABUPolygonalData@12@PAVSupportLocal@12@ABT__m128@@ABVPxBounds3@2@ABUPxTriangleMeshGeometryLL@2@ABVPxTransform@2@5MAAVContactBuffer@12@ABVFastVertex2ShapeScaling@Cm@2@7_N8AAVMultiplePersistentContactManifold@12@PAVRenderOutput@Cm@2@@Z 10120230 f   GuPCMContactConvexMesh.obj
 0001:0011fe50       ??$processTriangleCache@$0BA@@PCMConvexVsMeshContactGenerationCallback@physx@@QAEXAAU?$TriangleCache@$0BA@@Gu@1@@Z 10120e50 f i GuPCMContactConvexMesh.obj
 0001:0011fec0       ??_G?$PCMMeshContactGenerationCallback@UPCMConvexVsMeshContactGenerationCallback@physx@@@Gu@physx@@UAEPAXI@Z 10120ec0 f i GuPCMContactConvexMesh.obj
 0001:0011fec0       ??_E?$PCMMeshContactGenerationCallback@UPCMConvexVsMeshContactGenerationCallback@physx@@@Gu@physx@@UAEPAXI@Z 10120ec0 f i GuPCMContactConvexMesh.obj
 0001:0011fef0       ??_GPCMConvexVsMeshContactGenerationCallback@physx@@UAEPAXI@Z 10120ef0 f i GuPCMContactConvexMesh.obj
 0001:0011fef0       ??_EPCMConvexVsMeshContactGenerationCallback@physx@@UAEPAXI@Z 10120ef0 f i GuPCMContactConvexMesh.obj
 0001:0011ff20       ?processHit@?$PCMMeshContactGenerationCallback@UPCMConvexVsMeshContactGenerationCallback@physx@@@Gu@physx@@UAE_NABUPxRaycastHit@3@ABVPxVec3@3@11AAMPBI@Z 10120f20 f i GuPCMContactConvexMesh.obj
 0001:001202c0       ?generateFullContactManifold@Gu@physx@@YA_NAAUPolygonalData@12@0PAVSupportLocal@12@1PAVPersistentContact@12@AAIABT__m128@@444MM_NPAVRenderOutput@Cm@2@M@Z 101212c0 f   GuPCMContactGenBoxConvex.obj
 0001:00121a90       ?addGJKEPAContacts@Gu@physx@@YA_NPBUGjkConvex@12@0ABVPsMatTransformV@aos@shdfnd@2@W4GjkStatus@12@PAVPersistentContact@12@T__m128@@4AAUGjkOutput@12@AAVPersistentContactManifold@12@@Z 10122a90 f   GuPCMContactGenBoxConvex.obj
 0001:00121bf0       ?computeMTD@Gu@physx@@YA_NAAUPolygonalData@12@0PAVSupportLocal@12@1AAT__m128@@2@Z 10122bf0 f   GuPCMContactGenBoxConvex.obj
 0001:00122200       ?buildPartialHull@Gu@physx@@YAXABUPolygonalData@12@PAVSupportLocal@12@AAVSeparatingAxes@12@ABT__m128@@3@Z 10123200 f   GuPCMContactGenBoxConvex.obj
 0001:00122440       ?generatedContacts@Gu@physx@@YAXAAUPolygonalData@12@0ABUHullPolygonData@12@1PAVSupportLocal@12@2ABVPsMatTransformV@aos@shdfnd@2@PAVPersistentContact@12@AAIABT__m128@@PAVRenderOutput@Cm@2@@Z 10123440 f   GuPCMContactGenBoxConvex.obj
 0001:00123ae0       ?generateFullContactManifold@Gu@physx@@YA_NABVCapsuleV@12@AAUPolygonalData@12@PAVSupportLocal@12@ABVPsMatTransformV@aos@shdfnd@2@PAVPersistentContact@12@AAIABT__m128@@AAT__m128@@6M_NM@Z 10124ae0 f   GuPCMContactGenSphereCapsule.obj
 0001:001240d0       ?generateCapsuleBoxFullContactManifold@Gu@physx@@YA_NABVCapsuleV@12@AAUPolygonalData@12@PAVSupportLocal@12@ABVPsMatTransformV@aos@shdfnd@2@PAVPersistentContact@12@AAIABT__m128@@AAT__m128@@6M_NMPAVRenderOutput@Cm@2@@Z 101250d0 f   GuPCMContactGenSphereCapsule.obj
 0001:00124670       ?computeMTD@Gu@physx@@YA_NABVCapsuleV@12@AAUPolygonalData@12@PAVSupportLocal@12@AAT__m128@@3@Z 10125670 f   GuPCMContactGenSphereCapsule.obj
 0001:00124750       ?generateSphereFullContactManifold@Gu@physx@@YA_NABVCapsuleV@12@AAUPolygonalData@12@PAVSupportLocal@12@PAVPersistentContact@12@AAIABT__m128@@AAT7@_N@Z 10125750 f   GuPCMContactGenSphereCapsule.obj
 0001:00124b30       ?generatedCapsuleBoxFaceContacts@Gu@physx@@YAXABVCapsuleV@12@AAUPolygonalData@12@ABUHullPolygonData@12@PAVSupportLocal@12@ABVPsMatTransformV@aos@shdfnd@2@PAVPersistentContact@12@AAIABT__m128@@7@Z 10125b30 f   GuPCMContactGenSphereCapsule.obj
 0001:00125240       ?generatedContactsEEContacts@Gu@physx@@YAXABVCapsuleV@12@AAUPolygonalData@12@ABUHullPolygonData@12@PAVSupportLocal@12@ABVPsMatTransformV@aos@shdfnd@2@PAVPersistentContact@12@AAIABT__m128@@7@Z 10126240 f   GuPCMContactGenSphereCapsule.obj
 0001:00125df0       ?pcmContactPlaneBox@Gu@physx@@YA_NABVGeometryUnion@12@0ABVPxTransform@2@1ABUNarrowPhaseParams@12@AAUCache@12@AAVContactBuffer@12@PAVRenderOutput@Cm@2@@Z 10126df0 f   GuPCMContactPlaneBox.obj
 0001:00126af0       ?pcmContactPlaneCapsule@Gu@physx@@YA_NABVGeometryUnion@12@0ABVPxTransform@2@1ABUNarrowPhaseParams@12@AAUCache@12@AAVContactBuffer@12@PAVRenderOutput@Cm@2@@Z 10127af0 f   GuPCMContactPlaneCapsule.obj
 0001:00127380       ?pcmContactPlaneConvex@Gu@physx@@YA_NABVGeometryUnion@12@0ABVPxTransform@2@1ABUNarrowPhaseParams@12@AAUCache@12@AAVContactBuffer@12@PAVRenderOutput@Cm@2@@Z 10128380 f   GuPCMContactPlaneConvex.obj
 0001:00127dc0       ?pcmContactSphereBox@Gu@physx@@YA_NABVGeometryUnion@12@0ABVPxTransform@2@1ABUNarrowPhaseParams@12@AAUCache@12@AAVContactBuffer@12@PAVRenderOutput@Cm@2@@Z 10128dc0 f   GuPCMContactSphereBox.obj
 0001:00128280       ?pcmContactSphereCapsule@Gu@physx@@YA_NABVGeometryUnion@12@0ABVPxTransform@2@1ABUNarrowPhaseParams@12@AAUCache@12@AAVContactBuffer@12@PAVRenderOutput@Cm@2@@Z 10129280 f   GuPCMContactSphereCapsule.obj
 0001:001284c0       ?pcmContactSphereConvex@Gu@physx@@YA_NABVGeometryUnion@12@0ABVPxTransform@2@1ABUNarrowPhaseParams@12@AAUCache@12@AAVContactBuffer@12@PAVRenderOutput@Cm@2@@Z 101294c0 f   GuPCMContactSphereConvex.obj
 0001:001294c0       ?pcmContactSphereHeightField@Gu@physx@@YA_NABVGeometryUnion@12@0ABVPxTransform@2@1ABUNarrowPhaseParams@12@AAUCache@12@AAVContactBuffer@12@PAVRenderOutput@Cm@2@@Z 1012a4c0 f   GuPCMContactSphereHeightField.obj
 0001:00129f90       ??1PCMSphereVsHeightfieldContactGenerationCallback@physx@@UAE@XZ 1012af90 f i GuPCMContactSphereHeightField.obj
 0001:00129ff0       ??_E?$PCMHeightfieldContactGenerationCallback@UPCMSphereVsHeightfieldContactGenerationCallback@physx@@@Gu@physx@@UAEPAXI@Z 1012aff0 f i GuPCMContactSphereHeightField.obj
 0001:00129ff0       ??_G?$PCMHeightfieldContactGenerationCallback@UPCMSphereVsHeightfieldContactGenerationCallback@physx@@@Gu@physx@@UAEPAXI@Z 1012aff0 f i GuPCMContactSphereHeightField.obj
 0001:0012a020       ??_GPCMSphereVsHeightfieldContactGenerationCallback@physx@@UAEPAXI@Z 1012b020 f i GuPCMContactSphereHeightField.obj
 0001:0012a020       ??_EPCMSphereVsHeightfieldContactGenerationCallback@physx@@UAEPAXI@Z 1012b020 f i GuPCMContactSphereHeightField.obj
 0001:0012a090       ?onEvent@?$PCMHeightfieldContactGenerationCallback@UPCMSphereVsHeightfieldContactGenerationCallback@physx@@@Gu@physx@@UAE_NIPAI@Z 1012b090 f i GuPCMContactSphereHeightField.obj
 0001:0012a510       ?pcmContactSphereMesh@Gu@physx@@YA_NABVGeometryUnion@12@0ABVPxTransform@2@1ABUNarrowPhaseParams@12@AAUCache@12@AAVContactBuffer@12@PAVRenderOutput@Cm@2@@Z 1012b510 f   GuPCMContactSphereMesh.obj
 0001:0012b190       ??$processTriangleCache@$0BA@@PCMSphereVsMeshContactGenerationCallback@physx@@QAEXAAU?$TriangleCache@$0BA@@Gu@1@@Z 1012c190 f i GuPCMContactSphereMesh.obj
 0001:0012b200       ??1PCMSphereVsMeshContactGenerationCallback@physx@@UAE@XZ 1012c200 f i GuPCMContactSphereMesh.obj
 0001:0012b260       ??_G?$PCMMeshContactGenerationCallback@UPCMSphereVsMeshContactGenerationCallback@physx@@@Gu@physx@@UAEPAXI@Z 1012c260 f i GuPCMContactSphereMesh.obj
 0001:0012b260       ??_E?$PCMMeshContactGenerationCallback@UPCMSphereVsMeshContactGenerationCallback@physx@@@Gu@physx@@UAEPAXI@Z 1012c260 f i GuPCMContactSphereMesh.obj
 0001:0012b290       ??_EPCMSphereVsMeshContactGenerationCallback@physx@@UAEPAXI@Z 1012c290 f i GuPCMContactSphereMesh.obj
 0001:0012b290       ??_GPCMSphereVsMeshContactGenerationCallback@physx@@UAEPAXI@Z 1012c290 f i GuPCMContactSphereMesh.obj
 0001:0012b300       ?processHit@?$PCMMeshContactGenerationCallback@UPCMSphereVsMeshContactGenerationCallback@physx@@@Gu@physx@@UAE_NABUPxRaycastHit@3@ABVPxVec3@3@11AAMPBI@Z 1012c300 f i GuPCMContactSphereMesh.obj
 0001:0012b690       ?pcmContactSpherePlane@Gu@physx@@YA_NABVGeometryUnion@12@0ABVPxTransform@2@1ABUNarrowPhaseParams@12@AAUCache@12@AAVContactBuffer@12@PAVRenderOutput@Cm@2@@Z 1012c690 f   GuPCMContactSpherePlane.obj
 0001:0012b840       ?pcmContactSphereSphere@Gu@physx@@YA_NABVGeometryUnion@12@0ABVPxTransform@2@1ABUNarrowPhaseParams@12@AAUCache@12@AAVContactBuffer@12@PAVRenderOutput@Cm@2@@Z 1012c840 f   GuPCMContactSphereSphere.obj
 0001:0012b920       ??0PCMPolygonalBox@Gu@physx@@QAE@ABVPxVec3@2@@Z 1012c920 f   GuPCMShapeConvex.obj
 0001:0012bb30       ?getPolygonalData@PCMPolygonalBox@Gu@physx@@QBEXPIAUPolygonalData@23@@Z 1012cb30 f   GuPCMShapeConvex.obj
 0001:0012bba0       ?getPCMConvexData@Gu@physx@@YAXABVConvexHullV@12@_NAAUPolygonalData@12@@Z 1012cba0 f   GuPCMShapeConvex.obj
 0001:0012bd10       ?getPCMConvexData@Gu@physx@@YA_NABVGeometryUnion@12@AAVFastVertex2ShapeScaling@Cm@2@AAVPxBounds3@2@AAUPolygonalData@12@@Z 1012cd10 f   GuPCMShapeConvex.obj
 0001:0012c090       ?generateTriangleFullContactManifold@PCMConvexVsMeshContactGeneration@Gu@physx@@QAE_NAAVTriangleV@23@IPBIEABUPolygonalData@23@PAV?$SupportLocalImpl@VTriangleV@Gu@physx@@@23@PAVSupportLocal@23@PAVMeshPersistentContact@23@AAIABT__m128@@AAT9@@Z 1012d090 f   GuPCMTriangleContactGen.obj
 0001:0012c840       ?generatePolyDataContactManifold@PCMConvexVsMeshContactGeneration@Gu@physx@@QAE_NAAVTriangleV@23@IIEPAVMeshPersistentContact@23@AAIABT__m128@@AAT6@@Z 1012d840 f   GuPCMTriangleContactGen.obj
 0001:0012c920       ?generateTriangleFullContactManifold@PCMConvexVsMeshContactGeneration@Gu@physx@@SA_NAAVTriangleV@23@IEABUPolygonalData@23@PAV?$SupportLocalImpl@VTriangleV@Gu@physx@@@23@PAVSupportLocal@23@PAVMeshPersistentContact@23@AAIABT__m128@@AAT9@PAVRenderOutput@Cm@3@@Z 1012d920 f   GuPCMTriangleContactGen.obj
 0001:0012ee40       ?findRotationMatrixFromZAxis@Gu@physx@@YA?AUMat33V@aos@shdfnd@2@ABT__m128@@@Z 1012fe40 f   GuPersistentContactManifold.obj
 0001:0012f0b0       ?replaceManifoldPoint@PersistentContactManifold@Gu@physx@@QAE_NABT__m128@@000@Z 101300b0 f   GuPersistentContactManifold.obj
 0001:0012f170       ?addManifoldPoint@PersistentContactManifold@Gu@physx@@QAEIABT__m128@@000@Z 10130170 f   GuPersistentContactManifold.obj
 0001:0012f200       ?addManifoldPoint2@PersistentContactManifold@Gu@physx@@QAEIABT__m128@@000@Z 10130200 f   GuPersistentContactManifold.obj
 0001:0012f310       ?addBatchManifoldContactsCluster@PersistentContactManifold@Gu@physx@@QAEXPBVPersistentContact@23@I@Z 10130310 f   GuPersistentContactManifold.obj
 0001:0012f380       ?addBatchManifoldContacts2@PersistentContactManifold@Gu@physx@@QAEXPBVPersistentContact@23@I@Z 10130380 f   GuPersistentContactManifold.obj
 0001:0012f3f0       ?addBatchManifoldContacts@PersistentContactManifold@Gu@physx@@QAEXPBVPersistentContact@23@IM@Z 101303f0 f   GuPersistentContactManifold.obj
 0001:0012f470       ?reduceBatchContactsCluster@PersistentContactManifold@Gu@physx@@QAEXPBVPersistentContact@23@I@Z 10130470 f   GuPersistentContactManifold.obj
 0001:0012f920       ?reduceBatchContacts2@PersistentContactManifold@Gu@physx@@QAEXPBVPersistentContact@23@I@Z 10130920 f   GuPersistentContactManifold.obj
 0001:0012fb40       ?reduceBatchContacts@PersistentContactManifold@Gu@physx@@QAEXPBVPersistentContact@23@IM@Z 10130b40 f   GuPersistentContactManifold.obj
 0001:00130050       ?reduceContactsForPCM@PersistentContactManifold@Gu@physx@@QAEIABT__m128@@00@Z 10131050 f   GuPersistentContactManifold.obj
 0001:00130490       ?reduceContactSegment@PersistentContactManifold@Gu@physx@@QAEIABT__m128@@00@Z 10131490 f   GuPersistentContactManifold.obj
 0001:00130530       ?addManifoldContactsToContactBuffer@PersistentContactManifold@Gu@physx@@QAEXAAVContactBuffer@23@ABT__m128@@ABVPsMatTransformV@aos@shdfnd@3@@Z 10131530 f   GuPersistentContactManifold.obj
 0001:001305f0       ?addManifoldContactsToContactBuffer@PersistentContactManifold@Gu@physx@@QAEXAAVContactBuffer@23@ABT__m128@@ABVPsTransformV@aos@shdfnd@3@1@Z 101315f0 f   GuPersistentContactManifold.obj
 0001:00130750       ?addManifoldContactsToContactBuffer@PersistentContactManifold@Gu@physx@@QAEXAAVContactBuffer@23@ABT__m128@@1ABVPsTransformV@aos@shdfnd@3@11@Z 10131750 f   GuPersistentContactManifold.obj
 0001:001308c0       ?recordWarmStart@PersistentContactManifold@Gu@physx@@QAEXPAE0AAE@Z 101318c0 f   GuPersistentContactManifold.obj
 0001:00130900       ?setWarmStart@PersistentContactManifold@Gu@physx@@QAEXPBE0E@Z 10131900 f   GuPersistentContactManifold.obj
 0001:00130940       ?drawManifold@PersistentContactManifold@Gu@physx@@QAEXAAVRenderOutput@Cm@3@ABVPsTransformV@aos@shdfnd@3@1@Z 10131940 f   GuPersistentContactManifold.obj
 0001:001309b0       ?drawManifold@PersistentContactManifold@Gu@physx@@QAEXAAVRenderOutput@Cm@3@ABVPsTransformV@aos@shdfnd@3@1ABT__m128@@@Z 101319b0 f   GuPersistentContactManifold.obj
 0001:00130a30       ?drawManifold@PersistentContactManifold@Gu@physx@@QAEXABVPersistentContact@23@AAVRenderOutput@Cm@3@ABVPsTransformV@aos@shdfnd@3@2@Z 10131a30 f   GuPersistentContactManifold.obj
 0001:00130a60       ?drawPoint@PersistentContactManifold@Gu@physx@@SAXAAVRenderOutput@Cm@3@ABT__m128@@MI@Z 10131a60 f   GuPersistentContactManifold.obj
 0001:00130bf0       ?drawLine@PersistentContactManifold@Gu@physx@@SAXAAVRenderOutput@Cm@3@ABT__m128@@1I@Z 10131bf0 f   GuPersistentContactManifold.obj
 0001:00130ca0       ?drawTriangle@PersistentContactManifold@Gu@physx@@SAXAAVRenderOutput@Cm@3@ABT__m128@@11I@Z 10131ca0 f   GuPersistentContactManifold.obj
 0001:00130d80       ?drawPolygon@PersistentContactManifold@Gu@physx@@SAXAAVRenderOutput@Cm@3@ABVPsTransformV@aos@shdfnd@3@PAT__m128@@II@Z 10131d80 f   GuPersistentContactManifold.obj
 0001:00130f10       ?drawPolygon@PersistentContactManifold@Gu@physx@@SAXAAVRenderOutput@Cm@3@ABVPsMatTransformV@aos@shdfnd@3@PAT__m128@@II@Z 10131f10 f   GuPersistentContactManifold.obj
 0001:00130ff0       ?reduceBatchContactsConvex@SinglePersistentContactManifold@Gu@physx@@QAE?AT__m128@@PBVMeshPersistentContact@23@IAAUPCMContactPatch@23@@Z 10131ff0 f   GuPersistentContactManifold.obj
 0001:00131540       ?reduceBatchContactsSphere@SinglePersistentContactManifold@Gu@physx@@QAE?AT__m128@@PBVMeshPersistentContact@23@IAAUPCMContactPatch@23@@Z 10132540 f   GuPersistentContactManifold.obj
 0001:001315f0       ?reduceBatchContactsCapsule@SinglePersistentContactManifold@Gu@physx@@QAE?AT__m128@@PBVMeshPersistentContact@23@IAAUPCMContactPatch@23@@Z 101325f0 f   GuPersistentContactManifold.obj
 0001:00131850       ?addBatchManifoldContactsConvex@SinglePersistentContactManifold@Gu@physx@@QAE?AT__m128@@PBVMeshPersistentContact@23@IAAUPCMContactPatch@23@ABT4@@Z 10132850 f   GuPersistentContactManifold.obj
 0001:00131910       ?addBatchManifoldContactsSphere@SinglePersistentContactManifold@Gu@physx@@QAE?AT__m128@@PBVMeshPersistentContact@23@IAAUPCMContactPatch@23@ABT4@@Z 10132910 f   GuPersistentContactManifold.obj
 0001:001319d0       ?addBatchManifoldContactsCapsule@SinglePersistentContactManifold@Gu@physx@@QAE?AT__m128@@PBVMeshPersistentContact@23@IAAUPCMContactPatch@23@ABT4@@Z 101329d0 f   GuPersistentContactManifold.obj
 0001:00131a90       ?reduceContacts@SinglePersistentContactManifold@Gu@physx@@SAIPAVMeshPersistentContact@23@I@Z 10132a90 f   GuPersistentContactManifold.obj
 0001:00131f40       ?refreshContactPoints@SinglePersistentContactManifold@Gu@physx@@QAE?AT__m128@@ABVPsMatTransformV@aos@shdfnd@3@ABT4@1@Z 10132f40 f   GuPersistentContactManifold.obj
 0001:00132060       ?drawManifold@SinglePersistentContactManifold@Gu@physx@@QAEXAAVRenderOutput@Cm@3@ABVPsTransformV@aos@shdfnd@3@1@Z 10133060 f   GuPersistentContactManifold.obj
 0001:001320d0       ?addManifoldContactPoints@MultiplePersistentContactManifold@Gu@physx@@QAEXPAVMeshPersistentContact@23@IPAPAUPCMContactPatch@23@IABT__m128@@2E@Z 101330d0 f   GuPersistentContactManifold.obj
 0001:00132440       ?addManifoldContactsToContactBuffer@MultiplePersistentContactManifold@Gu@physx@@QAE_NAAVContactBuffer@23@ABVPsTransformV@aos@shdfnd@3@@Z 10133440 f   GuPersistentContactManifold.obj
 0001:001326b0       ?addManifoldContactsToContactBuffer@MultiplePersistentContactManifold@Gu@physx@@QAE_NAAVContactBuffer@23@ABVPsTransformV@aos@shdfnd@3@1ABT__m128@@@Z 101336b0 f   GuPersistentContactManifold.obj
 0001:00132930       ?drawManifold@MultiplePersistentContactManifold@Gu@physx@@QAEXAAVRenderOutput@Cm@3@ABVPsTransformV@aos@shdfnd@3@1@Z 10133930 f   GuPersistentContactManifold.obj
 0001:001329d0       ?fromBuffer@MultiplePersistentContactManifold@Gu@physx@@QAEXPIAE@Z 101339d0 f   GuPersistentContactManifold.obj
 0001:00132b00       ?drawLine@MultiplePersistentContactManifold@Gu@physx@@SAXAAVRenderOutput@Cm@3@ABT__m128@@1I@Z 10133b00 f   GuPersistentContactManifold.obj
 0001:00132bb0       ?drawLine@MultiplePersistentContactManifold@Gu@physx@@SAXAAVRenderOutput@Cm@3@VPxVec3@3@1I@Z 10133bb0 f   GuPersistentContactManifold.obj
 0001:00132c40       ?drawPoint@MultiplePersistentContactManifold@Gu@physx@@SAXAAVRenderOutput@Cm@3@ABT__m128@@MI@Z 10133c40 f   GuPersistentContactManifold.obj
 0001:00132dd0       ?drawPolygon@MultiplePersistentContactManifold@Gu@physx@@SAXAAVRenderOutput@Cm@3@ABVPsTransformV@aos@shdfnd@3@PAT__m128@@II@Z 10133dd0 f   GuPersistentContactManifold.obj
 0001:00132f60       ?addManifoldPoint@Gu@physx@@YAXPAVPersistentContact@12@AAVPersistentContactManifold@12@AAUGjkOutput@12@ABVPsMatTransformV@aos@shdfnd@2@T__m128@@@Z 10133f60 f   GuPersistentContactManifold.obj
 0001:00134300       ?sweepBoxBox@Gu@physx@@YA_NABVBox@12@0ABVPxVec3@2@MV?$PxFlags@W4Enum@PxHitFlag@physx@@G@2@AAUPxSweepHit@2@@Z 10135300 f   GuSweepBoxBox.obj
 0001:00135640       ?sweepBoxSphere@Gu@physx@@YA_NABVBox@12@MABVPxVec3@2@1MAAMAAV42@V?$PxFlags@W4Enum@PxHitFlag@physx@@G@2@@Z 10136640 f   GuSweepBoxSphere.obj
 0001:001361d0       ?sweepBoxTriangle@Gu@physx@@YA_NABVPxTriangle@2@ABVPxBounds3@2@ABVPxVec3@2@2AAV52@3AAM_N@Z 101371d0 f   GuSweepBoxTriangle_FeatureBased.obj
 0001:001374e0       ?triBoxSweepTestBoxSpace@Gu@physx@@YAHABVPxTriangle@2@ABVPxVec3@2@11MAAM_N@Z 101384e0 f   GuSweepBoxTriangle_SAT.obj
 0001:00137ee0       ?sweepCapsuleBox@Gu@physx@@YA_NABVCapsule@12@ABVPxTransform@2@ABVPxVec3@2@2MAAV52@AAM3V?$PxFlags@W4Enum@PxHitFlag@physx@@G@2@@Z 10138ee0 f   GuSweepCapsuleBox.obj
 0001:00138280       ??0PxTriangle@physx@@QAE@XZ 10139280 f i GuSweepCapsuleBox.obj
 0001:00138290       ??1PxTriangle@physx@@QAE@XZ 10139290 f i GuSweepCapsuleBox.obj
 0001:001393b0       ?sweepCapsuleCapsule@Gu@physx@@YA_NABVCapsule@12@0ABVPxVec3@2@MAAMAAV42@3IAAG@Z 1013a3b0 f   GuSweepCapsuleCapsule.obj
 0001:0013a520       ??0Capsule@Gu@physx@@QAE@XZ 1013b520 f i GuSweepCapsuleCapsule.obj
 0001:0013a530       ??1Capsule@Gu@physx@@QAE@XZ 1013b530 f i GuSweepCapsuleCapsule.obj
 0001:0013ab10       ?sweepCapsuleTriangles_Precise@Gu@physx@@YA_NIPIBVPxTriangle@2@ABVCapsule@12@ABVPxVec3@2@MPIBIAAUPxSweepHit@2@AAV52@V?$PxFlags@W4Enum@PxHitFlag@physx@@G@2@_NPBVBoxPadded@12@@Z 1013bb10 f   GuSweepCapsuleTriangle.obj
 0001:0013d070       ?sweepSphereCapsule@Gu@physx@@YA_NABVSphere@12@ABVCapsule@12@ABVPxVec3@2@MAAMAAV52@4V?$PxFlags@W4Enum@PxHitFlag@physx@@G@2@@Z 1013e070 f   GuSweepSphereCapsule.obj
 0001:0013d740       ?sweepSphereSphere@Gu@physx@@YA_NABVPxVec3@2@M0M0AAMAAV32@@Z 1013e740 f   GuSweepSphereSphere.obj
 0001:0013d990       ?sweepSphereVSTri@Gu@physx@@YA_NPIBVPxVec3@2@ABV32@1M1AAMAA_N_N@Z 1013e990 f   GuSweepSphereTriangle.obj
 0001:0013e8b0       ?sweepSphereVSQuad@Gu@physx@@YA_NPIBVPxVec3@2@ABV32@1M1AAM@Z 1013f8b0 f   GuSweepSphereTriangle.obj
 0001:0013fd00       ?sweepSphereTriangles@Gu@physx@@YA_NIPIBVPxTriangle@2@ABVPxVec3@2@M1MPIBIAAUPxSweepHit@2@AAV42@_N555@Z 10140d00 f   GuSweepSphereTriangle.obj
 0001:00140560       ?computeSphereTriImpactData@Gu@physx@@YAXAAVPxVec3@2@0ABV32@1MABVPxTriangle@2@@Z 10141560 f   GuSweepTriangleUtils.obj
 0001:00140750       ?computeBoxTriImpactData@Gu@physx@@YAXAAVPxVec3@2@0ABV32@1ABVPxTriangle@2@M@Z 10141750 f   GuSweepTriangleUtils.obj
 0001:001409d0       ?computeEdgeEdgeNormal@Gu@physx@@YAXAAVPxVec3@2@ABV32@1111M@Z 101419d0 f   GuSweepTriangleUtils.obj
 0001:00140c70       ??$gjk@U?$LocalConvex@VTriangleV@Gu@physx@@@Gu@physx@@U?$LocalConvex@VBoxV@Gu@physx@@@23@@Gu@physx@@YA?AW4GjkStatus@01@ABU?$LocalConvex@VTriangleV@Gu@physx@@@01@ABU?$LocalConvex@VBoxV@Gu@physx@@@01@ABT__m128@@2AAT5@333@Z 10141c70 f i GuSweepTriangleUtils.obj
 0001:00141cbd       __imp_load__PxGetFoundation 10142cbd f   PhysXFoundation_32:PhysXFoundation_32.dll
 0001:00141cc7       _PxGetFoundation           10142cc7 f   PhysXFoundation_32:PhysXFoundation_32.dll
 0001:00141ccd       __tailMerge_physxfoundation_32_dll 10142ccd     PhysXFoundation_32:PhysXFoundation_32.dll
 0001:00141cde       __imp_load_?getAllocator@shdfnd@physx@@YAAAVPxAllocatorCallback@2@XZ 10142cde f   PhysXFoundation_32:PhysXFoundation_32.dll
 0001:00141ce8       ?getAllocator@shdfnd@physx@@YAAAVPxAllocatorCallback@2@XZ 10142ce8 f   PhysXFoundation_32:PhysXFoundation_32.dll
 0001:00141cee       __imp_load_?getInstance@Foundation@shdfnd@physx@@SAAAV123@XZ 10142cee f   PhysXFoundation_32:PhysXFoundation_32.dll
 0001:00141cf8       ?getInstance@Foundation@shdfnd@physx@@SAAAV123@XZ 10142cf8 f   PhysXFoundation_32:PhysXFoundation_32.dll
 0001:00141cfe       __imp_load_?error@Foundation@shdfnd@physx@@QAAXW4Enum@PxErrorCode@3@PBDH1ZZ 10142cfe f   PhysXFoundation_32:PhysXFoundation_32.dll
 0001:00141d08       ?error@Foundation@shdfnd@physx@@QAAXW4Enum@PxErrorCode@3@PBDH1ZZ 10142d08 f   PhysXFoundation_32:PhysXFoundation_32.dll
 0001:00141d0e       __imp_load_?PxShortestRotation@physx@@YA?AVPxQuat@1@ABVPxVec3@1@0@Z 10142d0e f   PhysXFoundation_32:PhysXFoundation_32.dll
 0001:00141d18       ?PxShortestRotation@physx@@YA?AVPxQuat@1@ABVPxVec3@1@0@Z 10142d18 f   PhysXFoundation_32:PhysXFoundation_32.dll
 0001:00141d1e       __imp_load_?vsnprintf@shdfnd@physx@@YAHPADIPBD0@Z 10142d1e f   PhysXFoundation_32:PhysXFoundation_32.dll
 0001:00141d28       ?vsnprintf@shdfnd@physx@@YAHPADIPBD0@Z 10142d28 f   PhysXFoundation_32:PhysXFoundation_32.dll
 0001:00141d2e       __imp_load_??0MutexImpl@shdfnd@physx@@QAE@XZ 10142d2e f   PhysXFoundation_32:PhysXFoundation_32.dll
 0001:00141d38       ??0MutexImpl@shdfnd@physx@@QAE@XZ 10142d38 f   PhysXFoundation_32:PhysXFoundation_32.dll
 0001:00141d3e       __imp_load_??1MutexImpl@shdfnd@physx@@QAE@XZ 10142d3e f   PhysXFoundation_32:PhysXFoundation_32.dll
 0001:00141d48       ??1MutexImpl@shdfnd@physx@@QAE@XZ 10142d48 f   PhysXFoundation_32:PhysXFoundation_32.dll
 0001:00141d4e       __imp_load_?lock@MutexImpl@shdfnd@physx@@QAEXXZ 10142d4e f   PhysXFoundation_32:PhysXFoundation_32.dll
 0001:00141d58       ?lock@MutexImpl@shdfnd@physx@@QAEXXZ 10142d58 f   PhysXFoundation_32:PhysXFoundation_32.dll
 0001:00141d5e       __imp_load_?unlock@MutexImpl@shdfnd@physx@@QAEXXZ 10142d5e f   PhysXFoundation_32:PhysXFoundation_32.dll
 0001:00141d68       ?unlock@MutexImpl@shdfnd@physx@@QAEXXZ 10142d68 f   PhysXFoundation_32:PhysXFoundation_32.dll
 0001:00141d6e       __imp_load_?getSize@MutexImpl@shdfnd@physx@@SAIXZ 10142d6e f   PhysXFoundation_32:PhysXFoundation_32.dll
 0001:00141d78       ?getSize@MutexImpl@shdfnd@physx@@SAIXZ 10142d78 f   PhysXFoundation_32:PhysXFoundation_32.dll
 0001:00141d7e       __imp_load_?atomicDecrement@shdfnd@physx@@YAHPCH@Z 10142d7e f   PhysXFoundation_32:PhysXFoundation_32.dll
 0001:00141d88       ?atomicDecrement@shdfnd@physx@@YAHPCH@Z 10142d88 f   PhysXFoundation_32:PhysXFoundation_32.dll
 0001:00141d8e       __imp_load_?optimizeBoundingBox@shdfnd@physx@@YA?AVPxVec3@2@AAVPxMat33@2@@Z 10142d8e f   PhysXFoundation_32:PhysXFoundation_32.dll
 0001:00141d98       ?optimizeBoundingBox@shdfnd@physx@@YA?AVPxVec3@2@AAVPxMat33@2@@Z 10142d98 f   PhysXFoundation_32:PhysXFoundation_32.dll
 0001:00141d9e       __imp_load_?allocate@TempAllocator@shdfnd@physx@@QAEPAXIPBDH@Z 10142d9e f   PhysXFoundation_32:PhysXFoundation_32.dll
 0001:00141da8       ?allocate@TempAllocator@shdfnd@physx@@QAEPAXIPBDH@Z 10142da8 f   PhysXFoundation_32:PhysXFoundation_32.dll
 0001:00141dae       __imp_load_?deallocate@TempAllocator@shdfnd@physx@@QAEXPAX@Z 10142dae f   PhysXFoundation_32:PhysXFoundation_32.dll
 0001:00141db8       ?deallocate@TempAllocator@shdfnd@physx@@QAEXPAX@Z 10142db8 f   PhysXFoundation_32:PhysXFoundation_32.dll
 0001:00141dbe       __imp_load_?atomicIncrement@shdfnd@physx@@YAHPCH@Z 10142dbe f   PhysXFoundation_32:PhysXFoundation_32.dll
 0001:00141dc8       ?atomicIncrement@shdfnd@physx@@YAHPCH@Z 10142dc8 f   PhysXFoundation_32:PhysXFoundation_32.dll
 0001:00141dce       _FreeLibrary@4             10142dce f   kernel32:KERNEL32.dll
 0001:00141dd4       _GetProcAddress@8          10142dd4 f   kernel32:KERNEL32.dll
 0001:00141dda       _LoadLibraryA@4            10142dda f   kernel32:KERNEL32.dll
 0001:00141de0       ??$PFromRva@PAP6GHXZ@@YGPAP6GHXZK@Z 10142de0 f i Delayimp:delayhlp.obj
 0001:00141df2       ??$PFromRva@PAPAUHINSTANCE__@@@@YGPAPAUHINSTANCE__@@K@Z 10142df2 f i Delayimp:delayhlp.obj
 0001:00141e04       ??$PFromRva@PAU_IMAGE_IMPORT_BY_NAME@@@@YGPAU_IMAGE_IMPORT_BY_NAME@@K@Z 10142e04 f i Delayimp:delayhlp.obj
 0001:00141e16       ??$PFromRva@PAU_IMAGE_THUNK_DATA32@@@@YGPAU_IMAGE_THUNK_DATA32@@K@Z 10142e16 f i Delayimp:delayhlp.obj
 0001:00141e28       ??$PFromRva@PBD@@YGPBDK@Z  10142e28 f i Delayimp:delayhlp.obj
 0001:00141e3a       ??$PFromRva@PBUImgDelayDescr@@@@YGPBUImgDelayDescr@@K@Z 10142e3a f i Delayimp:delayhlp.obj
 0001:00141e4c       ??$PFromRva@PBU_IMAGE_THUNK_DATA32@@@@YGPBU_IMAGE_THUNK_DATA32@@K@Z 10142e4c f i Delayimp:delayhlp.obj
 0001:00141e5e       ?CountOfImports@@YGIPBU_IMAGE_THUNK_DATA32@@@Z 10142e5e f i Delayimp:delayhlp.obj
 0001:00141e79       ?DloadAcquireSectionWriteAccess@@YGXXZ 10142e79 f i Delayimp:delayhlp.obj
 0001:00141eac       ?DloadGetSRWLockFunctionPointers@@YGEXZ 10142eac f i Delayimp:delayhlp.obj
 0001:00141f1f       ?DloadLock@@YGXXZ          10142f1f f i Delayimp:delayhlp.obj
 0001:00141f5e       ?DloadMakePermanentImageCommit@@YGXPAXK@Z 10142f5e f i Delayimp:delayhlp.obj
 0001:00141fd0       ?DloadObtainSection@@YGPAXPAK0@Z 10142fd0 f i Delayimp:delayhlp.obj
 0001:0014204b       ?DloadProtectSection@@YGXKPAK@Z 1014304b f i Delayimp:delayhlp.obj
 0001:001420b9       ?DloadReleaseSectionWriteAccess@@YGXXZ 101430b9 f i Delayimp:delayhlp.obj
 0001:001420ef       ?DloadUnlock@@YGXXZ        101430ef f i Delayimp:delayhlp.obj
 0001:00142130       ?IndexFromPImgThunkData@@YGIPBU_IMAGE_THUNK_DATA32@@0@Z 10143130 f i Delayimp:delayhlp.obj
 0001:00142290       _HRESULT_FROM_WIN32@4      10143290 f i Delayimp:delayhlp.obj
 0001:001422a8       _ReadAcquire@4             101432a8 f i Delayimp:delayhlp.obj
 0001:001422b6       _ReadPointerAcquire@4      101432b6 f i Delayimp:delayhlp.obj
 0001:001422c4       _WritePointerRelease@8     101432c4 f i Delayimp:delayhlp.obj
 0001:001422d5       _WriteRelease@8            101432d5 f i Delayimp:delayhlp.obj
 0001:001422e6       __InlineInterlockedCompareExchangePointer@12 101432e6 f i Delayimp:delayhlp.obj
 0001:001422fc       ___FUnloadDelayLoadedDLL2@4 101432fc f   Delayimp:delayhlp.obj
 0001:00142380       ___HrLoadAllImportsForDll@4 10143380 f   Delayimp:delayhlp.obj
 0001:001423e1       ___delayLoadHelper2@8      101433e1 f   Delayimp:delayhlp.obj
 0001:00142650       ??3@YAXPAXI@Z              10143650 f   MSVCRT:delete_scalar_size.obj
 0001:00142660       __ftoui3                   10143660 f   MSVCRT:ftol3.obj
 0001:0014266f       __ftoul3                   1014366f f   MSVCRT:ftol3.obj
 0001:0014267e       __ftol3                    1014367e f   MSVCRT:ftol3.obj
 0001:0014268b       __ftol3_NaN                1014368b f   MSVCRT:ftol3.obj
 0001:001426a3       __ftol3_work               101436a3 f   MSVCRT:ftol3.obj
 0001:00142729       __ftol3_common             10143729 f   MSVCRT:ftol3.obj
 0001:001427eb       __ftol3_arg_error          101437eb f   MSVCRT:ftol3.obj
 0001:001427fd       __ftol3_except             101437fd f   MSVCRT:ftol3.obj
 0001:00142841       __dtoui3                   10143841 f   MSVCRT:ftol3.obj
 0001:00142850       __dtoul3                   10143850 f   MSVCRT:ftol3.obj
 0001:0014285f       __dtol3                    1014385f f   MSVCRT:ftol3.obj
 0001:0014286c       __dtol3_NaN                1014386c f   MSVCRT:ftol3.obj
 0001:00142889       __dtol3_work               10143889 f   MSVCRT:ftol3.obj
 0001:00142970       __ultod3                   10143970 f   MSVCRT:ftol3.obj
 0001:001429b0       __ltod3                    101439b0 f   MSVCRT:ftol3.obj
 0001:001429d7       ?__scrt_initialize_type_info@@YAXXZ 101439d7 f   MSVCRT:tncleanup.obj
 0001:001429e3       ?__scrt_uninitialize_type_info@@YAXXZ 101439e3 f   MSVCRT:tncleanup.obj
 0001:001429ef       ??1type_info@@UAE@XZ       101439ef f   MSVCRT:std_type_info_static.obj
 0001:001429f6       ??_Etype_info@@UAEPAXI@Z   101439f6 f i MSVCRT:std_type_info_static.obj
 0001:001429f6       ??_Gtype_info@@UAEPAXI@Z   101439f6 f i MSVCRT:std_type_info_static.obj
 0001:00142a19       ??_V@YAXPAXI@Z             10143a19 f   MSVCRT:delete_array_size.obj
 0001:00142a30       __chkstk                   10143a30 f   MSVCRT:chkstk.obj
 0001:00142a30       __alloca_probe             10143a30 f   MSVCRT:chkstk.obj
 0001:00142a60       ___vdecl_sinf4             10143a60 f   MSVCRT:svml_ssinf4_dispatch.obj
 0001:00142a65       ___libm_sse2_sincosf_      10143a65 f   MSVCRT:svml_ssinf4_dispatch.obj
 0001:00142aab       ___libm_sse2_sincosf4_     10143aab f   MSVCRT:svml_ssinf4_dispatch.obj
 0001:00142abb       ??3@YAXPAX@Z               10143abb f   MSVCRT:delete_scalar.obj
 0001:00142ac0       ??_V@YAXPAX@Z              10143ac0 f   MSVCRT:delete_array.obj
 0001:00142ad0       __alloca_probe_16          10143ad0 f   MSVCRT:alloca16.obj
 0001:00142ae6       __alloca_probe_8           10143ae6     MSVCRT:alloca16.obj
 0001:00142e1c       __CRT_INIT@12              10143e1c f   MSVCRT:dll_dllmain.obj
 0001:00142e25       __DllMainCRTStartup@12     10143e25 f   MSVCRT:dll_dllmain.obj
 0001:00142e48       @_guard_check_icall_nop@4  10143e48 f i MSVCRT:guard_support.obj
 0001:00142e49       _ReadNoFence               10143e49 f i MSVCRT:guard_support.obj
 0001:00142e53       _ReadPointerNoFence        10143e53 f i MSVCRT:guard_support.obj
 0001:00142e5d       __guard_icall_checks_enforced 10143e5d f i MSVCRT:guard_support.obj
 0001:00142e80       ___sse2_sinf4              10143e80 f   MSVCRT:svml_ssinf4_sse2.obj
 0001:0014308d       ___security_init_cookie    1014408d f   MSVCRT:gs_support.obj
 0001:001430d8       _DllMain@12                101440d8 f   MSVCRT:dll_dllmain_stub.obj
 0001:001430fa       ___local_stdio_printf_options 101440fa f i MSVCRT:default_local_stdio_options.obj
 0001:00143100       ___local_stdio_scanf_options 10144100 f i MSVCRT:default_local_stdio_options.obj
 0001:00143106       ___scrt_initialize_default_local_stdio_options 10144106 f   MSVCRT:default_local_stdio_options.obj
 0001:00143123       ??$__crt_fast_decode_pointer@PAP6AXXZ@@YAPAP6AXXZQAP6AXXZ@Z 10144123 f i MSVCRT:utility.obj
 0001:00143137       ??$__crt_fast_encode_pointer@PAP6AXXZ@@YAPAP6AXXZQAP6AXXZ@Z 10144137 f i MSVCRT:utility.obj
 0001:00143154       ?__crt_rotate_pointer_value@@YAIIH@Z 10144154 f i MSVCRT:utility.obj
 0001:00143161       ?configure_argv@__scrt_narrow_argv_policy@@SAHXZ 10144161 f i MSVCRT:utility.obj
 0001:001431b2       ?initialize_environment@__scrt_narrow_environment_policy@@SAHXZ 101441b2 f i MSVCRT:utility.obj
 0001:001431eb       _NtCurrentTeb              101441eb f i MSVCRT:utility.obj
 0001:001431f2       ___scrt_acquire_startup_lock 101441f2 f   MSVCRT:utility.obj
 0001:00143224       ___scrt_dllmain_after_initialize_c 10144224 f   MSVCRT:utility.obj
 0001:0014324f       ___scrt_dllmain_before_initialize_c 1014424f f   MSVCRT:utility.obj
 0001:0014325d       ___scrt_dllmain_crt_thread_attach 1014425d f   MSVCRT:utility.obj
 0001:0014327c       ___scrt_dllmain_crt_thread_detach 1014427c f   MSVCRT:utility.obj
 0001:00143289       ___scrt_dllmain_exception_filter 10144289 f   MSVCRT:utility.obj
 0001:001432bd       ___scrt_dllmain_uninitialize_c 101442bd f   MSVCRT:utility.obj
 0001:001432e0       ___scrt_dllmain_uninitialize_critical 101442e0 f   MSVCRT:utility.obj
 0001:001432ed       ___scrt_initialize_crt     101442ed f   MSVCRT:utility.obj
 0001:00143326       ___scrt_initialize_onexit_tables 10144326 f   MSVCRT:utility.obj
 0001:001433cb       ___scrt_is_nonwritable_in_current_image 101443cb f   MSVCRT:utility.obj
 0001:0014345f       ___scrt_release_startup_lock 1014445f f   MSVCRT:utility.obj
 0001:0014347c       ___scrt_uninitialize_crt   1014447c f   MSVCRT:utility.obj
 0001:001434a4       __onexit                   101444a4 f   MSVCRT:utility.obj
 0001:001434df       _at_quick_exit             101444df f   MSVCRT:utility.obj
 0001:00143510       _atexit                    10144510 f   MSVCRT:utility.obj
 0001:00143525       ___scrt_get_dyn_tls_init_callback 10144525 f   MSVCRT:dyn_tls_init.obj
 0001:0014352b       ___scrt_fastfail           1014452b f   MSVCRT:utility_desktop.obj
 0001:00143645       ___scrt_get_show_window_mode 10144645 f   MSVCRT:utility_desktop.obj
 0001:00143676       ___scrt_initialize_mta     10144676 f   MSVCRT:utility_desktop.obj
 0001:0014367b       ___scrt_initialize_winrt   1014467b f   MSVCRT:utility_desktop.obj
 0001:0014367e       ___scrt_is_managed_app     1014467e f   MSVCRT:utility_desktop.obj
 0001:001436c1       ___scrt_set_unhandled_exception_filter 101446c1 f   MSVCRT:utility_desktop.obj
 0001:001436cd       ___scrt_stub_for_initialize_mta 101446cd f   MSVCRT:utility_desktop.obj
 0001:001436cd       ___scrt_exe_initialize_mta 101446cd f   MSVCRT:utility_desktop.obj
 0001:001436d0       ___scrt_unhandled_exception_filter@4 101446d0 f   MSVCRT:utility_desktop.obj
 0001:00143711       __crt_debugger_hook        10144711 f   MSVCRT:utility_desktop.obj
 0001:00143719       __RTC_Initialize           10144719 f   MSVCRT:initsect.obj
 0001:00143745       __RTC_Terminate            10144745 f   MSVCRT:initsect.obj
 0001:00143780       __SEH_prolog4              10144780 f   MSVCRT:sehprolg4.obj
 0001:001437c6       __SEH_epilog4              101447c6 f   MSVCRT:sehprolg4.obj
 0001:001437db       __except_handler4          101447db f   MSVCRT:chandler4gs.obj
 0001:00143800       ___common_sin_reduction_LA 10144800 f   MSVCRT:svml_dtrig.obj
 0001:00143b50       ___common_cos_reduction_LA 10144b50 f   MSVCRT:svml_dtrig.obj
 0001:00143e40       ___common_pi04_reduction_LA 10144e40 f   MSVCRT:svml_dtrig.obj
 0001:00144150       ___isa_available_init      10145150 f   MSVCRT:cpu_disp.obj
 0001:001442e7       __get_startup_argv_mode    101452e7 f   MSVCRT:argv_mode.obj
 0001:001442eb       ___scrt_is_ucrt_dll_in_use 101452eb f   MSVCRT:ucrt_detection.obj
 0001:001442f7       @__security_check_cookie@4 101452f7 f   MSVCRT:secchk.obj
 0001:00144308       ___raise_securityfailure   10145308 f   MSVCRT:gs_report.obj
 0001:00144330       ___report_gsfailure        10145330 f   MSVCRT:gs_report.obj
 0001:00144429       ___report_rangecheckfailure 10145429 f   MSVCRT:gs_report.obj
 0001:00144435       ___report_securityfailure  10145435 f   MSVCRT:gs_report.obj
 0001:00144503       ___report_securityfailureEx 10145503 f   MSVCRT:gs_report.obj
 0001:00144617       __purecall                 10145617 f   vcruntime:VCRUNTIME140.dll
 0001:0014461d       ___std_type_info_name      1014561d f   vcruntime:VCRUNTIME140.dll
 0001:00144623       _memcpy                    10145623 f   vcruntime:VCRUNTIME140.dll
 0001:00144629       _memset                    10145629 f   vcruntime:VCRUNTIME140.dll
 0001:0014462f       _strstr                    1014562f f   vcruntime:VCRUNTIME140.dll
 0001:00144635       ___std_type_info_destroy_list 10145635 f   vcruntime:VCRUNTIME140.dll
 0001:0014463b       __except_handler4_common   1014563b f   vcruntime:VCRUNTIME140.dll
 0001:00144641       ___libm_sse2_cosf          10145641 f   ucrt:api-ms-win-crt-math-l1-1-0.dll
 0001:00144647       ___libm_sse2_sinf          10145647 f   ucrt:api-ms-win-crt-math-l1-1-0.dll
 0001:0014464d       ___libm_sse2_tanf          1014564d f   ucrt:api-ms-win-crt-math-l1-1-0.dll
 0001:00144653       _ceil                      10145653 f   ucrt:api-ms-win-crt-math-l1-1-0.dll
 0001:00144659       __fpclass                  10145659 f   ucrt:api-ms-win-crt-math-l1-1-0.dll
 0001:0014465f       ___libm_sse2_acosf         1014565f f   ucrt:api-ms-win-crt-math-l1-1-0.dll
 0001:00144665       __except1                  10145665 f   ucrt:api-ms-win-crt-math-l1-1-0.dll
 0001:0014466b       _free                      1014566b f   ucrt:api-ms-win-crt-heap-l1-1-0.dll
 0001:00144671       __initterm                 10145671 f   ucrt:api-ms-win-crt-runtime-l1-1-0.dll
 0001:00144677       __initterm_e               10145677 f   ucrt:api-ms-win-crt-runtime-l1-1-0.dll
 0001:0014467d       __seh_filter_dll           1014567d f   ucrt:api-ms-win-crt-runtime-l1-1-0.dll
 0001:00144683       __configure_narrow_argv    10145683 f   ucrt:api-ms-win-crt-runtime-l1-1-0.dll
 0001:00144689       __initialize_narrow_environment 10145689 f   ucrt:api-ms-win-crt-runtime-l1-1-0.dll
 0001:0014468f       __initialize_onexit_table  1014568f f   ucrt:api-ms-win-crt-runtime-l1-1-0.dll
 0001:00144695       __register_onexit_function 10145695 f   ucrt:api-ms-win-crt-runtime-l1-1-0.dll
 0001:0014469b       __execute_onexit_table     1014569b f   ucrt:api-ms-win-crt-runtime-l1-1-0.dll
 0001:001446a1       __crt_atexit               101456a1 f   ucrt:api-ms-win-crt-runtime-l1-1-0.dll
 0001:001446a7       __crt_at_quick_exit        101456a7 f   ucrt:api-ms-win-crt-runtime-l1-1-0.dll
 0001:001446ad       __cexit                    101456ad f   ucrt:api-ms-win-crt-runtime-l1-1-0.dll
 0001:001446b3       _terminate                 101456b3 f   ucrt:api-ms-win-crt-runtime-l1-1-0.dll
 0001:001446b9       _RaiseException@16         101456b9 f   kernel32:KERNEL32.dll
 0001:001446bf       _GetLastError@0            101456bf f   kernel32:KERNEL32.dll
 0001:001446c5       _GetSystemInfo@4           101456c5 f   kernel32:KERNEL32.dll
 0001:001446cb       _VirtualProtect@16         101456cb f   kernel32:KERNEL32.dll
 0001:001446d1       _VirtualQuery@12           101456d1 f   kernel32:KERNEL32.dll
 0001:001446d7       _GetModuleHandleW@4        101456d7 f   kernel32:KERNEL32.dll
 0001:001446dd       _LoadLibraryExA@12         101456dd f   kernel32:KERNEL32.dll
 0001:001446e3       _InitializeSListHead@4     101456e3 f   kernel32:KERNEL32.dll
 0001:001446e9       _QueryPerformanceCounter@4 101456e9 f   kernel32:KERNEL32.dll
 0001:001446ef       _GetCurrentProcessId@0     101456ef f   kernel32:KERNEL32.dll
 0001:001446f5       _GetCurrentThreadId@0      101456f5 f   kernel32:KERNEL32.dll
 0001:001446fb       _GetSystemTimeAsFileTime@4 101456fb f   kernel32:KERNEL32.dll
 0001:00144701       _DisableThreadLibraryCalls@4 10145701 f   kernel32:KERNEL32.dll
 0001:00144707       _IsDebuggerPresent@0       10145707 f   kernel32:KERNEL32.dll
 0001:0014470d       _UnhandledExceptionFilter@4 1014570d f   kernel32:KERNEL32.dll
 0001:00144713       _SetUnhandledExceptionFilter@4 10145713 f   kernel32:KERNEL32.dll
 0001:00144719       _GetStartupInfoW@4         10145719 f   kernel32:KERNEL32.dll
 0001:0014471f       _IsProcessorFeaturePresent@4 1014571f f   kernel32:KERNEL32.dll
 0001:00144725       _GetCurrentProcess@0       10145725 f   kernel32:KERNEL32.dll
 0001:0014472b       _TerminateProcess@8        1014572b f   kernel32:KERNEL32.dll
 0001:00144731       ___vcrt_initialize         10145731 f   MSVCRT:ucrt_stubs.obj
 0001:00144731       ___scrt_stub_for_acrt_initialize 10145731 f   MSVCRT:ucrt_stubs.obj
 0001:00144731       ___acrt_initialize         10145731 f   MSVCRT:ucrt_stubs.obj
 0001:00144734       ___vcrt_thread_attach      10145734 f   MSVCRT:ucrt_stubs.obj
 0001:00144734       ___scrt_stub_for_acrt_thread_attach 10145734 f   MSVCRT:ucrt_stubs.obj
 0001:00144734       ___acrt_thread_attach      10145734 f   MSVCRT:ucrt_stubs.obj
 0001:00144737       ___vcrt_thread_detach      10145737 f   MSVCRT:ucrt_stubs.obj
 0001:00144737       ___scrt_stub_for_acrt_thread_detach 10145737 f   MSVCRT:ucrt_stubs.obj
 0001:00144737       ___acrt_thread_detach      10145737 f   MSVCRT:ucrt_stubs.obj
 0001:0014473a       ___acrt_uninitialize       1014573a f   MSVCRT:ucrt_stubs.obj
 0001:0014473a       ___vcrt_uninitialize       1014573a f   MSVCRT:ucrt_stubs.obj
 0001:0014473a       ___scrt_stub_for_acrt_uninitialize 1014573a f   MSVCRT:ucrt_stubs.obj
 0001:0014473d       ___vcrt_uninitialize_critical 1014573d f   MSVCRT:ucrt_stubs.obj
 0001:0014473d       ___scrt_stub_for_acrt_uninitialize_critical 1014573d f   MSVCRT:ucrt_stubs.obj
 0001:0014473d       ___acrt_uninitialize_critical 1014573d f   MSVCRT:ucrt_stubs.obj
 0001:00144740       __is_c_termination_complete 10145740 f   MSVCRT:ucrt_stubs.obj
 0001:00144740       ___scrt_stub_for_is_c_termination_complete 10145740 f   MSVCRT:ucrt_stubs.obj
 0002:00000000       __imp__FreeLibrary@4       10146000     kernel32:KERNEL32.dll
 0002:00000004       __imp__GetProcAddress@8    10146004     kernel32:KERNEL32.dll
 0002:00000008       __imp__LoadLibraryA@4      10146008     kernel32:KERNEL32.dll
 0002:0000000c       __imp__GetCurrentProcess@0 1014600c     kernel32:KERNEL32.dll
 0002:00000010       __imp__IsProcessorFeaturePresent@4 10146010     kernel32:KERNEL32.dll
 0002:00000014       __imp__GetStartupInfoW@4   10146014     kernel32:KERNEL32.dll
 0002:00000018       __imp__SetUnhandledExceptionFilter@4 10146018     kernel32:KERNEL32.dll
 0002:0000001c       __imp__UnhandledExceptionFilter@4 1014601c     kernel32:KERNEL32.dll
 0002:00000020       __imp__IsDebuggerPresent@0 10146020     kernel32:KERNEL32.dll
 0002:00000024       __imp__DisableThreadLibraryCalls@4 10146024     kernel32:KERNEL32.dll
 0002:00000028       __imp__GetSystemTimeAsFileTime@4 10146028     kernel32:KERNEL32.dll
 0002:0000002c       __imp__GetCurrentThreadId@0 1014602c     kernel32:KERNEL32.dll
 0002:00000030       __imp__GetCurrentProcessId@0 10146030     kernel32:KERNEL32.dll
 0002:00000034       __imp__QueryPerformanceCounter@4 10146034     kernel32:KERNEL32.dll
 0002:00000038       __imp__InitializeSListHead@4 10146038     kernel32:KERNEL32.dll
 0002:0000003c       __imp__LoadLibraryExA@12   1014603c     kernel32:KERNEL32.dll
 0002:00000040       __imp__GetModuleHandleW@4  10146040     kernel32:KERNEL32.dll
 0002:00000044       __imp__VirtualQuery@12     10146044     kernel32:KERNEL32.dll
 0002:00000048       __imp__VirtualProtect@16   10146048     kernel32:KERNEL32.dll
 0002:0000004c       __imp__GetSystemInfo@4     1014604c     kernel32:KERNEL32.dll
 0002:00000050       __imp__GetLastError@0      10146050     kernel32:KERNEL32.dll
 0002:00000054       __imp__RaiseException@16   10146054     kernel32:KERNEL32.dll
 0002:00000058       __imp__TerminateProcess@8  10146058     kernel32:KERNEL32.dll
 0002:0000005c       \177KERNEL32_NULL_THUNK_DATA 1014605c     kernel32:KERNEL32.dll
 0002:00000060       __imp____std_type_info_name 10146060     vcruntime:VCRUNTIME140.dll
 0002:00000064       __imp__memcpy              10146064     vcruntime:VCRUNTIME140.dll
 0002:00000068       __imp__memset              10146068     vcruntime:VCRUNTIME140.dll
 0002:0000006c       __imp__strstr              1014606c     vcruntime:VCRUNTIME140.dll
 0002:00000070       __imp____std_type_info_destroy_list 10146070     vcruntime:VCRUNTIME140.dll
 0002:00000074       __imp___except_handler4_common 10146074     vcruntime:VCRUNTIME140.dll
 0002:00000078       __imp___purecall           10146078     vcruntime:VCRUNTIME140.dll
 0002:0000007c       \177VCRUNTIME140_NULL_THUNK_DATA 1014607c     vcruntime:VCRUNTIME140.dll
 0002:00000080       __imp__free                10146080     ucrt:api-ms-win-crt-heap-l1-1-0.dll
 0002:00000084       \177api-ms-win-crt-heap-l1-1-0_NULL_THUNK_DATA 10146084     ucrt:api-ms-win-crt-heap-l1-1-0.dll
 0002:00000088       __imp____libm_sse2_tanf    10146088     ucrt:api-ms-win-crt-math-l1-1-0.dll
 0002:0000008c       __imp__ceil                1014608c     ucrt:api-ms-win-crt-math-l1-1-0.dll
 0002:00000090       __imp____libm_sse2_cosf    10146090     ucrt:api-ms-win-crt-math-l1-1-0.dll
 0002:00000094       __imp____libm_sse2_sinf    10146094     ucrt:api-ms-win-crt-math-l1-1-0.dll
 0002:00000098       __imp___except1            10146098     ucrt:api-ms-win-crt-math-l1-1-0.dll
 0002:0000009c       __imp___fpclass            1014609c     ucrt:api-ms-win-crt-math-l1-1-0.dll
 0002:000000a0       __imp____libm_sse2_acosf   101460a0     ucrt:api-ms-win-crt-math-l1-1-0.dll
 0002:000000a4       \177api-ms-win-crt-math-l1-1-0_NULL_THUNK_DATA 101460a4     ucrt:api-ms-win-crt-math-l1-1-0.dll
 0002:000000a8       __imp___initterm_e         101460a8     ucrt:api-ms-win-crt-runtime-l1-1-0.dll
 0002:000000ac       __imp___initterm           101460ac     ucrt:api-ms-win-crt-runtime-l1-1-0.dll
 0002:000000b0       __imp__terminate           101460b0     ucrt:api-ms-win-crt-runtime-l1-1-0.dll
 0002:000000b4       __imp___cexit              101460b4     ucrt:api-ms-win-crt-runtime-l1-1-0.dll
 0002:000000b8       __imp___crt_at_quick_exit  101460b8     ucrt:api-ms-win-crt-runtime-l1-1-0.dll
 0002:000000bc       __imp___crt_atexit         101460bc     ucrt:api-ms-win-crt-runtime-l1-1-0.dll
 0002:000000c0       __imp___seh_filter_dll     101460c0     ucrt:api-ms-win-crt-runtime-l1-1-0.dll
 0002:000000c4       __imp___register_onexit_function 101460c4     ucrt:api-ms-win-crt-runtime-l1-1-0.dll
 0002:000000c8       __imp___initialize_onexit_table 101460c8     ucrt:api-ms-win-crt-runtime-l1-1-0.dll
 0002:000000cc       __imp___initialize_narrow_environment 101460cc     ucrt:api-ms-win-crt-runtime-l1-1-0.dll
 0002:000000d0       __imp___configure_narrow_argv 101460d0     ucrt:api-ms-win-crt-runtime-l1-1-0.dll
 0002:000000d4       __imp___execute_onexit_table 101460d4     ucrt:api-ms-win-crt-runtime-l1-1-0.dll
 0002:000000d8       \177api-ms-win-crt-runtime-l1-1-0_NULL_THUNK_DATA 101460d8     ucrt:api-ms-win-crt-runtime-l1-1-0.dll
 0002:000000dc       ___guard_check_icall_fptr  101460dc     MSVCRT:guard_support.obj
 0002:000000e0       ___xc_a                    101460e0     MSVCRT:initializers.obj
 0002:00000af8       ___xc_z                    10146af8     MSVCRT:initializers.obj
 0002:00000afc       ___xi_a                    10146afc     MSVCRT:initializers.obj
 0002:00000b00       ___xi_z                    10146b00     MSVCRT:initializers.obj
 0002:00000b04       ___xp_a                    10146b04     MSVCRT:initializers.obj
 0002:00000b08       ___xp_z                    10146b08     MSVCRT:initializers.obj
 0002:00000b0c       ___xt_a                    10146b0c     MSVCRT:initializers.obj
 0002:00000b10       ___xt_z                    10146b10     MSVCRT:initializers.obj
 0002:00000b20       ??_7PxCollection@physx@@6B@ 10146b20     CmCollection.obj
 0002:00000b60       ??_C@_0BA@DLCJDKDM@NonTrackedAlloc@ 10146b60     CmCollection.obj
 0002:00000b70       ??_7Collection@Cm@physx@@6B@ 10146b70     CmCollection.obj
 0002:00000bb0       ??_C@_0GE@GBACBMOC@PxCollection?3?3add?5called?5for?5an@ 10146bb0     CmCollection.obj
 0002:00000c14       ??_C@_0DP@NCGGKJHI@D?3?2Download?2PhysX?94?41?2physx?2sou@ 10146c14     CmCollection.obj
 0002:00000c58       ??_C@_0EM@OMMGDOMK@PxCollection?3?3add?5called?5with?5a@ 10146c58     CmCollection.obj
 0002:00000ca8       ??_C@_0EI@GKGENLGP@d?3?2download?2physx?94?41?2physx?2sou@ 10146ca8     CmCollection.obj
 0002:00000cf0       ??_C@_0BM@OIFKLHDN@?$DMallocation?5names?5disabled?$DO@ 10146cf0     CmCollection.obj
 0002:00000d10       __xmm@41f00000000000000000000000000000 10146d10     CmCollection.obj
 0002:00000d20       __real@358637bd            10146d20     CmMathUtils.obj
 0002:00000d24       __real@3f000000            10146d24     CmMathUtils.obj
 0002:00000d28       __real@3f3504f3            10146d28     CmMathUtils.obj
 0002:00000d2c       __real@3f800000            10146d2c     CmMathUtils.obj
 0002:00000d30       __real@bf3504f3            10146d30     CmMathUtils.obj
 0002:00000d40       __xmm@3f800000000000000000000000000000 10146d40     CmMathUtils.obj
 0002:00000d50       __xmm@80000000800000008000000080000000 10146d50     CmMathUtils.obj
 0002:00000d60       ??_C@_08MDGMHCHN@PtrTable@ 10146d60     CmPtrTable.obj
 0002:00000d6c       ??_C@_04GKJNKENE@void@     10146d6c     CmPtrTable.obj
 0002:00000d74       ??_C@_07DFEBJDHE@mSingle@  10146d74     CmPtrTable.obj
 0002:00000d7c       ??_C@_05NLHHBMOH@PxU16@    10146d7c     CmPtrTable.obj
 0002:00000d84       ??_C@_06EPKHJPIM@mCount@   10146d84     CmPtrTable.obj
 0002:00000d8c       ??_C@_04DDKJGDCM@bool@     10146d8c     CmPtrTable.obj
 0002:00000d94       ??_C@_0M@DAGELID@mOwnsMemory@ 10146d94     CmPtrTable.obj
 0002:00000da0       ??_C@_0M@MMPOMMLP@mBufferUsed@ 10146da0     CmPtrTable.obj
 0002:00000dac       ??_7RadixSort@Cm@physx@@6B@ 10146dac     CmRadixSort.obj
 0002:00000db0       __xmm@00000001000000010000000100000001 10146db0     CmRadixSort.obj
 0002:00000dc0       __xmm@00000003000000020000000100000000 10146dc0     CmRadixSort.obj
 0002:00000dd0       ??_7RadixSortBuffered@Cm@physx@@6B@ 10146dd0     CmRadixSortBuffered.obj
 0002:00000dd8       ??_C@_0EG@PEPHBNJ@D?3?2Download?2PhysX?94?41?2physx?2sou@ 10146dd8     CmRadixSortBuffered.obj
 0002:00000e20       ?sBufferSize@DebugText@Cm@physx@@2HB 10146e20     CmRenderOutput.obj
 0002:00000e28       ??_C@_0EA@CANNKJHJ@D?3?2Download?2PhysX?94?41?2physx?2sou@ 10146e28     CmRenderOutput.obj
 0002:00000e68       __real@00000000            10146e68     CmRenderOutput.obj
 0002:00000e6c       __real@3e19999a            10146e6c     CmRenderOutput.obj
 0002:00000e70       __real@3e800000            10146e70     CmRenderOutput.obj
 0002:00000e74       __real@3fddb3d7            10146e74     CmRenderOutput.obj
 0002:00000e78       __real@40c90fdb            10146e78     CmRenderOutput.obj
 0002:00000e80       __xmm@7fffffff7fffffff7fffffff7fffffff 10146e80     CmRenderOutput.obj
 0002:00000e90       __real@3d4ccccd            10146e90     CmVisualization.obj
 0002:00000e94       __real@3e490fdb            10146e94     CmVisualization.obj
 0002:00000e98       __real@3e99999a            10146e98     CmVisualization.obj
 0002:00000e9c       __real@3fc00000            10146e9c     CmVisualization.obj
 0002:00000ea0       ??_C@_0BB@CPDDPFKD@GetUpdatedModule@ 10146ea0     CmWindowsModuleUpdateLoader.obj
 0002:00000eb4       ??_C@_0BA@EGLNOO@PhysXFoundation@ 10146eb4     CmWindowsDelayLoadHook.obj
 0002:00000ec4       ??_C@_0M@ILKNCJKN@PhysXCommon@ 10146ec4     CmWindowsDelayLoadHook.obj
 0002:00000ed0       ?g_PXSinCoefficients0@aos@shdfnd@physx@@3UPX_VECTORF32@123@B 10146ed0     GuBounds.obj
 0002:00000ee0       ?g_PXSinCoefficients1@aos@shdfnd@physx@@3UPX_VECTORF32@123@B 10146ee0     GuBounds.obj
 0002:00000ef0       ?g_PXSinCoefficients2@aos@shdfnd@physx@@3UPX_VECTORF32@123@B 10146ef0     GuBounds.obj
 0002:00000f00       ?g_PXCosCoefficients0@aos@shdfnd@physx@@3UPX_VECTORF32@123@B 10146f00     GuBounds.obj
 0002:00000f10       ?g_PXCosCoefficients1@aos@shdfnd@physx@@3UPX_VECTORF32@123@B 10146f10     GuBounds.obj
 0002:00000f20       ?g_PXCosCoefficients2@aos@shdfnd@physx@@3UPX_VECTORF32@123@B 10146f20     GuBounds.obj
 0002:00000f30       ?g_PXTanCoefficients0@aos@shdfnd@physx@@3UPX_VECTORF32@123@B 10146f30     GuBounds.obj
 0002:00000f40       ?g_PXTanCoefficients1@aos@shdfnd@physx@@3UPX_VECTORF32@123@B 10146f40     GuBounds.obj
 0002:00000f50       ?g_PXTanCoefficients2@aos@shdfnd@physx@@3UPX_VECTORF32@123@B 10146f50     GuBounds.obj
 0002:00000f60       ?g_PXASinCoefficients0@aos@shdfnd@physx@@3UPX_VECTORF32@123@B 10146f60     GuBounds.obj
 0002:00000f70       ?g_PXASinCoefficients1@aos@shdfnd@physx@@3UPX_VECTORF32@123@B 10146f70     GuBounds.obj
 0002:00000f80       ?g_PXASinCoefficients2@aos@shdfnd@physx@@3UPX_VECTORF32@123@B 10146f80     GuBounds.obj
 0002:00000f90       ?g_PXATanCoefficients0@aos@shdfnd@physx@@3UPX_VECTORF32@123@B 10146f90     GuBounds.obj
 0002:00000fa0       ?g_PXATanCoefficients1@aos@shdfnd@physx@@3UPX_VECTORF32@123@B 10146fa0     GuBounds.obj
 0002:00000fb0       ?g_PXATanCoefficients2@aos@shdfnd@physx@@3UPX_VECTORF32@123@B 10146fb0     GuBounds.obj
 0002:00000fc0       ?g_PXSinEstCoefficients@aos@shdfnd@physx@@3UPX_VECTORF32@123@B 10146fc0     GuBounds.obj
 0002:00000fd0       ?g_PXCosEstCoefficients@aos@shdfnd@physx@@3UPX_VECTORF32@123@B 10146fd0     GuBounds.obj
 0002:00000fe0       ?g_PXTanEstCoefficients@aos@shdfnd@physx@@3UPX_VECTORF32@123@B 10146fe0     GuBounds.obj
 0002:00000ff0       ?g_PXATanEstCoefficients@aos@shdfnd@physx@@3UPX_VECTORF32@123@B 10146ff0     GuBounds.obj
 0002:00001000       ?g_PXASinEstCoefficients@aos@shdfnd@physx@@3UPX_VECTORF32@123@B 10147000     GuBounds.obj
 0002:00001010       ?g_PXASinEstConstants@aos@shdfnd@physx@@3UPX_VECTORF32@123@B 10147010     GuBounds.obj
 0002:00001020       ?g_PXPiConstants0@aos@shdfnd@physx@@3UPX_VECTORF32@123@B 10147020     GuBounds.obj
 0002:00001030       ?g_PXReciprocalTwoPi@aos@shdfnd@physx@@3UPX_VECTORF32@123@B 10147030     GuBounds.obj
 0002:00001040       ?g_PXTwoPi@aos@shdfnd@physx@@3UPX_VECTORF32@123@B 10147040     GuBounds.obj
 0002:00001070       ??_C@_06EJKDJEDO@PxBase@   10147070     GuBounds.obj
 0002:00001078       ??_C@_0N@CDGINLLF@PxConvexMesh@ 10147078     GuBounds.obj
 0002:00001088       ??_C@_0O@PBAKPCEC@PxHeightField@ 10147088     GuBounds.obj
 0002:00001098       ??_7PxBase@physx@@6B@      10147098     GuBounds.obj
 0002:000010ac       ??_7PxConvexMesh@physx@@6B@ 101470ac     GuBounds.obj
 0002:000010e8       ??_7RefCountable@Cm@physx@@6B@ 101470e8     GuBounds.obj
 0002:000010f0       ??_7ConvexMesh@Gu@physx@@6BPxConvexMesh@2@@ 101470f0     GuBounds.obj
 0002:00001134       ??_7ConvexMesh@Gu@physx@@6BRefCountable@Cm@2@@ 10147134     GuBounds.obj
 0002:0000113c       ??_C@_0DG@DFOCGHP@Gu?3?3GeometryUnion?3?3computeBound@ 1014713c     GuBounds.obj
 0002:00001174       ??_C@_0DO@BOHFIJHJ@D?3?2Download?2PhysX?94?41?2physx?2sou@ 10147174     GuBounds.obj
 0002:000011b8       ??_C@_0EA@PBCPOJAF@d?3?2download?2physx?94?41?2physx?2sou@ 101471b8     GuBounds.obj
 0002:000011f8       __real@3a83126f            101471f8     GuBounds.obj
 0002:000011fc       __real@3f400000            101471fc     GuBounds.obj
 0002:00001200       __real@3f7fffef            10147200     GuBounds.obj
 0002:00001204       __real@3f8147ae            10147204     GuBounds.obj
 0002:00001208       __real@7e7fffff            10147208     GuBounds.obj
 0002:0000120c       __real@7f7fffff            1014720c     GuBounds.obj
 0002:00001210       __real@ba83126f            10147210     GuBounds.obj
 0002:00001214       __real@fe7fffff            10147214     GuBounds.obj
 0002:00001220       __xmm@000000003a83126f3a83126f3a83126f 10147220     GuBounds.obj
 0002:00001230       __xmm@00000000ba83126fba83126fba83126f 10147230     GuBounds.obj
 0002:00001260       __real@3f7ff972            10147260     GuBox.obj
 0002:00001290       ??_7?$EntityReport@I@Gu@physx@@6B@ 10147290     GuCCTSweepTests.obj
 0002:000012a0       __real@3b03126f            101472a0     GuCCTSweepTests.obj
 0002:000012a4       __real@40000000            101472a4     GuCCTSweepTests.obj
 0002:000012a8       __real@4b000000            101472a8     GuCCTSweepTests.obj
 0002:000012ac       __real@80000000            101472ac     GuCCTSweepTests.obj
 0002:000012d0       __real@38d1b717            101472d0     GuGeometryQuery.obj
 0002:000012d4       __real@49742400            101472d4     GuGeometryQuery.obj
 0002:00001300       ??_C@_0ED@NGGIEBJN@d?3?2download?2physx?94?41?2physx?2sou@ 10147300     GuGeometryUnion.obj
 0002:00001390       ??_7GuMeshFactory@physx@@6B@ 10147390     GuMeshFactory.obj
 0002:00001394       ??_7MeshDataBase@Gu@physx@@6B@ 10147394     GuMeshFactory.obj
 0002:00001398       ??_C@_0ED@NACNAODH@d?3?2download?2physx?94?41?2physx?2sou@ 10147398     GuMeshFactory.obj
 0002:000013dc       ??_7TriangleMeshData@Gu@physx@@6B@ 101473dc     GuMeshFactory.obj
 0002:000013e0       ??_7RTreeTriangleData@Gu@physx@@6B@ 101473e0     GuMeshFactory.obj
 0002:000013e4       ??_7BV4TriangleData@Gu@physx@@6B@ 101473e4     GuMeshFactory.obj
 0002:000013e8       ??_C@_0ED@MANKENGA@D?3?2Download?2PhysX?94?41?2physx?2sou@ 101473e8     GuMeshFactory.obj
 0002:00001430       ??_C@_0GP@NHELMDAL@Loading?5triangle?5mesh?5failed?3?5D@ 10147430     GuMeshFactory.obj
 0002:000014a0       ??_C@_0BP@CDOKDACA@RTree?5binary?5image?5load?5error?4@ 101474a0     GuMeshFactory.obj
 0002:000014c0       ??_C@_0BN@MJPNIELF@BV4?5binary?5image?5load?5error?4@ 101474c0     GuMeshFactory.obj
 0002:000014e0       ??_C@_0BO@JDPABAOF@BV32?5binary?5image?5load?5error?4@ 101474e0     GuMeshFactory.obj
 0002:00001500       ??_C@_0EA@CJLAKAAA@D?3?2Download?2PhysX?94?41?2physx?2sou@ 10147500     GuMeshFactory.obj
 0002:00001560       ??_C@_0P@GGNFNHKF@PxTriangleMesh@ 10147560     GuMetaData.obj
 0002:00001570       ??_C@_07GFCEJNGM@Valency@  10147570     GuMetaData.obj
 0002:00001578       ??_C@_07NHGKEEIN@mOffset@  10147578     GuMetaData.obj
 0002:00001580       ??_C@_0BB@BAGHBMNJ@BigConvexRawData@ 10147580     GuMetaData.obj
 0002:00001594       ??_C@_07PBDEJAAC@mSubdiv@  10147594     GuMetaData.obj
 0002:0000159c       ??_C@_0L@HNPACPGH@mNbSamples@ 1014759c     GuMetaData.obj
 0002:000015a8       ??_C@_04NCKNBPPK@PxU8@     101475a8     GuMetaData.obj
 0002:000015b0       ??_C@_08DEPEKJNI@mSamples@ 101475b0     GuMetaData.obj
 0002:000015bc       ??_C@_05LMJPANIN@PxU32@    101475bc     GuMetaData.obj
 0002:000015c4       ??_C@_08IJDNJBMI@mNbVerts@ 101475c4     GuMetaData.obj
 0002:000015d0       ??_C@_0M@MMKMIJAF@mNbAdjVerts@ 101475d0     GuMetaData.obj
 0002:000015dc       ??_C@_0L@EOKMNILC@mValencies@ 101475dc     GuMetaData.obj
 0002:000015e8       ??_C@_0P@DLGEAMHJ@mAdjacentVerts@ 101475e8     GuMetaData.obj
 0002:000015f8       ??_C@_0O@PFOPBKAM@BigConvexData@ 101475f8     GuMetaData.obj
 0002:00001608       ??_C@_05PLKALGFN@mData@    10147608     GuMetaData.obj
 0002:00001610       ??_C@_08PEMCLHEM@mVBuffer@ 10147610     GuMetaData.obj
 0002:0000161c       ??_C@_09FBMAGD@Alignment@  1014761c     GuMetaData.obj
 0002:00001628       ??_C@_0BE@KFHIBEEA@InternalObjectsData@ 10147628     GuMetaData.obj
 0002:0000163c       ??_C@_06GIEBFILM@PxReal@   1014763c     GuMetaData.obj
 0002:00001644       ??_C@_07NKGFFIBH@mRadius@  10147644     GuMetaData.obj
 0002:0000164c       ??_C@_08EHFCACAE@mExtents@ 1014764c     GuMetaData.obj
 0002:00001658       ??_C@_0BA@LFMGGCBK@HullPolygonData@ 10147658     GuMetaData.obj
 0002:00001668       ??_C@_06BOHHGLB@mPlane@    10147668     GuMetaData.obj
 0002:00001670       ??_C@_06EHMLHGLN@mVRef8@   10147670     GuMetaData.obj
 0002:00001678       ??_C@_09BAHHHINI@mMinIndex@ 10147678     GuMetaData.obj
 0002:00001684       ??_C@_0P@GBLBPIPB@ConvexHullData@ 10147684     GuMetaData.obj
 0002:00001694       ??_C@_09JDCJAPKD@PxBounds3@ 10147694     GuMetaData.obj
 0002:000016a0       ??_C@_05NDNHIFA@mAABB@     101476a0     GuMetaData.obj
 0002:000016a8       ??_C@_06KDGGGLIJ@PxVec3@   101476a8     GuMetaData.obj
 0002:000016b0       ??_C@_0O@LNOGEMJI@mCenterOfMass@ 101476b0     GuMetaData.obj
 0002:000016c0       ??_C@_09CNMCBBKH@mPolygons@ 101476c0     GuMetaData.obj
 0002:000016cc       ??_C@_0BC@KKPDCFJC@mBigConvexRawData@ 101476cc     GuMetaData.obj
 0002:000016e0       ??_C@_08ELDMKGKH@mNbEdges@ 101476e0     GuMetaData.obj
 0002:000016ec       ??_C@_0BA@CGLOHBAC@mNbHullVertices@ 101476ec     GuMetaData.obj
 0002:000016fc       ??_C@_0M@HGFFLLDM@mNbPolygons@ 101476fc     GuMetaData.obj
 0002:00001708       ??_C@_09BHJEMDGO@mInternal@ 10147708     GuMetaData.obj
 0002:00001714       ??_C@_0L@GMFHOMKA@ConvexMesh@ 10147714     GuMetaData.obj
 0002:00001720       ??_C@_0N@KECKKFLK@RefCountable@ 10147720     GuMetaData.obj
 0002:00001730       ??_C@_09ILEBDLJH@mHullData@ 10147730     GuMetaData.obj
 0002:0000173c       ??_C@_03DKDIKGNC@mNb@      1014773c     GuMetaData.obj
 0002:00001740       ??_C@_0P@ENLHFHMD@mBigConvexData@ 10147740     GuMetaData.obj
 0002:00001750       ??_C@_05ILALLCHK@mMass@    10147750     GuMetaData.obj
 0002:00001758       ??_C@_07DBPDADGB@PxMat33@  10147758     GuMetaData.obj
 0002:00001760       ??_C@_08FNBHNDBI@mInertia@ 10147760     GuMetaData.obj
 0002:0000176c       ??_C@_0O@FCKNKLMJ@GuMeshFactory@ 1014776c     GuMetaData.obj
 0002:0000177c       ??_C@_0N@EGBCLMAK@mMeshFactory@ 1014777c     GuMetaData.obj
 0002:0000178c       ??_C@_0BE@CJJAMAMK@PxHeightFieldSample@ 1014778c     GuMetaData.obj
 0002:000017a0       ??_C@_05MBLIPEMA@PxI16@    101477a0     GuMetaData.obj
 0002:000017a8       ??_C@_06LNLHEAAG@height@   101477a8     GuMetaData.obj
 0002:000017b0       ??_C@_0N@HHDGHJN@PxBitAndByte@ 101477b0     GuMetaData.obj
 0002:000017c0       ??_C@_0P@MBBMLBO@materialIndex0@ 101477c0     GuMetaData.obj
 0002:000017d0       ??_C@_0P@BFAKPKFP@materialIndex1@ 101477d0     GuMetaData.obj
 0002:000017e0       ??_C@_0BD@EBLPJEOE@PxHeightFieldFlags@ 101477e0     GuMetaData.obj
 0002:000017f4       ??_C@_0BK@FNNCFFCN@PxHeightFieldFormat?3?3Enum@ 101477f4     GuMetaData.obj
 0002:00001810       ??_C@_0BA@CLNFMAAA@HeightFieldData@ 10147810     GuMetaData.obj
 0002:00001820       ??_C@_04IMCGAIPI@rows@     10147820     GuMetaData.obj
 0002:00001828       ??_C@_07HIFEPIJN@columns@  10147828     GuMetaData.obj
 0002:00001830       ??_C@_08MOAGOABI@rowLimit@ 10147830     GuMetaData.obj
 0002:0000183c       ??_C@_08BAGEHOBO@colLimit@ 1014783c     GuMetaData.obj
 0002:00001848       ??_C@_09LKDBLADF@nbColumns@ 10147848     GuMetaData.obj
 0002:00001854       ??_C@_07ODIFGGLK@samples@  10147854     GuMetaData.obj
 0002:0000185c       ??_C@_0BE@POHEGOJG@convexEdgeThreshold@ 1014785c     GuMetaData.obj
 0002:00001870       ??_C@_05GECEPKB@flags@     10147870     GuMetaData.obj
 0002:00001878       ??_C@_06DLEPGFEF@format@   10147878     GuMetaData.obj
 0002:00001880       ??_C@_0BF@MOGDNMPL@PxMaterialTableIndex@ 10147880     GuMetaData.obj
 0002:00001898       ??_C@_0M@JMJICJJO@HeightField@ 10147898     GuMetaData.obj
 0002:000018a4       ??_C@_0O@ENGHMLJP@mSampleStride@ 101478a4     GuMetaData.obj
 0002:000018b4       ??_C@_0L@EBEEMFFB@mMinHeight@ 101478b4     GuMetaData.obj
 0002:000018c0       ??_C@_0L@EAEIFPOF@mMaxHeight@ 101478c0     GuMetaData.obj
 0002:000018cc       ??_C@_0N@FEFJOKKE@mModifyCount@ 101478cc     GuMetaData.obj
 0002:000018dc       ??_C@_09PHDKHCK@RTreePage@ 101478dc     GuMetaData.obj
 0002:000018e8       ??_C@_04LLPOBGED@minx@     101478e8     GuMetaData.obj
 0002:000018f0       ??_C@_04KCOFCHAC@miny@     101478f0     GuMetaData.obj
 0002:000018f8       ??_C@_04IJMIHEMB@minz@     101478f8     GuMetaData.obj
 0002:00001900       ??_C@_04GGOBOBGO@maxx@     10147900     GuMetaData.obj
 0002:00001908       ??_C@_04HPPKNACP@maxy@     10147908     GuMetaData.obj
 0002:00001910       ??_C@_04FENHIDOM@maxz@     10147910     GuMetaData.obj
 0002:00001918       ??_C@_04HHDFEJON@ptrs@     10147918     GuMetaData.obj
 0002:00001920       ??_C@_05FFEIGAJF@RTree@    10147920     GuMetaData.obj
 0002:00001928       ??_C@_06OMCHPNEO@PxVec4@   10147928     GuMetaData.obj
 0002:00001930       ??_C@_0L@NBIFEFLN@mBoundsMin@ 10147930     GuMetaData.obj
 0002:0000193c       ??_C@_0L@MDAOKBNC@mBoundsMax@ 1014793c     GuMetaData.obj
 0002:00001948       ??_C@_0N@NJEHLCOF@mInvDiagonal@ 10147948     GuMetaData.obj
 0002:00001958       ??_C@_0BA@BEFIGPFG@mDiagonalScaler@ 10147958     GuMetaData.obj
 0002:00001968       ??_C@_09DICGGKGO@mPageSize@ 10147968     GuMetaData.obj
 0002:00001974       ??_C@_0O@BOFFCNOL@mNumRootPages@ 10147974     GuMetaData.obj
 0002:00001984       ??_C@_0L@JKLGBKAE@mNumLevels@ 10147984     GuMetaData.obj
 0002:00001990       ??_C@_0M@PHDOHJGK@mTotalNodes@ 10147990     GuMetaData.obj
 0002:0000199c       ??_C@_0M@GDGHALAO@mTotalPages@ 1014799c     GuMetaData.obj
 0002:000019a8       ??_C@_06MHCBBJGP@mFlags@   101479a8     GuMetaData.obj
 0002:000019b0       ??_C@_06MMNBLHOK@mPages@   101479b0     GuMetaData.obj
 0002:000019b8       ??_C@_0L@LEOGNOEC@SourceMesh@ 101479b8     GuMetaData.obj
 0002:000019c4       ??_C@_06JFCLJMNN@mVerts@   101479c4     GuMetaData.obj
 0002:000019cc       ??_C@_07MPIKOOAP@mNbTris@  101479cc     GuMetaData.obj
 0002:000019d4       ??_C@_0N@FBMOMEHF@mTriangles32@ 101479d4     GuMetaData.obj
 0002:000019e4       ??_C@_0N@DGCGNFBP@mTriangles16@ 101479e4     GuMetaData.obj
 0002:000019f4       ??_C@_06DHAAKLFK@mRemap@   101479f4     GuMetaData.obj
 0002:000019fc       ??_C@_0O@NLNHFNO@QuantizedAABB@ 101479fc     GuMetaData.obj
 0002:00001a0c       ??_C@_0BC@OOGBEMHH@mData?$FL0?$FN?4mExtents@ 10147a0c     GuMetaData.obj
 0002:00001a20       ??_C@_0BB@OCEDKIEF@mData?$FL0?$FN?4mCenter@ 10147a20     GuMetaData.obj
 0002:00001a34       ??_C@_0BC@HFMEAABI@mData?$FL1?$FN?4mExtents@ 10147a34     GuMetaData.obj
 0002:00001a48       ??_C@_0BB@CDMNHHIF@mData?$FL1?$FN?4mCenter@ 10147a48     GuMetaData.obj
 0002:00001a5c       ??_C@_0BC@CFKNCOI@mData?$FL2?$FN?4mExtents@ 10147a5c     GuMetaData.obj
 0002:00001a70       ??_C@_0BB@LKCPBBIE@mData?$FL2?$FN?4mCenter@ 10147a70     GuMetaData.obj
 0002:00001a84       ??_C@_0O@MJJKKPFN@BVDataPackedQ@ 10147a84     GuMetaData.obj
 0002:00001a94       ??_C@_0M@PNCEBOG@LocalBounds@ 10147a94     GuMetaData.obj
 0002:00001aa0       ??_C@_07GNKDIIKJ@mCenter@  10147aa0     GuMetaData.obj
 0002:00001aa8       ??_C@_05KNFBNCOH@float@    10147aa8     GuMetaData.obj
 0002:00001ab0       ??_C@_0BC@LADJKHPL@mExtentsMagnitude@ 10147ab0     GuMetaData.obj
 0002:00001ac4       ??_C@_07HELIOLAF@BV4Tree@  10147ac4     GuMetaData.obj
 0002:00001acc       ??_C@_0P@EMMDNPMH@mMeshInterface@ 10147acc     GuMetaData.obj
 0002:00001adc       ??_C@_0N@DCKMHLCL@mLocalBounds@ 10147adc     GuMetaData.obj
 0002:00001aec       ??_C@_08EEJOMIJL@mNbNodes@ 10147aec     GuMetaData.obj
 0002:00001af8       ??_C@_09FGKNPI@mInitData@  10147af8     GuMetaData.obj
 0002:00001b04       ??_C@_0BC@CLDEHKCO@mCenterOrMinCoeff@ 10147b04     GuMetaData.obj
 0002:00001b18       ??_C@_0BD@LAOLBNJ@mExtentsOrMaxCoeff@ 10147b18     GuMetaData.obj
 0002:00001b2c       ??_C@_0P@JEECKKBL@mUserAllocated@ 10147b2c     GuMetaData.obj
 0002:00001b3c       ??_C@_0L@GLIMNECG@mQuantized@ 10147b3c     GuMetaData.obj
 0002:00001b48       ??_C@_08BNDBAGDH@mPadding@ 10147b48     GuMetaData.obj
 0002:00001b54       ??_C@_0N@OJNNNLIB@TriangleMesh@ 10147b54     GuMetaData.obj
 0002:00001b64       ??_C@_0M@OGEDMEAL@mNbVertices@ 10147b64     GuMetaData.obj
 0002:00001b70       ??_C@_0N@MGGDNHNI@mNbTriangles@ 10147b70     GuMetaData.obj
 0002:00001b80       ??_C@_09LNNEGOJA@mVertices@ 10147b80     GuMetaData.obj
 0002:00001b8c       ??_C@_0L@KBOFAKLO@mTriangles@ 10147b8c     GuMetaData.obj
 0002:00001b98       ??_C@_0P@MHDFIHLD@mExtraTrigData@ 10147b98     GuMetaData.obj
 0002:00001ba8       ??_C@_0N@MGIKKCI@mGeomEpsilon@ 10147ba8     GuMetaData.obj
 0002:00001bb8       ??_C@_0BB@IFLOOCNA@mMaterialIndices@ 10147bb8     GuMetaData.obj
 0002:00001bcc       ??_C@_0L@OPJMBFMI@mFaceRemap@ 10147bcc     GuMetaData.obj
 0002:00001bd8       ??_C@_0N@BIOECAPM@mAdjacencies@ 10147bd8     GuMetaData.obj
 0002:00001be8       ??_C@_0BA@OCOIGPII@mGRB_triIndices@ 10147be8     GuMetaData.obj
 0002:00001bf8       ??_C@_0BE@JPINNDAH@mGRB_triAdjacencies@ 10147bf8     GuMetaData.obj
 0002:00001c0c       ??_C@_0P@EDFJJHEF@mGRB_faceRemap@ 10147c0c     GuMetaData.obj
 0002:00001c1c       ??_C@_0O@CKMBAIFN@mGRB_BV32Tree@ 10147c1c     GuMetaData.obj
 0002:00001c2c       ??_C@_0BC@IFGECKF@RTreeTriangleMesh@ 10147c2c     GuMetaData.obj
 0002:00001c40       ??_C@_06JDIHDDGN@mRTree@   10147c40     GuMetaData.obj
 0002:00001c48       ??_C@_0BA@LNNFPOKA@BV4TriangleMesh@ 10147c48     GuMetaData.obj
 0002:00001c58       ??_C@_08FKLPEGDB@mBV4Tree@ 10147c58     GuMetaData.obj
 0002:00001c64       ??_C@_0BG@EAPGHGEI@MaterialIndicesStruct@ 10147c64     GuMetaData.obj
 0002:00001c7c       ??_C@_07OKCKIPNN@indices@  10147c7c     GuMetaData.obj
 0002:00001c84       ??_C@_0L@KCBHBGBP@numIndices@ 10147c84     GuMetaData.obj
 0002:00001c90       ??_C@_03PNAAIPML@pad@      10147c90     GuMetaData.obj
 0002:00001c94       ??_C@_0BK@GNJGHDGO@PxConvexMeshGeometryFlags@ 10147c94     GuMetaData.obj
 0002:00001cb0       ??_C@_0BJ@LIOOOKID@ShadowConvexMeshGeometry@ 10147cb0     GuMetaData.obj
 0002:00001ccc       ??_C@_0BF@PJFPGDNP@PxGeometryType?3?3Enum@ 10147ccc     GuMetaData.obj
 0002:00001ce4       ??_C@_05GNIIDDHH@mType@    10147ce4     GuMetaData.obj
 0002:00001cec       ??_C@_0M@JFNDEGCE@PxMeshScale@ 10147cec     GuMetaData.obj
 0002:00001cf8       ??_C@_05MHMEBBGO@scale@    10147cf8     GuMetaData.obj
 0002:00001d00       ??_C@_0L@OKMLGDHH@convexMesh@ 10147d00     GuMetaData.obj
 0002:00001d0c       ??_C@_09PLMNFMJI@meshFlags@ 10147d0c     GuMetaData.obj
 0002:00001d18       ??_C@_0BB@EINMAHMD@paddingFromFlags@ 10147d18     GuMetaData.obj
 0002:00001d2c       ??_C@_08CICKEKCM@hullData@ 10147d2c     GuMetaData.obj
 0002:00001d38       ??_C@_0O@EOELHBFF@gpuCompatible@ 10147d38     GuMetaData.obj
 0002:00001d48       ??_C@_0BE@FFPGAPHN@PxMeshGeometryFlags@ 10147d48     GuMetaData.obj
 0002:00001d5c       ??_C@_0BL@KABFLNEB@ShadowTriangleMeshGeometry@ 10147d5c     GuMetaData.obj
 0002:00001d78       ??_C@_0N@FKKDJAHE@triangleMesh@ 10147d78     GuMetaData.obj
 0002:00001d88       ??_C@_08BEABJAHJ@meshData@ 10147d88     GuMetaData.obj
 0002:00001d94       ??_C@_0BA@NGIONHFJ@materialIndices@ 10147d94     GuMetaData.obj
 0002:00001da4       ??_C@_09JGGNEAGH@materials@ 10147da4     GuMetaData.obj
 0002:00001db0       ??_C@_0BK@OIFEOHNJ@ShadowHeightFieldGeometry@ 10147db0     GuMetaData.obj
 0002:00001dcc       ??_C@_0M@IEKJPCGG@heightField@ 10147dcc     GuMetaData.obj
 0002:00001dd8       ??_C@_0M@LHLNPPJ@heightScale@ 10147dd8     GuMetaData.obj
 0002:00001de4       ??_C@_08GJPCBGLE@rowScale@ 10147de4     GuMetaData.obj
 0002:00001df0       ??_C@_0M@HHBHEPCE@columnScale@ 10147df0     GuMetaData.obj
 0002:00001dfc       ??_C@_0BB@PMIIHDKK@heightFieldFlags@ 10147dfc     GuMetaData.obj
 0002:00001e10       ??_C@_0BA@DMOKLLHN@heightFieldData@ 10147e10     GuMetaData.obj
 0002:00001e20       ??_C@_0BE@IKADPPC@ShadowPlaneGeometry@ 10147e20     GuMetaData.obj
 0002:00001e34       ??_C@_0BF@PIKLLBGN@ShadowSphereGeometry@ 10147e34     GuMetaData.obj
 0002:00001e4c       ??_C@_06KGHINEPG@radius@   10147e4c     GuMetaData.obj
 0002:00001e54       ??_C@_0BG@OBHJHKMO@ShadowCapsuleGeometry@ 10147e54     GuMetaData.obj
 0002:00001e6c       ??_C@_0L@PMAANELH@halfHeight@ 10147e6c     GuMetaData.obj
 0002:00001e78       ??_C@_0BC@DMJNHLLO@ShadowBoxGeometry@ 10147e78     GuMetaData.obj
 0002:00001e8c       ??_C@_0M@CMAEPJOI@halfExtents@ 10147e8c     GuMetaData.obj
 0002:00001e98       ??_C@_0BH@PKALDLFA@PxConvexMeshGeometryLL@ 10147e98     GuMetaData.obj
 0002:00001eb0       ??_C@_0BJ@GAFBNAAE@PxTriangleMeshGeometryLL@ 10147eb0     GuMetaData.obj
 0002:00001ecc       ??_C@_0BI@IIFLCNOC@PxHeightFieldGeometryLL@ 10147ecc     GuMetaData.obj
 0002:00001ee4       ??_C@_0BA@NAHKMBFO@PxPlaneGeometry@ 10147ee4     GuMetaData.obj
 0002:00001ef4       ??_C@_0BB@CHBDIEFA@PxSphereGeometry@ 10147ef4     GuMetaData.obj
 0002:00001f08       ??_C@_0BC@LJMOIOOK@PxCapsuleGeometry@ 10147f08     GuMetaData.obj
 0002:00001f1c       ??_C@_0O@OEDJDNFP@PxBoxGeometry@ 10147f1c     GuMetaData.obj
 0002:00001f2c       ??_C@_0BC@ICOOCLFG@Gu?3?3GeometryUnion@ 10147f2c     GuMetaData.obj
 0002:00001f60       ??_7?$SupportLocalImpl@VConvexHullV@Gu@physx@@@Gu@physx@@6B@ 10147f60     GuMTD.obj
 0002:00001f70       ??_7?$SupportLocalImpl@VConvexHullNoScaleV@Gu@physx@@@Gu@physx@@6B@ 10147f70     GuMTD.obj
 0002:00001f80       ??_7?$SupportLocalImpl@VBoxV@Gu@physx@@@Gu@physx@@6B@ 10147f80     GuMTD.obj
 0002:00001f90       ??_7SupportLocal@Gu@physx@@6B@ 10147f90     GuMTD.obj
 0002:00001fa0       ?absMask@?1??FAbs@aos@shdfnd@physx@@YA?AT__m128@@T5@@Z@4QBIB 10147fa0     GuMTD.obj
 0002:00001fb0       ??_7GjkConvexBase@Gu@physx@@6B@ 10147fb0     GuMTD.obj
 0002:00001fc8       ??_7GjkConvex@Gu@physx@@6B@ 10147fc8     GuMTD.obj
 0002:00001fe0       ??_7?$LocalConvex@VCapsuleV@Gu@physx@@@Gu@physx@@6B@ 10147fe0     GuMTD.obj
 0002:00001ff8       ??_7?$LocalConvex@VConvexHullV@Gu@physx@@@Gu@physx@@6B@ 10147ff8     GuMTD.obj
 0002:00002010       __real@2edbe6ff            10148010     GuMTD.obj
 0002:00002014       __real@34000000            10148014     GuMTD.obj
 0002:00002018       __real@396bedfa            10148018     GuMTD.obj
 0002:0000201c       __real@3ccccccd            1014801c     GuMTD.obj
 0002:00002020       __real@3dcccccd            10148020     GuMTD.obj
 0002:00002024       __real@3e4ccccd            10148024     GuMTD.obj
 0002:00002028       __real@3f7ff2e5            10148028     GuMTD.obj
 0002:0000202c       __real@bf000000            1014802c     GuMTD.obj
 0002:00002030       __real@bf800000            10148030     GuMTD.obj
 0002:00002034       __real@ff7fffff            10148034     GuMTD.obj
 0002:00002040       __xmm@0000000000000000000000003f800000 10148040     GuMTD.obj
 0002:00002050       __xmm@00000000000000003f80000000000000 10148050     GuMTD.obj
 0002:00002060       __xmm@000000003f8000000000000000000000 10148060     GuMTD.obj
 0002:00002070       __xmm@000000003f8000003f8000003f800000 10148070     GuMTD.obj
 0002:00002080       __xmm@00000000ffffffffffffffffffffffff 10148080     GuMTD.obj
 0002:00002090       __xmm@ffffffffffffffffffffffffffffffff 10148090     GuMTD.obj
 0002:000020c0       ??_7?$RelativeConvex@VBoxV@Gu@physx@@@Gu@physx@@6B@ 101480c0     GuOverlapTests.obj
 0002:000020d8       ??_7?$RelativeConvex@VConvexHullV@Gu@physx@@@Gu@physx@@6B@ 101480d8     GuOverlapTests.obj
 0002:000020f0       ??_C@_0EC@MLIJOGHA@Height?5Field?5Overlap?5test?5calle@ 101480f0     GuOverlapTests.obj
 0002:00002138       ??_C@_0EE@DAGHGNKL@D?3?2Download?2PhysX?94?41?2physx?2sou@ 10148138     GuOverlapTests.obj
 0002:000021a8       ??_C@_0EC@GJLDADPE@Height?5Field?5Raycast?5test?5calle@ 101481a8     GuRaycastTests.obj
 0002:000021f0       ??_C@_0EE@MDKKBKAB@D?3?2Download?2PhysX?94?41?2physx?2sou@ 101481f0     GuRaycastTests.obj
 0002:00002234       __real@1e3ce508            10148234     GuRaycastTests.obj
 0002:00002238       __real@28800000            10148238     GuRaycastTests.obj
 0002:0000223c       __real@33d6bf95            1014823c     GuRaycastTests.obj
 0002:00002240       __real@3727c5ac            10148240     GuRaycastTests.obj
 0002:00002244       __real@3f0147ae            10148244     GuRaycastTests.obj
 0002:00002248       __real@3f7ffffe            10148248     GuRaycastTests.obj
 0002:0000224c       __real@3f800347            1014824c     GuRaycastTests.obj
 0002:00002250       __real@41200000            10148250     GuRaycastTests.obj
 0002:00002254       __real@b3d6bf95            10148254     GuRaycastTests.obj
 0002:00002258       __real@b8d1b717            10148258     GuRaycastTests.obj
 0002:00002288       ??_7?$MeshHitCallback@UPxRaycastHit@physx@@@Gu@physx@@6B@ 10148288     GuSweepMTD.obj
 0002:00002290       ??_7MeshMTDGenerationCallback@@6B@ 10148290     GuSweepMTD.obj
 0002:00002298       ??_7MidPhaseQueryLocalReport@@6B@ 10148298     GuSweepMTD.obj
 0002:000022a0       __real@3f933333            101482a0     GuSweepMTD.obj
 0002:000022d0       __real@3c23d70a            101482d0     GuSweepSharedTests.obj
 0002:000022d4       __real@42c80000            101482d4     GuSweepSharedTests.obj
 0002:00002300       ??_C@_0EA@GNDJNJGB@Height?5Field?5Sweep?5test?5called?5@ 10148300     GuSweepTests.obj
 0002:00002340       ??_C@_0EC@PANGJGGC@D?3?2Download?2PhysX?94?41?2physx?2sou@ 10148340     GuSweepTests.obj
 0002:00002384       ??_7?$LocalConvex@VBoxV@Gu@physx@@@Gu@physx@@6B@ 10148384     GuSweepTests.obj
 0002:0000239c       ??_7?$LocalConvex@VTriangleV@Gu@physx@@@Gu@physx@@6B@ 1014839c     GuSweepTests.obj
 0002:000023b4       __real@3eaaaa9f            101483b4     GuSweepTests.obj
 0002:000023e0       ??_C@_0EF@EAIFPJLM@D?3?2Download?2PhysX?94?41?2physx?2sou@ 101483e0     GuAABBTreeBuild.obj
 0002:00002450       ??_7PxBVHStructure@physx@@6B@ 10148450     GuBVHStructure.obj
 0002:00002478       ??_C@_0P@CDPKBIIF@PxBVHStructure@ 10148478     GuBVHStructure.obj
 0002:00002488       ??_7BVHStructure@Gu@physx@@6BPxBVHStructure@2@@ 10148488     GuBVHStructure.obj
 0002:000024b0       ??_7BVHStructure@Gu@physx@@6BRefCountable@Cm@2@@ 101484b0     GuBVHStructure.obj
 0002:000024b8       ??_C@_0EE@LEDHJEEJ@D?3?2Download?2PhysX?94?41?2physx?2sou@ 101484b8     GuBVHStructure.obj
 0002:000024fc       ??_C@_0DF@GMOKOMPK@Gu?3?3BVHStructure?3?3release?3?5doub@ 101484fc     GuBVHStructure.obj
 0002:00002568       ??_C@_0ED@CIEJAMEN@D?3?2Download?2PhysX?94?41?2physx?2sou@ 10148568     GuCCDSweepConvexMesh.obj
 0002:000025c4       __real@3c343958            101485c4     GuCCDSweepConvexMesh.obj
 0002:000025c8       __real@3ca3d70a            101485c8     GuCCDSweepConvexMesh.obj
 0002:000025cc       __real@3f0ccccd            101485cc     GuCCDSweepConvexMesh.obj
 0002:000025d0       __real@3f8ccccd            101485d0     GuCCDSweepConvexMesh.obj
 0002:000025d4       __real@b58637bd            101485d4     GuCCDSweepConvexMesh.obj
 0002:000025e0       __xmm@00000000000000003f8000003f800000 101485e0     GuCCDSweepConvexMesh.obj
 0002:000025f0       __xmm@0000000000000000fe7ffffffe7fffff 101485f0     GuCCDSweepConvexMesh.obj
 0002:00002600       __xmm@fe7fffff7e7fffff7e7fffff7e7fffff 10148600     GuCCDSweepConvexMesh.obj
 0002:00002630       ??_7?$RelativeConvex@VCapsuleV@Gu@physx@@@Gu@physx@@6B@ 10148630     GuCCDSweepPrimitives.obj
 0002:00002648       ??_7?$RelativeConvex@VTriangleV@Gu@physx@@@Gu@physx@@6B@ 10148648     GuCCDSweepPrimitives.obj
 0002:00002660       __real@3ba3d70a            10148660     GuCCDSweepPrimitives.obj
 0002:00002664       __real@501502f9            10148664     GuCCDSweepPrimitives.obj
 0002:00002770       __real@3f7fbe77            10148770     GuContactBoxBox.obj
 0002:000027c0       __real@40800000            101487c0     GuContactCapsuleCapsule.obj
 0002:000027c4       __real@c0000000            101487c4     GuContactCapsuleCapsule.obj
 0002:00002830       __real@358637be            10148830     GuContactCapsuleMesh.obj
 0002:00002834       __real@3eaaaaab            10148834     GuContactCapsuleMesh.obj
 0002:00002888       ??_7ConvexMeshContactGenerationCallback@@6B@ 10148888     GuContactConvexMesh.obj
 0002:00002900       __real@3c8efa35            10148900     GuContactPolygonPolygon.obj
 0002:00002904       __real@3ec90fdb            10148904     GuContactPolygonPolygon.obj
 0002:00002990       ??_C@_0DP@BGFLMIKG@D?3?2Download?2PhysX?94?41?2physx?2sou@ 10148990     GuContactSphereMesh.obj
 0002:00002a10       ??_C@_0EM@HBKMMPHP@D?3?2Download?2PhysX?94?41?2physx?2sou@ 10148a10     GuBigConvexData.obj
 0002:00002a80       ??_C@_0EJ@CCOHIOJK@D?3?2Download?2PhysX?94?41?2physx?2sou@ 10148a80     GuConvexMesh.obj
 0002:00002acc       ??_C@_0DM@NEJKOFIP@Loading?5convex?5mesh?5failed?3?5Dep@ 10148acc     GuConvexMesh.obj
 0002:00002b08       ??_C@_0DD@GDAMDLJL@Gu?3?3ConvexMesh?3?3release?3?5double@ 10148b08     GuConvexMesh.obj
 0002:00002b60       __xmm@000000000000000000000000ffffffff 10148b60     GuConvexSupportTable.obj
 0002:00002b70       __xmm@0000000000000000ffffffff00000000 10148b70     GuConvexSupportTable.obj
 0002:00002b80       __xmm@0000000000000000ffffffffffffffff 10148b80     GuConvexSupportTable.obj
 0002:00002b90       __xmm@00000000ffffffff0000000000000000 10148b90     GuConvexSupportTable.obj
 0002:00002ba0       __xmm@00000000ffffffff00000000ffffffff 10148ba0     GuConvexSupportTable.obj
 0002:00002bb0       __xmm@00000000ffffffffffffffff00000000 10148bb0     GuConvexSupportTable.obj
 0002:00002c60       __real@2b8cbccc            10148c60     GuDistanceSegmentTriangle.obj
 0002:00002ce0       ??_7PxHeightField@physx@@6B@ 10148ce0     GuHeightField.obj
 0002:00002d30       ??_7HeightField@Gu@physx@@6BPxHeightField@2@@ 10148d30     GuHeightField.obj
 0002:00002d88       ??_7HeightField@Gu@physx@@6BRefCountable@Cm@2@@ 10148d88     GuHeightField.obj
 0002:00002d90       ??_C@_0DL@DNGFPCEG@Gu?3?3HeightField?3?3onRefCountZero@ 10148d90     GuHeightField.obj
 0002:00002dd0       ??_C@_0EG@DPEOFMFH@D?3?2Download?2PhysX?94?41?2physx?2sou@ 10148dd0     GuHeightField.obj
 0002:00002e18       ??_C@_0CI@DMKEKGNK@Gu?3?3HeightField?3?3load?3?5PX_ALLOC@ 10148e18     GuHeightField.obj
 0002:00002e40       ??_C@_0DJ@BKNPBMJH@D?3?2Download?2PhysX?94?41?2physx?2sou@ 10148e40     GuHeightField.obj
 0002:00002ea0       __real@3a03126f            10148ea0     GuHeightFieldUtil.obj
 0002:00002ea4       __real@3f19999a            10148ea4     GuHeightFieldUtil.obj
 0002:00002f10       ??_7HeightFieldTraceSegmentReport@@6B@ 10148f10     GuSweepsHF.obj
 0002:00002f18       ??_7CapsuleTraceSegmentReport@@6B@ 10148f18     GuSweepsHF.obj
 0002:00002f20       ??_7ConvexTraceSegmentReport@@6B@ 10148f20     GuSweepsHF.obj
 0002:00002f28       ??_7BoxTraceSegmentReport@@6B@ 10148f28     GuSweepsHF.obj
 0002:00002f30       __real@aedbe6ff            10148f30     GuSweepsHF.obj
 0002:00002f40       __xmm@ffffffff00000001ffffffff00000001 10148f40     GuSweepsHF.obj
 0002:00002f70       __real@3089705f            10148f70     GuIntersectionRayBox.obj
 0002:00002f74       __real@b4000000            10148f74     GuIntersectionRayBox.obj
 0002:00002f80       __xmm@000000003089705f3089705f3089705f 10148f80     GuIntersectionRayBox.obj
 0002:00002fd0       ??_C@_0EA@IBJOOHGI@D?3?2Download?2PhysX?94?41?2physx?2sou@ 10148fd0     GuBV4.obj
 0002:00003030       ??_C@_0EF@FPLNOPCA@D?3?2Download?2PhysX?94?41?2physx?2sou@ 10149030     GuBV4Build.obj
 0002:00003078       __real@38000100            10149078     GuBV4Build.obj
 0002:0000307c       __real@3e93cd3a            1014907c     GuBV4Build.obj
 0002:00003080       __real@46fffe00            10149080     GuBV4Build.obj
 0002:00003084       __real@be93cd3a            10149084     GuBV4Build.obj
 0002:000030b0       __xmm@0000ffff0000ffff0000ffff0000ffff 101490b0     GuBV4_AABBSweep.obj
 0002:000031c0       __xmm@000000007f7fffff0000000000000000 101491c0     GuMidphaseBV4.obj
 0002:00003210       ??_C@_0FD@EHCCILIF@Adjacency?5information?5not?5creat@ 10149210     GuMeshQuery.obj
 0002:00003268       ??_C@_0EG@DMKGKEDM@D?3?2Download?2PhysX?94?41?2physx?2sou@ 10149268     GuMeshQuery.obj
 0002:000032b0       __real@4cbebc20            101492b0     GuMeshQuery.obj
 0002:000032e0       ??_7Callback@RTree@Gu@physx@@6B@ 101492e0     GuMidphaseRTree.obj
 0002:000032ec       ??_7CallbackRaycast@RTree@Gu@physx@@6B@ 101492ec     GuMidphaseRTree.obj
 0002:000032f4       ??_7?$RayRTreeCallback@$0A@$0A@@@6BCallbackRaycast@RTree@Gu@physx@@@ 101492f4     GuMidphaseRTree.obj
 0002:000032fc       ??_7?$RayRTreeCallback@$0A@$0A@@@6BCallback@RTree@Gu@physx@@@ 101492fc     GuMidphaseRTree.obj
 0002:00003308       ??_7RayMeshColliderCallback@@6B@ 10149308     GuMidphaseRTree.obj
 0002:00003318       ??_7?$RayRTreeCallback@$00$0A@@@6BCallbackRaycast@RTree@Gu@physx@@@ 10149318     GuMidphaseRTree.obj
 0002:00003320       ??_7?$RayRTreeCallback@$00$0A@@@6BCallback@RTree@Gu@physx@@@ 10149320     GuMidphaseRTree.obj
 0002:0000332c       ??_7?$RayRTreeCallback@$0A@$00@@6BCallbackRaycast@RTree@Gu@physx@@@ 1014932c     GuMidphaseRTree.obj
 0002:00003334       ??_7?$RayRTreeCallback@$0A@$00@@6BCallback@RTree@Gu@physx@@@ 10149334     GuMidphaseRTree.obj
 0002:00003340       ??_7?$RayRTreeCallback@$00$00@@6BCallbackRaycast@RTree@Gu@physx@@@ 10149340     GuMidphaseRTree.obj
 0002:00003348       ??_7?$RayRTreeCallback@$00$00@@6BCallback@RTree@Gu@physx@@@ 10149348     GuMidphaseRTree.obj
 0002:000033d0       ??_7ConvexVsMeshOverlapCallback@@6B@ 101493d0     GuOverlapTestsMesh.obj
 0002:000033e0       ?MN@RTreePage@Gu@physx@@2MB 101493e0     GuRTree.obj
 0002:000033e4       ?MX@RTreePage@Gu@physx@@2MB 101493e4     GuRTree.obj
 0002:00003410       ??_C@_0EC@FLPECPAN@D?3?2Download?2PhysX?94?41?2physx?2sou@ 10149410     GuRTree.obj
 0002:000034b8       ??_7SweepShapeMeshHitCallback@Gu@physx@@6B@ 101494b8     GuSweepsMesh.obj
 0002:000034c0       ??_7SweepCapsuleMeshHitCallback@Gu@physx@@6B@ 101494c0     GuSweepsMesh.obj
 0002:000034c8       ??_7SweepBoxMeshHitCallback@Gu@physx@@6B@ 101494c8     GuSweepsMesh.obj
 0002:000034d0       ??_7SweepConvexMeshHitCallback@Gu@physx@@6B@ 101494d0     GuSweepsMesh.obj
 0002:00003500       ??_7PxTriangleMesh@physx@@6B@ 10149500     GuTriangleMesh.obj
 0002:00003544       ??_7TriangleMesh@Gu@physx@@6BPxTriangleMesh@2@@ 10149544     GuTriangleMesh.obj
 0002:00003594       ??_7TriangleMesh@Gu@physx@@6BRefCountable@Cm@2@@ 10149594     GuTriangleMesh.obj
 0002:0000359c       ??_C@_0DF@DNLKAHAL@Gu?3?3TriangleMesh?3?3release?3?5doub@ 1014959c     GuTriangleMesh.obj
 0002:000035d8       ??_C@_0EJ@BMLHCBHL@D?3?2Download?2PhysX?94?41?2physx?2sou@ 101495d8     GuTriangleMesh.obj
 0002:00003628       ??_C@_0GH@IGKFPLIJ@PxTriangleMesh?3?3getVerticesForM@ 10149628     GuTriangleMesh.obj
 0002:00003690       ??_C@_0FF@LHAOBIMM@PxTriangleMesh?3?3refitBVH?$CI?$CJ?5is?5o@ 10149690     GuTriangleMesh.obj
 0002:00003710       ??_C@_0BE@CNJKIINO@PxBVH34TriangleMesh@ 10149710     GuTriangleMeshBV4.obj
 0002:00003724       ??_7BV4TriangleMesh@Gu@physx@@6BPxTriangleMesh@2@@ 10149724     GuTriangleMeshBV4.obj
 0002:00003774       ??_7BV4TriangleMesh@Gu@physx@@6BRefCountable@Cm@2@@ 10149774     GuTriangleMeshBV4.obj
 0002:000037a0       ??_C@_0BE@EIFHCCBO@PxBVH33TriangleMesh@ 101497a0     GuTriangleMeshRTree.obj
 0002:000037b4       ??_7CallbackRefit@RTree@Gu@physx@@6B@ 101497b4     GuTriangleMeshRTree.obj
 0002:000037bc       ??_7RTreeTriangleMesh@Gu@physx@@6BPxTriangleMesh@2@@ 101497bc     GuTriangleMeshRTree.obj
 0002:0000380c       ??_7RTreeTriangleMesh@Gu@physx@@6BRefCountable@Cm@2@@ 1014980c     GuTriangleMeshRTree.obj
 0002:00003814       ??_7?$RefitCallback@G@physx@@6B@ 10149814     GuTriangleMeshRTree.obj
 0002:0000381c       ??_7?$RefitCallback@I@physx@@6B@ 1014981c     GuTriangleMeshRTree.obj
 0002:00003830       __xmm@38383838383838383838383838383838 10149830     GuTriangleMeshRTree.obj
 0002:00003840       ??_C@_0EB@DPKLJGJM@D?3?2Download?2PhysX?94?41?2physx?2sou@ 10149840     GuBV32.obj
 0002:000038b0       ??_C@_0EG@GJGMHKAJ@D?3?2Download?2PhysX?94?41?2physx?2sou@ 101498b0     GuBV32Build.obj
 0002:00003920       __real@3f4ccccd            10149920     GuPCMContactBoxBox.obj
 0002:00003930       __xmm@00000000358637bd358637bd358637bd 10149930     GuPCMContactBoxBox.obj
 0002:00003940       __xmm@ffffffff00000000ffffffffffffffff 10149940     GuPCMContactBoxBox.obj
 0002:00003970       ??_7?$LocalConvex@VConvexHullNoScaleV@Gu@physx@@@Gu@physx@@6B@ 10149970     GuPCMContactBoxConvex.obj
 0002:000039d0       __xmm@ffffffffffffffffffffffff00000000 101499d0     GuPCMContactCapsuleCapsule.obj
 0002:00003a00       __real@3fa00000            10149a00     GuPCMContactCapsuleConvex.obj
 0002:00003a30       ??_7?$PCMHeightfieldContactGenerationCallback@UPCMCapsuleVsHeightfieldContactGenerationCallback@physx@@@Gu@physx@@6B@ 10149a30     GuPCMContactCapsuleHeightField.obj
 0002:00003a38       ??_7PCMCapsuleVsHeightfieldContactGenerationCallback@physx@@6B@ 10149a38     GuPCMContactCapsuleHeightField.obj
 0002:00003a40       __real@3f7ef9db            10149a40     GuPCMContactCapsuleHeightField.obj
 0002:00003a44       __real@3f7f3b64            10149a44     GuPCMContactCapsuleHeightField.obj
 0002:00003a78       ??_7?$PCMMeshContactGenerationCallback@UPCMCapsuleVsMeshContactGenerationCallback@physx@@@Gu@physx@@6B@ 10149a78     GuPCMContactCapsuleMesh.obj
 0002:00003a80       ??_7PCMCapsuleVsMeshContactGenerationCallback@physx@@6B@ 10149a80     GuPCMContactCapsuleMesh.obj
 0002:00003ab0       ??_7?$SupportLocalImpl@VTriangleV@Gu@physx@@@Gu@physx@@6B@ 10149ab0     GuPCMContactConvexCommon.obj
 0002:00003ac0       ??_C@_0EI@IIFJCIGO@d?3?2download?2physx?94?41?2physx?2sou@ 10149ac0     GuPCMContactConvexCommon.obj
 0002:00003b08       __real@3f7851ec            10149b08     GuPCMContactConvexCommon.obj
 0002:00003b30       ??_7?$RelativeConvex@VConvexHullNoScaleV@Gu@physx@@@Gu@physx@@6B@ 10149b30     GuPCMContactConvexConvex.obj
 0002:00003b70       ??_7?$PCMHeightfieldContactGenerationCallback@UPCMConvexVsHeightfieldContactGenerationCallback@physx@@@Gu@physx@@6B@ 10149b70     GuPCMContactConvexHeightField.obj
 0002:00003b78       ??_7PCMConvexVsHeightfieldContactGenerationCallback@physx@@6B@ 10149b78     GuPCMContactConvexHeightField.obj
 0002:00003ba8       ??_7?$PCMMeshContactGenerationCallback@UPCMConvexVsMeshContactGenerationCallback@physx@@@Gu@physx@@6B@ 10149ba8     GuPCMContactConvexMesh.obj
 0002:00003bb0       ??_7PCMConvexVsMeshContactGenerationCallback@physx@@6B@ 10149bb0     GuPCMContactConvexMesh.obj
 0002:00003be0       __real@3f34fdf4            10149be0     GuPCMContactGenBoxConvex.obj
 0002:00003cf0       ??_7?$PCMHeightfieldContactGenerationCallback@UPCMSphereVsHeightfieldContactGenerationCallback@physx@@@Gu@physx@@6B@ 10149cf0     GuPCMContactSphereHeightField.obj
 0002:00003cf8       ??_7PCMSphereVsHeightfieldContactGenerationCallback@physx@@6B@ 10149cf8     GuPCMContactSphereHeightField.obj
 0002:00003d28       ??_7?$PCMMeshContactGenerationCallback@UPCMSphereVsMeshContactGenerationCallback@physx@@@Gu@physx@@6B@ 10149d28     GuPCMContactSphereMesh.obj
 0002:00003d30       ??_7PCMSphereVsMeshContactGenerationCallback@physx@@6B@ 10149d30     GuPCMContactSphereMesh.obj
 0002:00003d80       ?gPCMBoxPolygonData@Gu@physx@@3QBEB 10149d80     GuPCMShapeConvex.obj
 0002:00003de0       ?invalidateThresholds@Gu@physx@@3QBMB 10149de0     GuPersistentContactManifold.obj
 0002:00003df4       ?invalidateQuatThresholds@Gu@physx@@3QBMB 10149df4     GuPersistentContactManifold.obj
 0002:00003e08       ?invalidateThresholds2@Gu@physx@@3QBMB 10149e08     GuPersistentContactManifold.obj
 0002:00003e14       ?invalidateQuatThresholds2@Gu@physx@@3QBMB 10149e14     GuPersistentContactManifold.obj
 0002:00003e40       __xmm@000000003f8000003f80000000000000 10149e40     GuPersistentContactManifold.obj
 0002:00003e50       __xmm@00000000bf8000003f80000000000000 10149e50     GuPersistentContactManifold.obj
 0002:00003e60       __xmm@ffffffffffffffff00000000ffffffff 10149e60     GuPersistentContactManifold.obj
 0002:00003eb0       __real@b727c5ac            10149eb0     GuSweepBoxSphere.obj
 0002:00003f20       ??_C@_0EN@JKJJMKOE@D?3?2Download?2PhysX?94?41?2physx?2sou@ 10149f20     GuSweepCapsuleBox.obj
 0002:00003f90       __real@3f7fff58            10149f90     GuSweepCapsuleTriangle.obj
 0002:00003fe0       __sz_PhysXFoundation_32_dll 10149fe0     PhysXFoundation_32:PhysXFoundation_32.dll
 0002:00003ff8       ??_C@_1BK@DBDEIDLH@?$AAK?$AAE?$AAR?$AAN?$AAE?$AAL?$AA3?$AA2?$AA?4?$AAD?$AAL?$AAL@ 10149ff8     Delayimp:delayhlp.obj
 0002:00004014       ??_C@_0BI@OMNLIJDB@AcquireSRWLockExclusive@ 1014a014     Delayimp:delayhlp.obj
 0002:0000402c       ??_C@_0BI@HMIEPCNJ@ReleaseSRWLockExclusive@ 1014a02c     Delayimp:delayhlp.obj
 0002:00004044       ___pfnDliFailureHook2      1014a044     Delayimp:delayhk1.obj
 0002:000040d8       ??_7type_info@@6B@         1014a0d8     MSVCRT:std_type_info_static.obj
 0002:00004140       __pRawDllMain              1014a140     MSVCRT:dll_dllmain.obj
 0002:00004140       __pDefaultRawDllMain       1014a140     MSVCRT:dll_dllmain.obj
 0002:00004148       __load_config_used         1014a148     MSVCRT:loadcfg.obj
 0002:00004244       __imp_?PxTransformFromSegment@physx@@YA?AVPxTransform@1@ABVPxVec3@1@0PAM@Z 1014a244     <linker-defined>
 0002:00004248       ??_R4type_info@@6B@        1014a248     MSVCRT:std_type_info_static.obj
 0002:0000425c       ??_R3type_info@@8          1014a25c     MSVCRT:std_type_info_static.obj
 0002:0000426c       ??_R2type_info@@8          1014a26c     MSVCRT:std_type_info_static.obj
 0002:00004274       ??_R1A@?0A@EA@type_info@@8 1014a274     MSVCRT:std_type_info_static.obj
 0002:00004290       ___safe_se_handler_table   1014a290     <linker-defined>
 0002:0000460c       ___rtc_iaa                 1014a60c     MSVCRT:initsect.obj
 0002:00004610       ___rtc_izz                 1014a610     MSVCRT:initsect.obj
 0002:00004614       ___rtc_taa                 1014a614     MSVCRT:initsect.obj
 0002:00004618       ___rtc_tzz                 1014a618     MSVCRT:initsect.obj
 0002:0000469c       __DELAY_IMPORT_DESCRIPTOR_PhysXFoundation_32_dll 1014a69c     PhysXFoundation_32:PhysXFoundation_32.dll
 0002:000046bc       __NULL_DELAY_IMPORT_DESCRIPTOR 1014a6bc     PhysXFoundation_32:PhysXFoundation_32.dll
 0002:0000471c       \177PhysXFoundation_32_NULL_THUNK_DATA_DLN 1014a71c     PhysXFoundation_32:PhysXFoundation_32.dll
 0002:00004a18       \177PhysXFoundation_32_NULL_THUNK_DATA_DLB 1014aa18     PhysXFoundation_32:PhysXFoundation_32.dll
 0002:0000e728       __IMPORT_DESCRIPTOR_KERNEL32 10154728     kernel32:KERNEL32.dll
 0002:0000e73c       __IMPORT_DESCRIPTOR_VCRUNTIME140 1015473c     vcruntime:VCRUNTIME140.dll
 0002:0000e750       __IMPORT_DESCRIPTOR_api-ms-win-crt-math-l1-1-0 10154750     ucrt:api-ms-win-crt-math-l1-1-0.dll
 0002:0000e764       __IMPORT_DESCRIPTOR_api-ms-win-crt-heap-l1-1-0 10154764     ucrt:api-ms-win-crt-heap-l1-1-0.dll
 0002:0000e778       __IMPORT_DESCRIPTOR_api-ms-win-crt-runtime-l1-1-0 10154778     ucrt:api-ms-win-crt-runtime-l1-1-0.dll
 0002:0000e78c       __NULL_IMPORT_DESCRIPTOR   1015478c     kernel32:KERNEL32.dll
 0003:00000000       ___pfnDliNotifyHook2       10155000     CmWindowsDelayLoadHook.obj
 0003:00000020       ?gGeomMTDMethodTable@@3PAY06P6A_NAAVPxVec3@physx@@AAMABVPxGeometry@2@ABVPxTransform@2@23@ZA 10155020     GuMTD.obj
 0003:000000e8       ?gGeomOverlapMethodTable@@3PAY06P6A_NABVPxGeometry@physx@@ABVPxTransform@2@01PAUTriggerCache@Gu@2@@ZA 101550e8     GuOverlapTests.obj
 0003:000001ac       ?gRaycastMap@@3PAP6AIABVPxGeometry@physx@@ABVPxTransform@2@ABVPxVec3@2@2MV?$PxFlags@W4Enum@PxHitFlag@physx@@G@2@IPIAUPxRaycastHit@2@@ZA 101551ac     GuRaycastTests.obj
 0003:000001c8       ?gGeomSweepFuncs@@3UGeomSweepFuncs@Gu@physx@@A 101551c8     GuSweepTests.obj
 0003:00000258       ?g_SweepMethodTable@Gu@physx@@3PAY06P6AMABUCCDShape@12@0ABVPxTransform@2@111MAAVPxVec3@2@2MAAIM@ZA 10155258     GuCCDSweepPrimitives.obj
 0003:0000031c       ?g_TriangleSweepMethodTable@Gu@physx@@3PAP6AMABVGeometryUnion@12@0ABVPxTransform@2@111MAAVPxVec3@2@2ABVFastVertex2ShapeScaling@Cm@2@AAVTriangleV@12@M@ZA 1015531c     GuCCDSweepPrimitives.obj
 0003:000006f0       __fltused                  101556f0     MSVCRT:fltused.obj
 0003:00000700       ___scrt_native_dllmain_reason 10155700     MSVCRT:utility.obj
 0003:00000710       ___security_cookie_complement 10155710     MSVCRT:gs_cookie.obj
 0003:00000714       ___security_cookie         10155714     MSVCRT:gs_cookie.obj
 0003:00000720       ___isa_enabled             10155720     MSVCRT:cpu_disp.obj
 0003:00000724       ___scrt_ucrt_dll_is_in_use 10155724     MSVCRT:ucrt_stubs.obj
 0003:00000728       ??_R0?AVCollection@Cm@physx@@@8 10155728     CmCollection.obj
 0003:0000074c       ??_R0D@8                   1015574c     CmRenderOutput.obj
 0003:00000758       ??_R0?AUPxDebugText@physx@@@8 10155758     CmRenderOutput.obj
 0003:00000778       ??_R0?AUPxDebugTriangle@physx@@@8 10155778     CmRenderOutput.obj
 0003:0000079c       ??_R0?AUPxDebugLine@physx@@@8 1015579c     CmRenderOutput.obj
 0003:000007bc       ??_R0?AUPxDebugPoint@physx@@@8 101557bc     CmRenderOutput.obj
 0003:000007e0       ??_R0?AVMutexImpl@shdfnd@physx@@@8 101557e0     GuMeshFactory.obj
 0003:00000808       ??_R0?AVBVHStructure@Gu@physx@@@8 10155808     GuMeshFactory.obj
 0003:0000082c       ??_R0?AVHeightField@Gu@physx@@@8 1015582c     GuMeshFactory.obj
 0003:00000850       ??_R0?AVConvexMesh@Gu@physx@@@8 10155850     GuMeshFactory.obj
 0003:00000874       ??_R0?AVBV32Tree@Gu@physx@@@8 10155874     GuMeshFactory.obj
 0003:00000894       ??_R0?AVBV4TriangleData@Gu@physx@@@8 10155894     GuMeshFactory.obj
 0003:000008bc       ??_R0?AVRTreeTriangleData@Gu@physx@@@8 101558bc     GuMeshFactory.obj
 0003:000008e8       ??_R0?AVBV4TriangleMesh@Gu@physx@@@8 101558e8     GuMeshFactory.obj
 0003:00000910       ??_R0?AVRTreeTriangleMesh@Gu@physx@@@8 10155910     GuMeshFactory.obj
 0003:0000093c       ??_R0E@8                   1015593c     GuMeshFactory.obj
 0003:00000948       ??_R0G@8                   10155948     GuMeshFactory.obj
 0003:00000954       ??_R0I@8                   10155954     GuMeshFactory.obj
 0003:00000960       ??_R0PAVGuMeshFactoryListener@physx@@@8 10155960     GuMeshFactory.obj
 0003:0000098c       ??_R0?AVAABBTreeBuildNode@Gu@physx@@@8 1015598c     GuAABBTreeBuild.obj
 0003:000009b8       ??_R0?AUSlab@NodeAllocator@Gu@physx@@@8 101559b8     GuAABBTreeBuild.obj
 0003:000009e4       ??_R0PBUBVHNode@Gu@physx@@@8 101559e4     GuBVHStructure.obj
 0003:00000a04       ??_R0?AVBigConvexData@physx@@@8 10155a04     GuConvexMesh.obj
 0003:00000a28       ??_R0?AVIndTri16@Gu@physx@@@8 10155a28     GuBV4.obj
 0003:00000a48       ??_R0?AVIndTri32@Gu@physx@@@8 10155a48     GuBV4.obj
 0003:00000a68       ??_R0?AU?$BVDataPackedT@VQuantizedAABB@Gu@physx@@@Gu@physx@@@8 10155a68     GuBV4Build.obj
 0003:00000aac       ??_R0?AUSlab@BV4BuildParams@@@8 10155aac     GuBV4Build.obj
 0003:00000ad0       ??_R0?AVAABBTreeNode@Gu@physx@@@8 10155ad0     GuBV4Build.obj
 0003:00000af4       ??_R0?AUBV32Data@Gu@physx@@@8 10155af4     GuBV32Build.obj
 0003:00000b14       ??_R0?AUBV32Node@@@8       10155b14     GuBV32Build.obj
 0003:00000b2c       ??_R0?AUSortedTriangle@Gu@physx@@@8 10155b2c     GuPCMContactConvexCommon.obj
 0003:00000b54       ??_R0?AVtype_info@@@8      10155b54     MSVCRT:std_type_info_static.obj
 0003:00000b6c       __imp__PxGetFoundation     10155b6c     PhysXFoundation_32:PhysXFoundation_32.dll
 0003:00000b70       __imp_?deallocate@TempAllocator@shdfnd@physx@@QAEXPAX@Z 10155b70     PhysXFoundation_32:PhysXFoundation_32.dll
 0003:00000b74       __imp_?getAllocator@shdfnd@physx@@YAAAVPxAllocatorCallback@2@XZ 10155b74     PhysXFoundation_32:PhysXFoundation_32.dll
 0003:00000b78       __imp_?getInstance@Foundation@shdfnd@physx@@SAAAV123@XZ 10155b78     PhysXFoundation_32:PhysXFoundation_32.dll
 0003:00000b7c       __imp_?error@Foundation@shdfnd@physx@@QAAXW4Enum@PxErrorCode@3@PBDH1ZZ 10155b7c     PhysXFoundation_32:PhysXFoundation_32.dll
 0003:00000b80       __imp_?PxShortestRotation@physx@@YA?AVPxQuat@1@ABVPxVec3@1@0@Z 10155b80     PhysXFoundation_32:PhysXFoundation_32.dll
 0003:00000b84       __imp_?vsnprintf@shdfnd@physx@@YAHPADIPBD0@Z 10155b84     PhysXFoundation_32:PhysXFoundation_32.dll
 0003:00000b88       __imp_??0MutexImpl@shdfnd@physx@@QAE@XZ 10155b88     PhysXFoundation_32:PhysXFoundation_32.dll
 0003:00000b8c       __imp_??1MutexImpl@shdfnd@physx@@QAE@XZ 10155b8c     PhysXFoundation_32:PhysXFoundation_32.dll
 0003:00000b90       __imp_?lock@MutexImpl@shdfnd@physx@@QAEXXZ 10155b90     PhysXFoundation_32:PhysXFoundation_32.dll
 0003:00000b94       __imp_?unlock@MutexImpl@shdfnd@physx@@QAEXXZ 10155b94     PhysXFoundation_32:PhysXFoundation_32.dll
 0003:00000b98       __imp_?getSize@MutexImpl@shdfnd@physx@@SAIXZ 10155b98     PhysXFoundation_32:PhysXFoundation_32.dll
 0003:00000b9c       __imp_?atomicDecrement@shdfnd@physx@@YAHPCH@Z 10155b9c     PhysXFoundation_32:PhysXFoundation_32.dll
 0003:00000ba0       __imp_?optimizeBoundingBox@shdfnd@physx@@YA?AVPxVec3@2@AAVPxMat33@2@@Z 10155ba0     PhysXFoundation_32:PhysXFoundation_32.dll
 0003:00000ba4       __imp_?allocate@TempAllocator@shdfnd@physx@@QAEPAXIPBDH@Z 10155ba4     PhysXFoundation_32:PhysXFoundation_32.dll
 0003:00000ba8       __imp_?atomicIncrement@shdfnd@physx@@YAHPCH@Z 10155ba8     PhysXFoundation_32:PhysXFoundation_32.dll
 0003:00000bac       \177PhysXFoundation_32_NULL_THUNK_DATA_DLA 10155bac     PhysXFoundation_32:PhysXFoundation_32.dll
 0003:00001940       ?boxVertexTable@physx@@3QBT__m128@@B 10156940     GuConvexSupportTable.obj
 0003:00003490       __hmod__PhysXFoundation_32_dll 10158490     PhysXFoundation_32:PhysXFoundation_32.dll
 0003:00003494       ?DloadKernel32@@3PAUHINSTANCE__@@A 10158494     Delayimp:delayhlp.obj
 0003:00003498       ?DloadAcquireSRWLockExclusive@@3P6GXPAK@ZA 10158498     Delayimp:delayhlp.obj
 0003:0000349c       ?DloadReleaseSRWLockExclusive@@3P6GXPAK@ZA 1015849c     Delayimp:delayhlp.obj
 0003:000034a0       ?DloadSrwLock@@3KA         101584a0     Delayimp:delayhlp.obj
 0003:000034a4       ?DloadSectionLockCount@@3KA 101584a4     Delayimp:delayhlp.obj
 0003:000034a8       ?DloadSectionOldProtection@@3KA 101584a8     Delayimp:delayhlp.obj
 0003:000034ac       ?DloadSectionCommitPermanent@@3KA 101584ac     Delayimp:delayhlp.obj
 0003:000034b0       ?__type_info_root_node@@3U__type_info_node@@A 101584b0     MSVCRT:tncleanup.obj
 0003:000034c0       ?_OptionsStorage@?1??__local_stdio_printf_options@@9@4_KA 101584c0     MSVCRT:default_local_stdio_options.obj
 0003:000034c8       ?_OptionsStorage@?1??__local_stdio_scanf_options@@9@4_KA 101584c8     MSVCRT:default_local_stdio_options.obj
 0003:000034d0       ___scrt_current_native_startup_state 101584d0     MSVCRT:utility.obj
 0003:000034d4       ___scrt_native_startup_lock 101584d4     MSVCRT:utility.obj
 0003:000034f4       ___scrt_debugger_hook_flag 101584f4     MSVCRT:utility_desktop.obj
 0003:000034f8       ___isa_available           101584f8     MSVCRT:cpu_disp.obj
 0003:000034fc       ___favor                   101584fc     MSVCRT:cpu_disp.obj
 0003:0000381c       ___dyn_tls_init_callback   1015881c     <common>

 entry point at        0001:00142e25

 Static symbols

 0000:ffe9e000       .debug$S                   10000000     vcruntime:VCRUNTIME140.dll
 0000:ffe9e000       .debug$S                   10000000     kernel32:KERNEL32.dll
 0000:ffe9e000       .debug$S                   10000000     kernel32:KERNEL32.dll
 0000:ffe9e000       .debug$S                   10000000     PhysXFoundation_32:PhysXFoundation_32.dll
 0000:ffe9e000       .debug$S                   10000000     PhysXFoundation_32:PhysXFoundation_32.dll
 0000:ffe9e000       .debug$S                   10000000     PhysXFoundation_32:PhysXFoundation_32.dll
 0000:ffe9e000       .debug$S                   10000000     PhysXFoundation_32:PhysXFoundation_32.dll
 0000:ffe9e000       .debug$S                   10000000     PhysXFoundation_32:PhysXFoundation_32.dll
 0000:ffe9e000       .debug$S                   10000000     PhysXFoundation_32:PhysXFoundation_32.dll
 0000:ffe9e000       .debug$S                   10000000     PhysXFoundation_32:PhysXFoundation_32.dll
 0000:ffe9e000       .debug$S                   10000000     PhysXFoundation_32:PhysXFoundation_32.dll
 0000:ffe9e000       .debug$S                   10000000     PhysXFoundation_32:PhysXFoundation_32.dll
 0000:ffe9e000       .debug$S                   10000000     PhysXFoundation_32:PhysXFoundation_32.dll
 0000:ffe9e000       .debug$S                   10000000     PhysXFoundation_32:PhysXFoundation_32.dll
 0000:ffe9e000       .debug$S                   10000000     PhysXFoundation_32:PhysXFoundation_32.dll
 0000:ffe9e000       .debug$S                   10000000     PhysXFoundation_32:PhysXFoundation_32.dll
 0000:ffe9e000       .debug$S                   10000000     PhysXFoundation_32:PhysXFoundation_32.dll
 0000:ffe9e000       .debug$S                   10000000     PhysXFoundation_32:PhysXFoundation_32.dll
 0002:ffeba000       __guard_fids__             10000000     MSVCRT:std_type_info_static.obj
 0002:ffeba000       __guard_fids_?dllmain_dispatch@@YAHQAUHINSTANCE__@@KQAX@Z 10000000     MSVCRT:dll_dllmain.obj
 0002:ffeba000       __guard_fids__             10000000     MSVCRT:guard_support.obj
 0002:ffeba000       __guard_fids___guard_icall_checks_enforced 10000000     MSVCRT:guard_support.obj
 0000:ffe9e000       .debug$S                   10000000     PhysXFoundation_32:PhysXFoundation_32.dll
 0002:ffeba000       __guard_fids____scrt_set_unhandled_exception_filter 10000000     MSVCRT:utility_desktop.obj
 0002:ffeba000       __guard_fids___except_handler4 10000000     MSVCRT:chandler4gs.obj
 0000:ffe9e000       .debug$S                   10000000     vcruntime:VCRUNTIME140.dll
 0000:ffe9e000       .debug$S                   10000000     vcruntime:VCRUNTIME140.dll
 0000:ffe9e000       .debug$S                   10000000     vcruntime:VCRUNTIME140.dll
 0000:ffe9e000       .debug$S                   10000000     vcruntime:VCRUNTIME140.dll
 0000:ffe9e000       .debug$S                   10000000     vcruntime:VCRUNTIME140.dll
 0000:ffe9e000       .debug$S                   10000000     vcruntime:VCRUNTIME140.dll
 0000:ffe9e000       .debug$S                   10000000     ucrt:api-ms-win-crt-math-l1-1-0.dll
 0000:ffe9e000       .debug$S                   10000000     ucrt:api-ms-win-crt-math-l1-1-0.dll
 0000:ffe9e000       .debug$S                   10000000     ucrt:api-ms-win-crt-math-l1-1-0.dll
 0000:ffe9e000       .debug$S                   10000000     ucrt:api-ms-win-crt-math-l1-1-0.dll
 0000:ffe9e000       .debug$S                   10000000     ucrt:api-ms-win-crt-math-l1-1-0.dll
 0000:ffe9e000       .debug$S                   10000000     ucrt:api-ms-win-crt-math-l1-1-0.dll
 0000:ffe9e000       .debug$S                   10000000     ucrt:api-ms-win-crt-math-l1-1-0.dll
 0000:ffe9e000       .debug$S                   10000000     ucrt:api-ms-win-crt-heap-l1-1-0.dll
 0000:ffe9e000       .debug$S                   10000000     ucrt:api-ms-win-crt-runtime-l1-1-0.dll
 0000:ffe9e000       .debug$S                   10000000     ucrt:api-ms-win-crt-runtime-l1-1-0.dll
 0000:ffe9e000       .debug$S                   10000000     ucrt:api-ms-win-crt-runtime-l1-1-0.dll
 0000:ffe9e000       .debug$S                   10000000     ucrt:api-ms-win-crt-runtime-l1-1-0.dll
 0000:ffe9e000       .debug$S                   10000000     ucrt:api-ms-win-crt-runtime-l1-1-0.dll
 0000:ffe9e000       .debug$S                   10000000     ucrt:api-ms-win-crt-runtime-l1-1-0.dll
 0000:ffe9e000       .debug$S                   10000000     ucrt:api-ms-win-crt-runtime-l1-1-0.dll
 0000:ffe9e000       .debug$S                   10000000     ucrt:api-ms-win-crt-runtime-l1-1-0.dll
 0000:ffe9e000       .debug$S                   10000000     ucrt:api-ms-win-crt-runtime-l1-1-0.dll
 0000:ffe9e000       .debug$S                   10000000     ucrt:api-ms-win-crt-runtime-l1-1-0.dll
 0000:ffe9e000       .debug$S                   10000000     ucrt:api-ms-win-crt-runtime-l1-1-0.dll
 0000:ffe9e000       .debug$S                   10000000     ucrt:api-ms-win-crt-runtime-l1-1-0.dll
 0000:ffe9e000       .debug$S                   10000000     kernel32:KERNEL32.dll
 0000:ffe9e000       .debug$S                   10000000     kernel32:KERNEL32.dll
 0000:ffe9e000       .debug$S                   10000000     kernel32:KERNEL32.dll
 0000:ffe9e000       .debug$S                   10000000     kernel32:KERNEL32.dll
 0000:ffe9e000       .debug$S                   10000000     kernel32:KERNEL32.dll
 0000:ffe9e000       .debug$S                   10000000     kernel32:KERNEL32.dll
 0000:ffe9e000       .debug$S                   10000000     kernel32:KERNEL32.dll
 0000:ffe9e000       .debug$S                   10000000     kernel32:KERNEL32.dll
 0000:ffe9e000       .debug$S                   10000000     kernel32:KERNEL32.dll
 0000:ffe9e000       .debug$S                   10000000     kernel32:KERNEL32.dll
 0000:ffe9e000       .debug$S                   10000000     kernel32:KERNEL32.dll
 0000:ffe9e000       .debug$S                   10000000     kernel32:KERNEL32.dll
 0000:ffe9e000       .debug$S                   10000000     kernel32:KERNEL32.dll
 0000:ffe9e000       .debug$S                   10000000     kernel32:KERNEL32.dll
 0000:ffe9e000       .debug$S                   10000000     kernel32:KERNEL32.dll
 0000:ffe9e000       .debug$S                   10000000     kernel32:KERNEL32.dll
 0000:ffe9e000       .debug$S                   10000000     kernel32:KERNEL32.dll
 0000:ffe9e000       .debug$S                   10000000     kernel32:KERNEL32.dll
 0000:ffe9e000       .debug$S                   10000000     kernel32:KERNEL32.dll
 0000:ffe9e000       .debug$S                   10000000     kernel32:KERNEL32.dll
 0000:ffe9e000       .debug$S                   10000000     PhysXCommon_32.exp
 0000:ffe9e000       .debug$S                   10000000     kernel32:KERNEL32.dll
 0001:fffffdc8       $LN657                     10000dc8     GuSweepsHF.obj
 0001:fffffdc8       $LN657                     10000dc8     GuSweepsMesh.obj
 0001:fffffdd8       $LN686                     10000dd8     GuCCDSweepPrimitives.obj
 0001:fffffe94       $LN739                     10000e94     GuCCDSweepPrimitives.obj
 0001:fffffebc       $LN707                     10000ebc     GuSweepsMesh.obj
 0001:ffffff00       $LN771                     10000f00     GuCCDSweepPrimitives.obj
 0001:ffffff64       $LN706                     10000f64     GuContactCapsuleConvex.obj
 0001:ffffff64       $LN706                     10000f64     GuOverlapTests.obj
 0001:00000000       ??__EmaxFError@_VecMathTests@aos@shdfnd@physx@@YAXXZ 10001000 f   GuBounds.obj
 0001:00000020       ??__EmaxV3Error@_VecMathTests@aos@shdfnd@physx@@YAXXZ 10001020 f   GuBounds.obj
 0001:00000030       ??__EmaxV4Error@_VecMathTests@aos@shdfnd@physx@@YAXXZ 10001030 f   GuBounds.obj
 0001:00000050       ??__EminFError@_VecMathTests@aos@shdfnd@physx@@YAXXZ 10001050 f   GuBounds.obj
 0001:00000070       ??__EminV3Error@_VecMathTests@aos@shdfnd@physx@@YAXXZ 10001070 f   GuBounds.obj
 0001:00000080       ??__EminV4Error@_VecMathTests@aos@shdfnd@physx@@YAXXZ 10001080 f   GuBounds.obj
 0001:000000a0       ??__EmaxFError@_VecMathTests@aos@shdfnd@physx@@YAXXZ 100010a0 f   GuBox.obj
 0001:000000c0       ??__EmaxV3Error@_VecMathTests@aos@shdfnd@physx@@YAXXZ 100010c0 f   GuBox.obj
 0001:000000d0       ??__EmaxV4Error@_VecMathTests@aos@shdfnd@physx@@YAXXZ 100010d0 f   GuBox.obj
 0001:000000f0       ??__EminFError@_VecMathTests@aos@shdfnd@physx@@YAXXZ 100010f0 f   GuBox.obj
 0001:00000110       ??__EminV3Error@_VecMathTests@aos@shdfnd@physx@@YAXXZ 10001110 f   GuBox.obj
 0001:00000120       ??__EminV4Error@_VecMathTests@aos@shdfnd@physx@@YAXXZ 10001120 f   GuBox.obj
 0001:00000140       ??__EmaxFError@_VecMathTests@aos@shdfnd@physx@@YAXXZ 10001140 f   GuCCTSweepTests.obj
 0001:00000160       ??__EmaxV3Error@_VecMathTests@aos@shdfnd@physx@@YAXXZ 10001160 f   GuCCTSweepTests.obj
 0001:00000170       ??__EmaxV4Error@_VecMathTests@aos@shdfnd@physx@@YAXXZ 10001170 f   GuCCTSweepTests.obj
 0001:00000190       ??__EminFError@_VecMathTests@aos@shdfnd@physx@@YAXXZ 10001190 f   GuCCTSweepTests.obj
 0001:000001b0       ??__EminV3Error@_VecMathTests@aos@shdfnd@physx@@YAXXZ 100011b0 f   GuCCTSweepTests.obj
 0001:000001c0       ??__EminV4Error@_VecMathTests@aos@shdfnd@physx@@YAXXZ 100011c0 f   GuCCTSweepTests.obj
 0001:000001e0       ??__EmaxFError@_VecMathTests@aos@shdfnd@physx@@YAXXZ 100011e0 f   GuGeometryQuery.obj
 0001:00000200       ??__EmaxV3Error@_VecMathTests@aos@shdfnd@physx@@YAXXZ 10001200 f   GuGeometryQuery.obj
 0001:00000210       ??__EmaxV4Error@_VecMathTests@aos@shdfnd@physx@@YAXXZ 10001210 f   GuGeometryQuery.obj
 0001:00000230       ??__EminFError@_VecMathTests@aos@shdfnd@physx@@YAXXZ 10001230 f   GuGeometryQuery.obj
 0001:00000250       ??__EminV3Error@_VecMathTests@aos@shdfnd@physx@@YAXXZ 10001250 f   GuGeometryQuery.obj
 0001:00000260       ??__EminV4Error@_VecMathTests@aos@shdfnd@physx@@YAXXZ 10001260 f   GuGeometryQuery.obj
 0001:00000280       ??__EmaxFError@_VecMathTests@aos@shdfnd@physx@@YAXXZ 10001280 f   GuGeometryUnion.obj
 0001:000002a0       ??__EmaxV3Error@_VecMathTests@aos@shdfnd@physx@@YAXXZ 100012a0 f   GuGeometryUnion.obj
 0001:000002b0       ??__EmaxV4Error@_VecMathTests@aos@shdfnd@physx@@YAXXZ 100012b0 f   GuGeometryUnion.obj
 0001:000002d0       ??__EminFError@_VecMathTests@aos@shdfnd@physx@@YAXXZ 100012d0 f   GuGeometryUnion.obj
 0001:000002f0       ??__EminV3Error@_VecMathTests@aos@shdfnd@physx@@YAXXZ 100012f0 f   GuGeometryUnion.obj
 0001:00000300       ??__EminV4Error@_VecMathTests@aos@shdfnd@physx@@YAXXZ 10001300 f   GuGeometryUnion.obj
 0001:00000320       ??__EmaxFError@_VecMathTests@aos@shdfnd@physx@@YAXXZ 10001320 f   GuInternal.obj
 0001:00000340       ??__EmaxV3Error@_VecMathTests@aos@shdfnd@physx@@YAXXZ 10001340 f   GuInternal.obj
 0001:00000350       ??__EmaxV4Error@_VecMathTests@aos@shdfnd@physx@@YAXXZ 10001350 f   GuInternal.obj
 0001:00000370       ??__EminFError@_VecMathTests@aos@shdfnd@physx@@YAXXZ 10001370 f   GuInternal.obj
 0001:00000390       ??__EminV3Error@_VecMathTests@aos@shdfnd@physx@@YAXXZ 10001390 f   GuInternal.obj
 0001:000003a0       ??__EminV4Error@_VecMathTests@aos@shdfnd@physx@@YAXXZ 100013a0 f   GuInternal.obj
 0001:000003c0       ??__EmaxFError@_VecMathTests@aos@shdfnd@physx@@YAXXZ 100013c0 f   GuMeshFactory.obj
 0001:000003e0       ??__EmaxV3Error@_VecMathTests@aos@shdfnd@physx@@YAXXZ 100013e0 f   GuMeshFactory.obj
 0001:000003f0       ??__EmaxV4Error@_VecMathTests@aos@shdfnd@physx@@YAXXZ 100013f0 f   GuMeshFactory.obj
 0001:00000410       ??__EminFError@_VecMathTests@aos@shdfnd@physx@@YAXXZ 10001410 f   GuMeshFactory.obj
 0001:00000430       ??__EminV3Error@_VecMathTests@aos@shdfnd@physx@@YAXXZ 10001430 f   GuMeshFactory.obj
 0001:00000440       ??__EminV4Error@_VecMathTests@aos@shdfnd@physx@@YAXXZ 10001440 f   GuMeshFactory.obj
 0001:00000460       ??__EmaxFError@_VecMathTests@aos@shdfnd@physx@@YAXXZ 10001460 f   GuMetaData.obj
 0001:00000480       ??__EmaxV3Error@_VecMathTests@aos@shdfnd@physx@@YAXXZ 10001480 f   GuMetaData.obj
 0001:00000490       ??__EmaxV4Error@_VecMathTests@aos@shdfnd@physx@@YAXXZ 10001490 f   GuMetaData.obj
 0001:000004b0       ??__EminFError@_VecMathTests@aos@shdfnd@physx@@YAXXZ 100014b0 f   GuMetaData.obj
 0001:000004d0       ??__EminV3Error@_VecMathTests@aos@shdfnd@physx@@YAXXZ 100014d0 f   GuMetaData.obj
 0001:000004e0       ??__EminV4Error@_VecMathTests@aos@shdfnd@physx@@YAXXZ 100014e0 f   GuMetaData.obj
 0001:00000500       ??__EmaxFError@_VecMathTests@aos@shdfnd@physx@@YAXXZ 10001500 f   GuMTD.obj
 0001:00000520       ??__EmaxV3Error@_VecMathTests@aos@shdfnd@physx@@YAXXZ 10001520 f   GuMTD.obj
 0001:00000530       ??__EmaxV4Error@_VecMathTests@aos@shdfnd@physx@@YAXXZ 10001530 f   GuMTD.obj
 0001:00000550       ??__EminFError@_VecMathTests@aos@shdfnd@physx@@YAXXZ 10001550 f   GuMTD.obj
 0001:00000570       ??__EminV3Error@_VecMathTests@aos@shdfnd@physx@@YAXXZ 10001570 f   GuMTD.obj
 0001:00000580       ??__EminV4Error@_VecMathTests@aos@shdfnd@physx@@YAXXZ 10001580 f   GuMTD.obj
 0001:000005a0       ??__EmaxFError@_VecMathTests@aos@shdfnd@physx@@YAXXZ 100015a0 f   GuOverlapTests.obj
 0001:000005c0       ??__EmaxV3Error@_VecMathTests@aos@shdfnd@physx@@YAXXZ 100015c0 f   GuOverlapTests.obj
 0001:000005d0       ??__EmaxV4Error@_VecMathTests@aos@shdfnd@physx@@YAXXZ 100015d0 f   GuOverlapTests.obj
 0001:000005f0       ??__EminFError@_VecMathTests@aos@shdfnd@physx@@YAXXZ 100015f0 f   GuOverlapTests.obj
 0001:00000610       ??__EminV3Error@_VecMathTests@aos@shdfnd@physx@@YAXXZ 10001610 f   GuOverlapTests.obj
 0001:00000620       ??__EminV4Error@_VecMathTests@aos@shdfnd@physx@@YAXXZ 10001620 f   GuOverlapTests.obj
 0001:00000640       ??__EmaxFError@_VecMathTests@aos@shdfnd@physx@@YAXXZ 10001640 f   GuRaycastTests.obj
 0001:00000660       ??__EmaxV3Error@_VecMathTests@aos@shdfnd@physx@@YAXXZ 10001660 f   GuRaycastTests.obj
 0001:00000670       ??__EmaxV4Error@_VecMathTests@aos@shdfnd@physx@@YAXXZ 10001670 f   GuRaycastTests.obj
 0001:00000690       ??__EminFError@_VecMathTests@aos@shdfnd@physx@@YAXXZ 10001690 f   GuRaycastTests.obj
 0001:000006b0       ??__EminV3Error@_VecMathTests@aos@shdfnd@physx@@YAXXZ 100016b0 f   GuRaycastTests.obj
 0001:000006c0       ??__EminV4Error@_VecMathTests@aos@shdfnd@physx@@YAXXZ 100016c0 f   GuRaycastTests.obj
 0001:000006e0       ??__EmaxFError@_VecMathTests@aos@shdfnd@physx@@YAXXZ 100016e0 f   GuSweepMTD.obj
 0001:00000700       ??__EmaxV3Error@_VecMathTests@aos@shdfnd@physx@@YAXXZ 10001700 f   GuSweepMTD.obj
 0001:00000710       ??__EmaxV4Error@_VecMathTests@aos@shdfnd@physx@@YAXXZ 10001710 f   GuSweepMTD.obj
 0001:00000730       ??__EminFError@_VecMathTests@aos@shdfnd@physx@@YAXXZ 10001730 f   GuSweepMTD.obj
 0001:00000750       ??__EminV3Error@_VecMathTests@aos@shdfnd@physx@@YAXXZ 10001750 f   GuSweepMTD.obj
 0001:00000760       ??__EminV4Error@_VecMathTests@aos@shdfnd@physx@@YAXXZ 10001760 f   GuSweepMTD.obj
 0001:00000780       ??__EmaxFError@_VecMathTests@aos@shdfnd@physx@@YAXXZ 10001780 f   GuSweepSharedTests.obj
 0001:000007a0       ??__EmaxV3Error@_VecMathTests@aos@shdfnd@physx@@YAXXZ 100017a0 f   GuSweepSharedTests.obj
 0001:000007b0       ??__EmaxV4Error@_VecMathTests@aos@shdfnd@physx@@YAXXZ 100017b0 f   GuSweepSharedTests.obj
 0001:000007d0       ??__EminFError@_VecMathTests@aos@shdfnd@physx@@YAXXZ 100017d0 f   GuSweepSharedTests.obj
 0001:000007f0       ??__EminV3Error@_VecMathTests@aos@shdfnd@physx@@YAXXZ 100017f0 f   GuSweepSharedTests.obj
 0001:00000800       ??__EminV4Error@_VecMathTests@aos@shdfnd@physx@@YAXXZ 10001800 f   GuSweepSharedTests.obj
 0001:00000820       ??__EmaxFError@_VecMathTests@aos@shdfnd@physx@@YAXXZ 10001820 f   GuSweepTests.obj
 0001:00000824       $LN1053                    10001824     GuPCMContactCapsuleBox.obj
 0001:00000834       $LN1054                    10001834     GuPCMContactCapsuleBox.obj
 0001:00000840       ??__EmaxV3Error@_VecMathTests@aos@shdfnd@physx@@YAXXZ 10001840 f   GuSweepTests.obj
 0001:00000850       ??__EmaxV4Error@_VecMathTests@aos@shdfnd@physx@@YAXXZ 10001850 f   GuSweepTests.obj
 0001:00000870       ??__EminFError@_VecMathTests@aos@shdfnd@physx@@YAXXZ 10001870 f   GuSweepTests.obj
 0001:00000878       $LN1053                    10001878     GuPCMContactSphereConvex.obj
 0001:00000888       $LN1054                    10001888     GuPCMContactSphereConvex.obj
 0001:00000890       ??__EminV3Error@_VecMathTests@aos@shdfnd@physx@@YAXXZ 10001890 f   GuSweepTests.obj
 0001:000008a0       ??__EminV4Error@_VecMathTests@aos@shdfnd@physx@@YAXXZ 100018a0 f   GuSweepTests.obj
 0001:000008a4       $LN1114                    100018a4     GuCCDSweepPrimitives.obj
 0001:000008a4       $LN1114                    100018a4     GuPCMContactBoxBox.obj
 0001:000008b4       $LN1115                    100018b4     GuCCDSweepPrimitives.obj
 0001:000008b4       $LN1115                    100018b4     GuPCMContactBoxBox.obj
 0001:000008c0       ??__EmaxFError@_VecMathTests@aos@shdfnd@physx@@YAXXZ 100018c0 f   GuAABBTreeBuild.obj
 0001:000008e0       ??__EmaxV3Error@_VecMathTests@aos@shdfnd@physx@@YAXXZ 100018e0 f   GuAABBTreeBuild.obj
 0001:000008f0       ??__EmaxV4Error@_VecMathTests@aos@shdfnd@physx@@YAXXZ 100018f0 f   GuAABBTreeBuild.obj
 0001:000008f4       $LN1070                    100018f4     GuSweepsMesh.obj
 0001:000008f4       $LN1070                    100018f4     GuSweepsHF.obj
 0001:00000904       $LN1071                    10001904     GuSweepsHF.obj
 0001:00000904       $LN1071                    10001904     GuSweepsMesh.obj
 0001:00000910       ??__EminFError@_VecMathTests@aos@shdfnd@physx@@YAXXZ 10001910 f   GuAABBTreeBuild.obj
 0001:00000924       $LN1102                    10001924     GuPCMContactSphereConvex.obj
 0001:00000924       $LN1102                    10001924     GuPCMContactCapsuleConvex.obj
 0001:00000930       ??__EminV3Error@_VecMathTests@aos@shdfnd@physx@@YAXXZ 10001930 f   GuAABBTreeBuild.obj
 0001:00000934       $LN1103                    10001934     GuPCMContactSphereConvex.obj
 0001:00000934       $LN1103                    10001934     GuPCMContactCapsuleConvex.obj
 0001:00000940       ??__EminV4Error@_VecMathTests@aos@shdfnd@physx@@YAXXZ 10001940 f   GuAABBTreeBuild.obj
 0001:00000958       $LN1165                    10001958     GuCCDSweepPrimitives.obj
 0001:00000958       $LN1165                    10001958     GuPCMContactBoxConvex.obj
 0001:00000960       ??__EmaxFError@_VecMathTests@aos@shdfnd@physx@@YAXXZ 10001960 f   GuBVHStructure.obj
 0001:00000964       $LN1216                    10001964     GuPCMContactConvexConvex.obj
 0001:00000964       $LN1216                    10001964     GuCCDSweepPrimitives.obj
 0001:00000968       $LN1166                    10001968     GuCCDSweepPrimitives.obj
 0001:00000968       $LN1166                    10001968     GuPCMContactBoxConvex.obj
 0001:00000974       $LN1217                    10001974     GuPCMContactConvexConvex.obj
 0001:00000974       $LN1217                    10001974     GuCCDSweepPrimitives.obj
 0001:00000980       ??__EmaxV3Error@_VecMathTests@aos@shdfnd@physx@@YAXXZ 10001980 f   GuBVHStructure.obj
 0001:00000990       ??__EmaxV4Error@_VecMathTests@aos@shdfnd@physx@@YAXXZ 10001990 f   GuBVHStructure.obj
 0001:000009a4       $LN1118                    100019a4     GuSweepsMesh.obj
 0001:000009b0       ??__EminFError@_VecMathTests@aos@shdfnd@physx@@YAXXZ 100019b0 f   GuBVHStructure.obj
 0001:000009b4       $LN1119                    100019b4     GuSweepsMesh.obj
 0001:000009d0       ??__EminV3Error@_VecMathTests@aos@shdfnd@physx@@YAXXZ 100019d0 f   GuBVHStructure.obj
 0001:000009e0       ??__EminV4Error@_VecMathTests@aos@shdfnd@physx@@YAXXZ 100019e0 f   GuBVHStructure.obj
 0001:00000a00       ??__EmaxFError@_VecMathTests@aos@shdfnd@physx@@YAXXZ 10001a00 f   GuCCDSweepConvexMesh.obj
 0001:00000a20       ??__EmaxV3Error@_VecMathTests@aos@shdfnd@physx@@YAXXZ 10001a20 f   GuCCDSweepConvexMesh.obj
 0001:00000a30       ??__EmaxV4Error@_VecMathTests@aos@shdfnd@physx@@YAXXZ 10001a30 f   GuCCDSweepConvexMesh.obj
 0001:00000a50       ??__EminFError@_VecMathTests@aos@shdfnd@physx@@YAXXZ 10001a50 f   GuCCDSweepConvexMesh.obj
 0001:00000a70       ??__EminV3Error@_VecMathTests@aos@shdfnd@physx@@YAXXZ 10001a70 f   GuCCDSweepConvexMesh.obj
 0001:00000a80       ??__EminV4Error@_VecMathTests@aos@shdfnd@physx@@YAXXZ 10001a80 f   GuCCDSweepConvexMesh.obj
 0001:00000aa0       ??__EmaxFError@_VecMathTests@aos@shdfnd@physx@@YAXXZ 10001aa0 f   GuCCDSweepPrimitives.obj
 0001:00000ac0       ??__EmaxV3Error@_VecMathTests@aos@shdfnd@physx@@YAXXZ 10001ac0 f   GuCCDSweepPrimitives.obj
 0001:00000ad0       ??__EmaxV4Error@_VecMathTests@aos@shdfnd@physx@@YAXXZ 10001ad0 f   GuCCDSweepPrimitives.obj
 0001:00000af0       ??__EminFError@_VecMathTests@aos@shdfnd@physx@@YAXXZ 10001af0 f   GuCCDSweepPrimitives.obj
 0001:00000b10       ??__EminV3Error@_VecMathTests@aos@shdfnd@physx@@YAXXZ 10001b10 f   GuCCDSweepPrimitives.obj
 0001:00000b20       ??__EminV4Error@_VecMathTests@aos@shdfnd@physx@@YAXXZ 10001b20 f   GuCCDSweepPrimitives.obj
 0001:00000b40       ??__EmaxFError@_VecMathTests@aos@shdfnd@physx@@YAXXZ 10001b40 f   GuBarycentricCoordinates.obj
 0001:00000b60       ??__EmaxV3Error@_VecMathTests@aos@shdfnd@physx@@YAXXZ 10001b60 f   GuBarycentricCoordinates.obj
 0001:00000b70       ??__EmaxV4Error@_VecMathTests@aos@shdfnd@physx@@YAXXZ 10001b70 f   GuBarycentricCoordinates.obj
 0001:00000b90       ??__EminFError@_VecMathTests@aos@shdfnd@physx@@YAXXZ 10001b90 f   GuBarycentricCoordinates.obj
 0001:00000bb0       ??__EminV3Error@_VecMathTests@aos@shdfnd@physx@@YAXXZ 10001bb0 f   GuBarycentricCoordinates.obj
 0001:00000bc0       ??__EminV4Error@_VecMathTests@aos@shdfnd@physx@@YAXXZ 10001bc0 f   GuBarycentricCoordinates.obj
 0001:00000be0       ??__EmaxFError@_VecMathTests@aos@shdfnd@physx@@YAXXZ 10001be0 f   GuContactBoxBox.obj
 0001:00000c00       ??__EmaxV3Error@_VecMathTests@aos@shdfnd@physx@@YAXXZ 10001c00 f   GuContactBoxBox.obj
 0001:00000c10       ??__EmaxV4Error@_VecMathTests@aos@shdfnd@physx@@YAXXZ 10001c10 f   GuContactBoxBox.obj
 0001:00000c30       ??__EminFError@_VecMathTests@aos@shdfnd@physx@@YAXXZ 10001c30 f   GuContactBoxBox.obj
 0001:00000c50       ??__EminV3Error@_VecMathTests@aos@shdfnd@physx@@YAXXZ 10001c50 f   GuContactBoxBox.obj
 0001:00000c60       ??__EminV4Error@_VecMathTests@aos@shdfnd@physx@@YAXXZ 10001c60 f   GuContactBoxBox.obj
 0001:00000c80       ??__EmaxFError@_VecMathTests@aos@shdfnd@physx@@YAXXZ 10001c80 f   GuContactCapsuleBox.obj
 0001:00000ca0       ??__EmaxV3Error@_VecMathTests@aos@shdfnd@physx@@YAXXZ 10001ca0 f   GuContactCapsuleBox.obj
 0001:00000cb0       ??__EmaxV4Error@_VecMathTests@aos@shdfnd@physx@@YAXXZ 10001cb0 f   GuContactCapsuleBox.obj
 0001:00000cd0       ??__EminFError@_VecMathTests@aos@shdfnd@physx@@YAXXZ 10001cd0 f   GuContactCapsuleBox.obj
 0001:00000cf0       ??__EminV3Error@_VecMathTests@aos@shdfnd@physx@@YAXXZ 10001cf0 f   GuContactCapsuleBox.obj
 0001:00000d00       ??__EminV4Error@_VecMathTests@aos@shdfnd@physx@@YAXXZ 10001d00 f   GuContactCapsuleBox.obj
 0001:00000d20       ??__EmaxFError@_VecMathTests@aos@shdfnd@physx@@YAXXZ 10001d20 f   GuContactCapsuleCapsule.obj
 0001:00000d40       ??__EmaxV3Error@_VecMathTests@aos@shdfnd@physx@@YAXXZ 10001d40 f   GuContactCapsuleCapsule.obj
 0001:00000d50       ??__EmaxV4Error@_VecMathTests@aos@shdfnd@physx@@YAXXZ 10001d50 f   GuContactCapsuleCapsule.obj
 0001:00000d70       ??__EminFError@_VecMathTests@aos@shdfnd@physx@@YAXXZ 10001d70 f   GuContactCapsuleCapsule.obj
 0001:00000d90       ??__EminV3Error@_VecMathTests@aos@shdfnd@physx@@YAXXZ 10001d90 f   GuContactCapsuleCapsule.obj
 0001:00000da0       ??__EminV4Error@_VecMathTests@aos@shdfnd@physx@@YAXXZ 10001da0 f   GuContactCapsuleCapsule.obj
 0001:00000dc0       ??__EmaxFError@_VecMathTests@aos@shdfnd@physx@@YAXXZ 10001dc0 f   GuContactCapsuleConvex.obj
 0001:00000de0       ??__EmaxV3Error@_VecMathTests@aos@shdfnd@physx@@YAXXZ 10001de0 f   GuContactCapsuleConvex.obj
 0001:00000df0       ??__EmaxV4Error@_VecMathTests@aos@shdfnd@physx@@YAXXZ 10001df0 f   GuContactCapsuleConvex.obj
 0001:00000e10       ??__EminFError@_VecMathTests@aos@shdfnd@physx@@YAXXZ 10001e10 f   GuContactCapsuleConvex.obj
 0001:00000e30       ??__EminV3Error@_VecMathTests@aos@shdfnd@physx@@YAXXZ 10001e30 f   GuContactCapsuleConvex.obj
 0001:00000e40       ??__EminV4Error@_VecMathTests@aos@shdfnd@physx@@YAXXZ 10001e40 f   GuContactCapsuleConvex.obj
 0001:00000e60       ??__EmaxFError@_VecMathTests@aos@shdfnd@physx@@YAXXZ 10001e60 f   GuContactCapsuleMesh.obj
 0001:00000e80       ??__EmaxV3Error@_VecMathTests@aos@shdfnd@physx@@YAXXZ 10001e80 f   GuContactCapsuleMesh.obj
 0001:00000e90       ??__EmaxV4Error@_VecMathTests@aos@shdfnd@physx@@YAXXZ 10001e90 f   GuContactCapsuleMesh.obj
 0001:00000eb0       ??__EminFError@_VecMathTests@aos@shdfnd@physx@@YAXXZ 10001eb0 f   GuContactCapsuleMesh.obj
 0001:00000ed0       ??__EminV3Error@_VecMathTests@aos@shdfnd@physx@@YAXXZ 10001ed0 f   GuContactCapsuleMesh.obj
 0001:00000ee0       ??__EminV4Error@_VecMathTests@aos@shdfnd@physx@@YAXXZ 10001ee0 f   GuContactCapsuleMesh.obj
 0001:00000f00       ??__EmaxFError@_VecMathTests@aos@shdfnd@physx@@YAXXZ 10001f00 f   GuContactConvexConvex.obj
 0001:00000f20       ??__EmaxV3Error@_VecMathTests@aos@shdfnd@physx@@YAXXZ 10001f20 f   GuContactConvexConvex.obj
 0001:00000f30       ??__EmaxV4Error@_VecMathTests@aos@shdfnd@physx@@YAXXZ 10001f30 f   GuContactConvexConvex.obj
 0001:00000f50       ??__EminFError@_VecMathTests@aos@shdfnd@physx@@YAXXZ 10001f50 f   GuContactConvexConvex.obj
 0001:00000f70       ??__EminV3Error@_VecMathTests@aos@shdfnd@physx@@YAXXZ 10001f70 f   GuContactConvexConvex.obj
 0001:00000f80       ??__EminV4Error@_VecMathTests@aos@shdfnd@physx@@YAXXZ 10001f80 f   GuContactConvexConvex.obj
 0001:00000fa0       ??__EmaxFError@_VecMathTests@aos@shdfnd@physx@@YAXXZ 10001fa0 f   GuContactConvexMesh.obj
 0001:00000fc0       ??__EmaxV3Error@_VecMathTests@aos@shdfnd@physx@@YAXXZ 10001fc0 f   GuContactConvexMesh.obj
 0001:00000fd0       ??__EmaxV4Error@_VecMathTests@aos@shdfnd@physx@@YAXXZ 10001fd0 f   GuContactConvexMesh.obj
 0001:00001000       ??__EminFError@_VecMathTests@aos@shdfnd@physx@@YAXXZ 10002000 f   GuContactConvexMesh.obj
 0001:00001020       ??__EminV3Error@_VecMathTests@aos@shdfnd@physx@@YAXXZ 10002020 f   GuContactConvexMesh.obj
 0001:00001030       ??__EminV4Error@_VecMathTests@aos@shdfnd@physx@@YAXXZ 10002030 f   GuContactConvexMesh.obj
 0001:00001050       ??__EmaxFError@_VecMathTests@aos@shdfnd@physx@@YAXXZ 10002050 f   GuContactPlaneBox.obj
 0001:00001070       ??__EmaxV3Error@_VecMathTests@aos@shdfnd@physx@@YAXXZ 10002070 f   GuContactPlaneBox.obj
 0001:00001080       ??__EmaxV4Error@_VecMathTests@aos@shdfnd@physx@@YAXXZ 10002080 f   GuContactPlaneBox.obj
 0001:000010a0       ??__EminFError@_VecMathTests@aos@shdfnd@physx@@YAXXZ 100020a0 f   GuContactPlaneBox.obj
 0001:000010c0       ??__EminV3Error@_VecMathTests@aos@shdfnd@physx@@YAXXZ 100020c0 f   GuContactPlaneBox.obj
 0001:000010d0       ??__EminV4Error@_VecMathTests@aos@shdfnd@physx@@YAXXZ 100020d0 f   GuContactPlaneBox.obj
 0001:000010f0       ??__EmaxFError@_VecMathTests@aos@shdfnd@physx@@YAXXZ 100020f0 f   GuContactPlaneCapsule.obj
 0001:00001110       ??__EmaxV3Error@_VecMathTests@aos@shdfnd@physx@@YAXXZ 10002110 f   GuContactPlaneCapsule.obj
 0001:00001120       ??__EmaxV4Error@_VecMathTests@aos@shdfnd@physx@@YAXXZ 10002120 f   GuContactPlaneCapsule.obj
 0001:00001140       ??__EminFError@_VecMathTests@aos@shdfnd@physx@@YAXXZ 10002140 f   GuContactPlaneCapsule.obj
 0001:00001160       ??__EminV3Error@_VecMathTests@aos@shdfnd@physx@@YAXXZ 10002160 f   GuContactPlaneCapsule.obj
 0001:00001170       ??__EminV4Error@_VecMathTests@aos@shdfnd@physx@@YAXXZ 10002170 f   GuContactPlaneCapsule.obj
 0001:00001190       ??__EmaxFError@_VecMathTests@aos@shdfnd@physx@@YAXXZ 10002190 f   GuContactPlaneConvex.obj
 0001:000011b0       ??__EmaxV3Error@_VecMathTests@aos@shdfnd@physx@@YAXXZ 100021b0 f   GuContactPlaneConvex.obj
 0001:000011c0       ??__EmaxV4Error@_VecMathTests@aos@shdfnd@physx@@YAXXZ 100021c0 f   GuContactPlaneConvex.obj
 0001:000011e0       ??__EminFError@_VecMathTests@aos@shdfnd@physx@@YAXXZ 100021e0 f   GuContactPlaneConvex.obj
 0001:00001200       ??__EminV3Error@_VecMathTests@aos@shdfnd@physx@@YAXXZ 10002200 f   GuContactPlaneConvex.obj
 0001:00001210       ??__EminV4Error@_VecMathTests@aos@shdfnd@physx@@YAXXZ 10002210 f   GuContactPlaneConvex.obj
 0001:00001230       ??__EmaxFError@_VecMathTests@aos@shdfnd@physx@@YAXXZ 10002230 f   GuContactSphereBox.obj
 0001:00001250       ??__EmaxV3Error@_VecMathTests@aos@shdfnd@physx@@YAXXZ 10002250 f   GuContactSphereBox.obj
 0001:00001260       ??__EmaxV4Error@_VecMathTests@aos@shdfnd@physx@@YAXXZ 10002260 f   GuContactSphereBox.obj
 0001:00001280       ??__EminFError@_VecMathTests@aos@shdfnd@physx@@YAXXZ 10002280 f   GuContactSphereBox.obj
 0001:000012a0       ??__EminV3Error@_VecMathTests@aos@shdfnd@physx@@YAXXZ 100022a0 f   GuContactSphereBox.obj
 0001:000012b0       ??__EminV4Error@_VecMathTests@aos@shdfnd@physx@@YAXXZ 100022b0 f   GuContactSphereBox.obj
 0001:000012d0       ??__EmaxFError@_VecMathTests@aos@shdfnd@physx@@YAXXZ 100022d0 f   GuContactSphereCapsule.obj
 0001:000012f0       ??__EmaxV3Error@_VecMathTests@aos@shdfnd@physx@@YAXXZ 100022f0 f   GuContactSphereCapsule.obj
 0001:00001300       ??__EmaxV4Error@_VecMathTests@aos@shdfnd@physx@@YAXXZ 10002300 f   GuContactSphereCapsule.obj
 0001:00001320       ??__EminFError@_VecMathTests@aos@shdfnd@physx@@YAXXZ 10002320 f   GuContactSphereCapsule.obj
 0001:00001340       ??__EminV3Error@_VecMathTests@aos@shdfnd@physx@@YAXXZ 10002340 f   GuContactSphereCapsule.obj
 0001:00001350       ??__EminV4Error@_VecMathTests@aos@shdfnd@physx@@YAXXZ 10002350 f   GuContactSphereCapsule.obj
 0001:00001370       ??__EmaxFError@_VecMathTests@aos@shdfnd@physx@@YAXXZ 10002370 f   GuContactSphereMesh.obj
 0001:00001390       ??__EmaxV3Error@_VecMathTests@aos@shdfnd@physx@@YAXXZ 10002390 f   GuContactSphereMesh.obj
 0001:000013a0       ??__EmaxV4Error@_VecMathTests@aos@shdfnd@physx@@YAXXZ 100023a0 f   GuContactSphereMesh.obj
 0001:000013c0       ??__EminFError@_VecMathTests@aos@shdfnd@physx@@YAXXZ 100023c0 f   GuContactSphereMesh.obj
 0001:000013e0       ??__EminV3Error@_VecMathTests@aos@shdfnd@physx@@YAXXZ 100023e0 f   GuContactSphereMesh.obj
 0001:000013f0       ??__EminV4Error@_VecMathTests@aos@shdfnd@physx@@YAXXZ 100023f0 f   GuContactSphereMesh.obj
 0001:00001410       ??__EmaxFError@_VecMathTests@aos@shdfnd@physx@@YAXXZ 10002410 f   GuContactSpherePlane.obj
 0001:00001430       ??__EmaxV3Error@_VecMathTests@aos@shdfnd@physx@@YAXXZ 10002430 f   GuContactSpherePlane.obj
 0001:00001440       ??__EmaxV4Error@_VecMathTests@aos@shdfnd@physx@@YAXXZ 10002440 f   GuContactSpherePlane.obj
 0001:00001460       ??__EminFError@_VecMathTests@aos@shdfnd@physx@@YAXXZ 10002460 f   GuContactSpherePlane.obj
 0001:00001480       ??__EminV3Error@_VecMathTests@aos@shdfnd@physx@@YAXXZ 10002480 f   GuContactSpherePlane.obj
 0001:00001490       ??__EminV4Error@_VecMathTests@aos@shdfnd@physx@@YAXXZ 10002490 f   GuContactSpherePlane.obj
 0001:000014b0       ??__EmaxFError@_VecMathTests@aos@shdfnd@physx@@YAXXZ 100024b0 f   GuContactSphereSphere.obj
 0001:000014d0       ??__EmaxV3Error@_VecMathTests@aos@shdfnd@physx@@YAXXZ 100024d0 f   GuContactSphereSphere.obj
 0001:000014e0       ??__EmaxV4Error@_VecMathTests@aos@shdfnd@physx@@YAXXZ 100024e0 f   GuContactSphereSphere.obj
 0001:00001500       ??__EminFError@_VecMathTests@aos@shdfnd@physx@@YAXXZ 10002500 f   GuContactSphereSphere.obj
 0001:00001520       ??__EminV3Error@_VecMathTests@aos@shdfnd@physx@@YAXXZ 10002520 f   GuContactSphereSphere.obj
 0001:00001530       ??__EminV4Error@_VecMathTests@aos@shdfnd@physx@@YAXXZ 10002530 f   GuContactSphereSphere.obj
 0001:00001550       ??__EmaxFError@_VecMathTests@aos@shdfnd@physx@@YAXXZ 10002550 f   GuConvexHelper.obj
 0001:00001570       ??__EmaxV3Error@_VecMathTests@aos@shdfnd@physx@@YAXXZ 10002570 f   GuConvexHelper.obj
 0001:00001580       ??__EmaxV4Error@_VecMathTests@aos@shdfnd@physx@@YAXXZ 10002580 f   GuConvexHelper.obj
 0001:000015a0       ??__EminFError@_VecMathTests@aos@shdfnd@physx@@YAXXZ 100025a0 f   GuConvexHelper.obj
 0001:000015c0       ??__EminV3Error@_VecMathTests@aos@shdfnd@physx@@YAXXZ 100025c0 f   GuConvexHelper.obj
 0001:000015d0       ??__EminV4Error@_VecMathTests@aos@shdfnd@physx@@YAXXZ 100025d0 f   GuConvexHelper.obj
 0001:000015f0       ??__EboxVertexTable@physx@@YAXXZ 100025f0 f   GuConvexSupportTable.obj
 0001:00001660       ??__EmaxFError@_VecMathTests@aos@shdfnd@physx@@YAXXZ 10002660 f   GuConvexSupportTable.obj
 0001:00001680       ??__EmaxV3Error@_VecMathTests@aos@shdfnd@physx@@YAXXZ 10002680 f   GuConvexSupportTable.obj
 0001:00001690       ??__EmaxV4Error@_VecMathTests@aos@shdfnd@physx@@YAXXZ 10002690 f   GuConvexSupportTable.obj
 0001:000016b0       ??__EminFError@_VecMathTests@aos@shdfnd@physx@@YAXXZ 100026b0 f   GuConvexSupportTable.obj
 0001:000016d0       ??__EminV3Error@_VecMathTests@aos@shdfnd@physx@@YAXXZ 100026d0 f   GuConvexSupportTable.obj
 0001:000016e0       ??__EminV4Error@_VecMathTests@aos@shdfnd@physx@@YAXXZ 100026e0 f   GuConvexSupportTable.obj
 0001:00001700       ??__EmaxFError@_VecMathTests@aos@shdfnd@physx@@YAXXZ 10002700 f   GuConvexUtilsInternal.obj
 0001:00001720       ??__EmaxV3Error@_VecMathTests@aos@shdfnd@physx@@YAXXZ 10002720 f   GuConvexUtilsInternal.obj
 0001:00001730       ??__EmaxV4Error@_VecMathTests@aos@shdfnd@physx@@YAXXZ 10002730 f   GuConvexUtilsInternal.obj
 0001:00001750       ??__EminFError@_VecMathTests@aos@shdfnd@physx@@YAXXZ 10002750 f   GuConvexUtilsInternal.obj
 0001:00001770       ??__EminV3Error@_VecMathTests@aos@shdfnd@physx@@YAXXZ 10002770 f   GuConvexUtilsInternal.obj
 0001:00001780       ??__EminV4Error@_VecMathTests@aos@shdfnd@physx@@YAXXZ 10002780 f   GuConvexUtilsInternal.obj
 0001:000017a0       ??__EmaxFError@_VecMathTests@aos@shdfnd@physx@@YAXXZ 100027a0 f   GuDistancePointTriangle.obj
 0001:000017c0       ??__EmaxV3Error@_VecMathTests@aos@shdfnd@physx@@YAXXZ 100027c0 f   GuDistancePointTriangle.obj
 0001:000017d0       ??__EmaxV4Error@_VecMathTests@aos@shdfnd@physx@@YAXXZ 100027d0 f   GuDistancePointTriangle.obj
 0001:000017f0       ??__EminFError@_VecMathTests@aos@shdfnd@physx@@YAXXZ 100027f0 f   GuDistancePointTriangle.obj
 0001:00001810       ??__EminV3Error@_VecMathTests@aos@shdfnd@physx@@YAXXZ 10002810 f   GuDistancePointTriangle.obj
 0001:00001820       ??__EminV4Error@_VecMathTests@aos@shdfnd@physx@@YAXXZ 10002820 f   GuDistancePointTriangle.obj
 0001:00001840       ??__EmaxFError@_VecMathTests@aos@shdfnd@physx@@YAXXZ 10002840 f   GuDistanceSegmentSegment.obj
 0001:00001860       ??__EmaxV3Error@_VecMathTests@aos@shdfnd@physx@@YAXXZ 10002860 f   GuDistanceSegmentSegment.obj
 0001:00001870       ??__EmaxV4Error@_VecMathTests@aos@shdfnd@physx@@YAXXZ 10002870 f   GuDistanceSegmentSegment.obj
 0001:00001890       ??__EminFError@_VecMathTests@aos@shdfnd@physx@@YAXXZ 10002890 f   GuDistanceSegmentSegment.obj
 0001:000018b0       ??__EminV3Error@_VecMathTests@aos@shdfnd@physx@@YAXXZ 100028b0 f   GuDistanceSegmentSegment.obj
 0001:000018c0       ??__EminV4Error@_VecMathTests@aos@shdfnd@physx@@YAXXZ 100028c0 f   GuDistanceSegmentSegment.obj
 0001:000018e0       ??__EmaxFError@_VecMathTests@aos@shdfnd@physx@@YAXXZ 100028e0 f   GuDistanceSegmentTriangle.obj
 0001:00001900       ??__EmaxV3Error@_VecMathTests@aos@shdfnd@physx@@YAXXZ 10002900 f   GuDistanceSegmentTriangle.obj
 0001:00001910       ??__EmaxV4Error@_VecMathTests@aos@shdfnd@physx@@YAXXZ 10002910 f   GuDistanceSegmentTriangle.obj
 0001:00001930       ??__EminFError@_VecMathTests@aos@shdfnd@physx@@YAXXZ 10002930 f   GuDistanceSegmentTriangle.obj
 0001:00001950       ??__EminV3Error@_VecMathTests@aos@shdfnd@physx@@YAXXZ 10002950 f   GuDistanceSegmentTriangle.obj
 0001:00001960       ??__EminV4Error@_VecMathTests@aos@shdfnd@physx@@YAXXZ 10002960 f   GuDistanceSegmentTriangle.obj
 0001:00001980       ??__EmaxFError@_VecMathTests@aos@shdfnd@physx@@YAXXZ 10002980 f   GuEPA.obj
 0001:000019a0       ??__EmaxV3Error@_VecMathTests@aos@shdfnd@physx@@YAXXZ 100029a0 f   GuEPA.obj
 0001:000019b0       ??__EmaxV4Error@_VecMathTests@aos@shdfnd@physx@@YAXXZ 100029b0 f   GuEPA.obj
 0001:000019d0       ??__EminFError@_VecMathTests@aos@shdfnd@physx@@YAXXZ 100029d0 f   GuEPA.obj
 0001:000019f0       ??__EminV3Error@_VecMathTests@aos@shdfnd@physx@@YAXXZ 100029f0 f   GuEPA.obj
 0001:00001a00       ??__EminV4Error@_VecMathTests@aos@shdfnd@physx@@YAXXZ 10002a00 f   GuEPA.obj
 0001:00001a20       ??__EmaxFError@_VecMathTests@aos@shdfnd@physx@@YAXXZ 10002a20 f   GuGJKSimplex.obj
 0001:00001a40       ??__EmaxV3Error@_VecMathTests@aos@shdfnd@physx@@YAXXZ 10002a40 f   GuGJKSimplex.obj
 0001:00001a50       ??__EmaxV4Error@_VecMathTests@aos@shdfnd@physx@@YAXXZ 10002a50 f   GuGJKSimplex.obj
 0001:00001a70       ??__EminFError@_VecMathTests@aos@shdfnd@physx@@YAXXZ 10002a70 f   GuGJKSimplex.obj
 0001:00001a90       ??__EminV3Error@_VecMathTests@aos@shdfnd@physx@@YAXXZ 10002a90 f   GuGJKSimplex.obj
 0001:00001aa0       ??__EminV4Error@_VecMathTests@aos@shdfnd@physx@@YAXXZ 10002aa0 f   GuGJKSimplex.obj
 0001:00001ac0       ??__EmaxFError@_VecMathTests@aos@shdfnd@physx@@YAXXZ 10002ac0 f   GuGJKTest.obj
 0001:00001ae0       ??__EmaxV3Error@_VecMathTests@aos@shdfnd@physx@@YAXXZ 10002ae0 f   GuGJKTest.obj
 0001:00001af0       ??__EmaxV4Error@_VecMathTests@aos@shdfnd@physx@@YAXXZ 10002af0 f   GuGJKTest.obj
 0001:00001b10       ??__EminFError@_VecMathTests@aos@shdfnd@physx@@YAXXZ 10002b10 f   GuGJKTest.obj
 0001:00001b30       ??__EminV3Error@_VecMathTests@aos@shdfnd@physx@@YAXXZ 10002b30 f   GuGJKTest.obj
 0001:00001b40       ??__EminV4Error@_VecMathTests@aos@shdfnd@physx@@YAXXZ 10002b40 f   GuGJKTest.obj
 0001:00001b60       ??__EmaxFError@_VecMathTests@aos@shdfnd@physx@@YAXXZ 10002b60 f   GuHeightFieldUtil.obj
 0001:00001b80       ??__EmaxV3Error@_VecMathTests@aos@shdfnd@physx@@YAXXZ 10002b80 f   GuHeightFieldUtil.obj
 0001:00001b90       ??__EmaxV4Error@_VecMathTests@aos@shdfnd@physx@@YAXXZ 10002b90 f   GuHeightFieldUtil.obj
 0001:00001bb0       ??__EminFError@_VecMathTests@aos@shdfnd@physx@@YAXXZ 10002bb0 f   GuHeightFieldUtil.obj
 0001:00001bd0       ??__EminV3Error@_VecMathTests@aos@shdfnd@physx@@YAXXZ 10002bd0 f   GuHeightFieldUtil.obj
 0001:00001be0       ??__EminV4Error@_VecMathTests@aos@shdfnd@physx@@YAXXZ 10002be0 f   GuHeightFieldUtil.obj
 0001:00001c00       ??__EmaxFError@_VecMathTests@aos@shdfnd@physx@@YAXXZ 10002c00 f   GuOverlapTestsHF.obj
 0001:00001c20       ??__EmaxV3Error@_VecMathTests@aos@shdfnd@physx@@YAXXZ 10002c20 f   GuOverlapTestsHF.obj
 0001:00001c30       ??__EmaxV4Error@_VecMathTests@aos@shdfnd@physx@@YAXXZ 10002c30 f   GuOverlapTestsHF.obj
 0001:00001c50       ??__EminFError@_VecMathTests@aos@shdfnd@physx@@YAXXZ 10002c50 f   GuOverlapTestsHF.obj
 0001:00001c70       ??__EminV3Error@_VecMathTests@aos@shdfnd@physx@@YAXXZ 10002c70 f   GuOverlapTestsHF.obj
 0001:00001c80       ??__EminV4Error@_VecMathTests@aos@shdfnd@physx@@YAXXZ 10002c80 f   GuOverlapTestsHF.obj
 0001:00001ca0       ??__EmaxFError@_VecMathTests@aos@shdfnd@physx@@YAXXZ 10002ca0 f   GuSweepsHF.obj
 0001:00001cc0       ??__EmaxV3Error@_VecMathTests@aos@shdfnd@physx@@YAXXZ 10002cc0 f   GuSweepsHF.obj
 0001:00001cd0       ??__EmaxV4Error@_VecMathTests@aos@shdfnd@physx@@YAXXZ 10002cd0 f   GuSweepsHF.obj
 0001:00001cf0       ??__EminFError@_VecMathTests@aos@shdfnd@physx@@YAXXZ 10002cf0 f   GuSweepsHF.obj
 0001:00001d10       ??__EminV3Error@_VecMathTests@aos@shdfnd@physx@@YAXXZ 10002d10 f   GuSweepsHF.obj
 0001:00001d20       ??__EminV4Error@_VecMathTests@aos@shdfnd@physx@@YAXXZ 10002d20 f   GuSweepsHF.obj
 0001:00001d40       ??__EmaxFError@_VecMathTests@aos@shdfnd@physx@@YAXXZ 10002d40 f   GuIntersectionRayBox.obj
 0001:00001d60       ??__EmaxV3Error@_VecMathTests@aos@shdfnd@physx@@YAXXZ 10002d60 f   GuIntersectionRayBox.obj
 0001:00001d70       ??__EmaxV4Error@_VecMathTests@aos@shdfnd@physx@@YAXXZ 10002d70 f   GuIntersectionRayBox.obj
 0001:00001d90       ??__EminFError@_VecMathTests@aos@shdfnd@physx@@YAXXZ 10002d90 f   GuIntersectionRayBox.obj
 0001:00001db0       ??__EminV3Error@_VecMathTests@aos@shdfnd@physx@@YAXXZ 10002db0 f   GuIntersectionRayBox.obj
 0001:00001dc0       ??__EminV4Error@_VecMathTests@aos@shdfnd@physx@@YAXXZ 10002dc0 f   GuIntersectionRayBox.obj
 0001:00001de0       ??__EmaxFError@_VecMathTests@aos@shdfnd@physx@@YAXXZ 10002de0 f   GuIntersectionTriangleBox.obj
 0001:00001e00       ??__EmaxV3Error@_VecMathTests@aos@shdfnd@physx@@YAXXZ 10002e00 f   GuIntersectionTriangleBox.obj
 0001:00001e10       ??__EmaxV4Error@_VecMathTests@aos@shdfnd@physx@@YAXXZ 10002e10 f   GuIntersectionTriangleBox.obj
 0001:00001e30       ??__EminFError@_VecMathTests@aos@shdfnd@physx@@YAXXZ 10002e30 f   GuIntersectionTriangleBox.obj
 0001:00001e50       ??__EminV3Error@_VecMathTests@aos@shdfnd@physx@@YAXXZ 10002e50 f   GuIntersectionTriangleBox.obj
 0001:00001e60       ??__EminV4Error@_VecMathTests@aos@shdfnd@physx@@YAXXZ 10002e60 f   GuIntersectionTriangleBox.obj
 0001:00001e80       ??__EsignV@@YAXXZ          10002e80 f   GuIntersectionTriangleBox.obj
 0001:00001ec0       ??__EmaxFError@_VecMathTests@aos@shdfnd@physx@@YAXXZ 10002ec0 f   GuBV4.obj
 0001:00001ee0       ??__EmaxV3Error@_VecMathTests@aos@shdfnd@physx@@YAXXZ 10002ee0 f   GuBV4.obj
 0001:00001ef0       ??__EmaxV4Error@_VecMathTests@aos@shdfnd@physx@@YAXXZ 10002ef0 f   GuBV4.obj
 0001:00001f10       ??__EminFError@_VecMathTests@aos@shdfnd@physx@@YAXXZ 10002f10 f   GuBV4.obj
 0001:00001f30       ??__EminV3Error@_VecMathTests@aos@shdfnd@physx@@YAXXZ 10002f30 f   GuBV4.obj
 0001:00001f40       ??__EminV4Error@_VecMathTests@aos@shdfnd@physx@@YAXXZ 10002f40 f   GuBV4.obj
 0001:00001f60       ??__EmaxFError@_VecMathTests@aos@shdfnd@physx@@YAXXZ 10002f60 f   GuBV4Build.obj
 0001:00001f80       ??__EmaxV3Error@_VecMathTests@aos@shdfnd@physx@@YAXXZ 10002f80 f   GuBV4Build.obj
 0001:00001f90       ??__EmaxV4Error@_VecMathTests@aos@shdfnd@physx@@YAXXZ 10002f90 f   GuBV4Build.obj
 0001:00001fb0       ??__EminFError@_VecMathTests@aos@shdfnd@physx@@YAXXZ 10002fb0 f   GuBV4Build.obj
 0001:00001fd0       ??__EminV3Error@_VecMathTests@aos@shdfnd@physx@@YAXXZ 10002fd0 f   GuBV4Build.obj
 0001:00001fe0       ??__EminV4Error@_VecMathTests@aos@shdfnd@physx@@YAXXZ 10002fe0 f   GuBV4Build.obj
 0001:00002000       ??__EepsFloat4@?A0xc24db68b@@YAXXZ 10003000 f   GuBV4_AABBSweep.obj
 0001:00002020       ??__EepsInflateFloat4@?A0xc24db68b@@YAXXZ 10003020 f   GuBV4_AABBSweep.obj
 0001:00002040       ??__EmaxFError@_VecMathTests@aos@shdfnd@physx@@YAXXZ 10003040 f   GuBV4_AABBSweep.obj
 0001:00002060       ??__EmaxV3Error@_VecMathTests@aos@shdfnd@physx@@YAXXZ 10003060 f   GuBV4_AABBSweep.obj
 0001:00002070       ??__EmaxV4Error@_VecMathTests@aos@shdfnd@physx@@YAXXZ 10003070 f   GuBV4_AABBSweep.obj
 0001:00002090       ??__EminFError@_VecMathTests@aos@shdfnd@physx@@YAXXZ 10003090 f   GuBV4_AABBSweep.obj
 0001:000020b0       ??__EminV3Error@_VecMathTests@aos@shdfnd@physx@@YAXXZ 100030b0 f   GuBV4_AABBSweep.obj
 0001:000020c0       ??__EminV4Error@_VecMathTests@aos@shdfnd@physx@@YAXXZ 100030c0 f   GuBV4_AABBSweep.obj
 0001:000020e0       ??__EsignMask@?A0xc24db68b@@YAXXZ 100030e0 f   GuBV4_AABBSweep.obj
 0001:00002120       ??__Etwos@?A0xc24db68b@@YAXXZ 10003120 f   GuBV4_AABBSweep.obj
 0001:00002140       ??__Ezeroes@?A0xc24db68b@@YAXXZ 10003140 f   GuBV4_AABBSweep.obj
 0001:00002150       ??__EmaxFError@_VecMathTests@aos@shdfnd@physx@@YAXXZ 10003150 f   GuBV4_BoxOverlap.obj
 0001:00002170       ??__EmaxV3Error@_VecMathTests@aos@shdfnd@physx@@YAXXZ 10003170 f   GuBV4_BoxOverlap.obj
 0001:00002180       ??__EmaxV4Error@_VecMathTests@aos@shdfnd@physx@@YAXXZ 10003180 f   GuBV4_BoxOverlap.obj
 0001:000021a0       ??__EminFError@_VecMathTests@aos@shdfnd@physx@@YAXXZ 100031a0 f   GuBV4_BoxOverlap.obj
 0001:000021c0       ??__EminV3Error@_VecMathTests@aos@shdfnd@physx@@YAXXZ 100031c0 f   GuBV4_BoxOverlap.obj
 0001:000021d0       ??__EminV4Error@_VecMathTests@aos@shdfnd@physx@@YAXXZ 100031d0 f   GuBV4_BoxOverlap.obj
 0001:000021f0       ??__EmaxFError@_VecMathTests@aos@shdfnd@physx@@YAXXZ 100031f0 f   GuBV4_CapsuleSweep.obj
 0001:00002210       ??__EmaxV3Error@_VecMathTests@aos@shdfnd@physx@@YAXXZ 10003210 f   GuBV4_CapsuleSweep.obj
 0001:00002220       ??__EmaxV4Error@_VecMathTests@aos@shdfnd@physx@@YAXXZ 10003220 f   GuBV4_CapsuleSweep.obj
 0001:00002240       ??__EminFError@_VecMathTests@aos@shdfnd@physx@@YAXXZ 10003240 f   GuBV4_CapsuleSweep.obj
 0001:00002260       ??__EminV3Error@_VecMathTests@aos@shdfnd@physx@@YAXXZ 10003260 f   GuBV4_CapsuleSweep.obj
 0001:00002270       ??__EminV4Error@_VecMathTests@aos@shdfnd@physx@@YAXXZ 10003270 f   GuBV4_CapsuleSweep.obj
 0001:00002290       ??__EepsFloat4@?A0x7ab40344@@YAXXZ 10003290 f   GuBV4_CapsuleSweepAA.obj
 0001:000022b0       ??__EepsInflateFloat4@?A0x7ab40344@@YAXXZ 100032b0 f   GuBV4_CapsuleSweepAA.obj
 0001:000022d0       ??__EmaxFError@_VecMathTests@aos@shdfnd@physx@@YAXXZ 100032d0 f   GuBV4_CapsuleSweepAA.obj
 0001:000022f0       ??__EmaxV3Error@_VecMathTests@aos@shdfnd@physx@@YAXXZ 100032f0 f   GuBV4_CapsuleSweepAA.obj
 0001:00002300       ??__EmaxV4Error@_VecMathTests@aos@shdfnd@physx@@YAXXZ 10003300 f   GuBV4_CapsuleSweepAA.obj
 0001:00002320       ??__EminFError@_VecMathTests@aos@shdfnd@physx@@YAXXZ 10003320 f   GuBV4_CapsuleSweepAA.obj
 0001:00002340       ??__EminV3Error@_VecMathTests@aos@shdfnd@physx@@YAXXZ 10003340 f   GuBV4_CapsuleSweepAA.obj
 0001:00002350       ??__EminV4Error@_VecMathTests@aos@shdfnd@physx@@YAXXZ 10003350 f   GuBV4_CapsuleSweepAA.obj
 0001:00002370       ??__EsignMask@?A0x7ab40344@@YAXXZ 10003370 f   GuBV4_CapsuleSweepAA.obj
 0001:000023b0       ??__Etwos@?A0x7ab40344@@YAXXZ 100033b0 f   GuBV4_CapsuleSweepAA.obj
 0001:000023d0       ??__Ezeroes@?A0x7ab40344@@YAXXZ 100033d0 f   GuBV4_CapsuleSweepAA.obj
 0001:000023e0       ??__EmaxFError@_VecMathTests@aos@shdfnd@physx@@YAXXZ 100033e0 f   GuBV4_OBBSweep.obj
 0001:00002400       ??__EmaxV3Error@_VecMathTests@aos@shdfnd@physx@@YAXXZ 10003400 f   GuBV4_OBBSweep.obj
 0001:00002410       ??__EmaxV4Error@_VecMathTests@aos@shdfnd@physx@@YAXXZ 10003410 f   GuBV4_OBBSweep.obj
 0001:00002430       ??__EminFError@_VecMathTests@aos@shdfnd@physx@@YAXXZ 10003430 f   GuBV4_OBBSweep.obj
 0001:00002450       ??__EminV3Error@_VecMathTests@aos@shdfnd@physx@@YAXXZ 10003450 f   GuBV4_OBBSweep.obj
 0001:00002460       ??__EminV4Error@_VecMathTests@aos@shdfnd@physx@@YAXXZ 10003460 f   GuBV4_OBBSweep.obj
 0001:00002480       ??__EepsFloat4@?A0x7d303ae7@@YAXXZ 10003480 f   GuBV4_Raycast.obj
 0001:000024a0       ??__EepsInflateFloat4@?A0x7d303ae7@@YAXXZ 100034a0 f   GuBV4_Raycast.obj
 0001:000024c0       ??__EmaxFError@_VecMathTests@aos@shdfnd@physx@@YAXXZ 100034c0 f   GuBV4_Raycast.obj
 0001:000024e0       ??__EmaxV3Error@_VecMathTests@aos@shdfnd@physx@@YAXXZ 100034e0 f   GuBV4_Raycast.obj
 0001:000024f0       ??__EmaxV4Error@_VecMathTests@aos@shdfnd@physx@@YAXXZ 100034f0 f   GuBV4_Raycast.obj
 0001:00002510       ??__EminFError@_VecMathTests@aos@shdfnd@physx@@YAXXZ 10003510 f   GuBV4_Raycast.obj
 0001:00002530       ??__EminV3Error@_VecMathTests@aos@shdfnd@physx@@YAXXZ 10003530 f   GuBV4_Raycast.obj
 0001:00002540       ??__EminV4Error@_VecMathTests@aos@shdfnd@physx@@YAXXZ 10003540 f   GuBV4_Raycast.obj
 0001:00002560       ??__EsignMask@?A0x7d303ae7@@YAXXZ 10003560 f   GuBV4_Raycast.obj
 0001:000025a0       ??__Etwos@?A0x7d303ae7@@YAXXZ 100035a0 f   GuBV4_Raycast.obj
 0001:000025c0       ??__Ezeroes@?A0x7d303ae7@@YAXXZ 100035c0 f   GuBV4_Raycast.obj
 0001:000025d0       ??__EmaxFError@_VecMathTests@aos@shdfnd@physx@@YAXXZ 100035d0 f   GuBV4_SphereOverlap.obj
 0001:000025f0       ??__EmaxV3Error@_VecMathTests@aos@shdfnd@physx@@YAXXZ 100035f0 f   GuBV4_SphereOverlap.obj
 0001:00002600       ??__EmaxV4Error@_VecMathTests@aos@shdfnd@physx@@YAXXZ 10003600 f   GuBV4_SphereOverlap.obj
 0001:00002620       ??__EminFError@_VecMathTests@aos@shdfnd@physx@@YAXXZ 10003620 f   GuBV4_SphereOverlap.obj
 0001:00002640       ??__EminV3Error@_VecMathTests@aos@shdfnd@physx@@YAXXZ 10003640 f   GuBV4_SphereOverlap.obj
 0001:00002650       ??__EminV4Error@_VecMathTests@aos@shdfnd@physx@@YAXXZ 10003650 f   GuBV4_SphereOverlap.obj
 0001:00002670       ??__EepsFloat4@?A0x45c24a54@@YAXXZ 10003670 f   GuBV4_SphereSweep.obj
 0001:00002690       ??__EepsInflateFloat4@?A0x45c24a54@@YAXXZ 10003690 f   GuBV4_SphereSweep.obj
 0001:000026b0       ??__EmaxFError@_VecMathTests@aos@shdfnd@physx@@YAXXZ 100036b0 f   GuBV4_SphereSweep.obj
 0001:000026d0       ??__EmaxV3Error@_VecMathTests@aos@shdfnd@physx@@YAXXZ 100036d0 f   GuBV4_SphereSweep.obj
 0001:000026e0       ??__EmaxV4Error@_VecMathTests@aos@shdfnd@physx@@YAXXZ 100036e0 f   GuBV4_SphereSweep.obj
 0001:00002700       ??__EminFError@_VecMathTests@aos@shdfnd@physx@@YAXXZ 10003700 f   GuBV4_SphereSweep.obj
 0001:00002720       ??__EminV3Error@_VecMathTests@aos@shdfnd@physx@@YAXXZ 10003720 f   GuBV4_SphereSweep.obj
 0001:00002730       ??__EminV4Error@_VecMathTests@aos@shdfnd@physx@@YAXXZ 10003730 f   GuBV4_SphereSweep.obj
 0001:00002750       ??__EsignMask@?A0x45c24a54@@YAXXZ 10003750 f   GuBV4_SphereSweep.obj
 0001:00002790       ??__Etwos@?A0x45c24a54@@YAXXZ 10003790 f   GuBV4_SphereSweep.obj
 0001:000027b0       ??__Ezeroes@?A0x45c24a54@@YAXXZ 100037b0 f   GuBV4_SphereSweep.obj
 0001:000027c0       ??__EmaxFError@_VecMathTests@aos@shdfnd@physx@@YAXXZ 100037c0 f   GuMidphaseBV4.obj
 0001:000027e0       ??__EmaxV3Error@_VecMathTests@aos@shdfnd@physx@@YAXXZ 100037e0 f   GuMidphaseBV4.obj
 0001:000027f0       ??__EmaxV4Error@_VecMathTests@aos@shdfnd@physx@@YAXXZ 100037f0 f   GuMidphaseBV4.obj
 0001:00002810       ??__EminFError@_VecMathTests@aos@shdfnd@physx@@YAXXZ 10003810 f   GuMidphaseBV4.obj
 0001:00002830       ??__EminV3Error@_VecMathTests@aos@shdfnd@physx@@YAXXZ 10003830 f   GuMidphaseBV4.obj
 0001:00002840       ??__EminV4Error@_VecMathTests@aos@shdfnd@physx@@YAXXZ 10003840 f   GuMidphaseBV4.obj
 0001:00002860       ??__EmaxFError@_VecMathTests@aos@shdfnd@physx@@YAXXZ 10003860 f   GuMeshQuery.obj
 0001:00002880       ??__EmaxV3Error@_VecMathTests@aos@shdfnd@physx@@YAXXZ 10003880 f   GuMeshQuery.obj
 0001:00002890       ??__EmaxV4Error@_VecMathTests@aos@shdfnd@physx@@YAXXZ 10003890 f   GuMeshQuery.obj
 0001:000028b0       ??__EminFError@_VecMathTests@aos@shdfnd@physx@@YAXXZ 100038b0 f   GuMeshQuery.obj
 0001:000028d0       ??__EminV3Error@_VecMathTests@aos@shdfnd@physx@@YAXXZ 100038d0 f   GuMeshQuery.obj
 0001:000028e0       ??__EminV4Error@_VecMathTests@aos@shdfnd@physx@@YAXXZ 100038e0 f   GuMeshQuery.obj
 0001:00002900       ??__EmaxFError@_VecMathTests@aos@shdfnd@physx@@YAXXZ 10003900 f   GuMidphaseRTree.obj
 0001:00002920       ??__EmaxV3Error@_VecMathTests@aos@shdfnd@physx@@YAXXZ 10003920 f   GuMidphaseRTree.obj
 0001:00002930       ??__EmaxV4Error@_VecMathTests@aos@shdfnd@physx@@YAXXZ 10003930 f   GuMidphaseRTree.obj
 0001:00002950       ??__EminFError@_VecMathTests@aos@shdfnd@physx@@YAXXZ 10003950 f   GuMidphaseRTree.obj
 0001:00002970       ??__EminV3Error@_VecMathTests@aos@shdfnd@physx@@YAXXZ 10003970 f   GuMidphaseRTree.obj
 0001:00002980       ??__EminV4Error@_VecMathTests@aos@shdfnd@physx@@YAXXZ 10003980 f   GuMidphaseRTree.obj
 0001:000029a0       ??__EmaxFError@_VecMathTests@aos@shdfnd@physx@@YAXXZ 100039a0 f   GuOverlapTestsMesh.obj
 0001:000029c0       ??__EmaxV3Error@_VecMathTests@aos@shdfnd@physx@@YAXXZ 100039c0 f   GuOverlapTestsMesh.obj
 0001:000029d0       ??__EmaxV4Error@_VecMathTests@aos@shdfnd@physx@@YAXXZ 100039d0 f   GuOverlapTestsMesh.obj
 0001:000029f0       ??__EminFError@_VecMathTests@aos@shdfnd@physx@@YAXXZ 100039f0 f   GuOverlapTestsMesh.obj
 0001:00002a10       ??__EminV3Error@_VecMathTests@aos@shdfnd@physx@@YAXXZ 10003a10 f   GuOverlapTestsMesh.obj
 0001:00002a20       ??__EminV4Error@_VecMathTests@aos@shdfnd@physx@@YAXXZ 10003a20 f   GuOverlapTestsMesh.obj
 0001:00002a40       ??__EmaxFError@_VecMathTests@aos@shdfnd@physx@@YAXXZ 10003a40 f   GuRTree.obj
 0001:00002a60       ??__EmaxV3Error@_VecMathTests@aos@shdfnd@physx@@YAXXZ 10003a60 f   GuRTree.obj
 0001:00002a70       ??__EmaxV4Error@_VecMathTests@aos@shdfnd@physx@@YAXXZ 10003a70 f   GuRTree.obj
 0001:00002a90       ??__EminFError@_VecMathTests@aos@shdfnd@physx@@YAXXZ 10003a90 f   GuRTree.obj
 0001:00002ab0       ??__EminV3Error@_VecMathTests@aos@shdfnd@physx@@YAXXZ 10003ab0 f   GuRTree.obj
 0001:00002ac0       ??__EminV4Error@_VecMathTests@aos@shdfnd@physx@@YAXXZ 10003ac0 f   GuRTree.obj
 0001:00002ae0       ??__EepsFloat4@?A0x3915a7da@@YAXXZ 10003ae0 f   GuRTreeQueries.obj
 0001:00002b00       ??__EepsInflateFloat4@?A0x3915a7da@@YAXXZ 10003b00 f   GuRTreeQueries.obj
 0001:00002b20       ??__EmaxFError@_VecMathTests@aos@shdfnd@physx@@YAXXZ 10003b20 f   GuRTreeQueries.obj
 0001:00002b40       ??__EmaxV3Error@_VecMathTests@aos@shdfnd@physx@@YAXXZ 10003b40 f   GuRTreeQueries.obj
 0001:00002b50       ??__EmaxV4Error@_VecMathTests@aos@shdfnd@physx@@YAXXZ 10003b50 f   GuRTreeQueries.obj
 0001:00002b70       ??__EminFError@_VecMathTests@aos@shdfnd@physx@@YAXXZ 10003b70 f   GuRTreeQueries.obj
 0001:00002b90       ??__EminV3Error@_VecMathTests@aos@shdfnd@physx@@YAXXZ 10003b90 f   GuRTreeQueries.obj
 0001:00002ba0       ??__EminV4Error@_VecMathTests@aos@shdfnd@physx@@YAXXZ 10003ba0 f   GuRTreeQueries.obj
 0001:00002bc0       ??__EsignMask@?A0x3915a7da@@YAXXZ 10003bc0 f   GuRTreeQueries.obj
 0001:00002c00       ??__Etwos@?A0x3915a7da@@YAXXZ 10003c00 f   GuRTreeQueries.obj
 0001:00002c20       ??__Ezeroes@?A0x3915a7da@@YAXXZ 10003c20 f   GuRTreeQueries.obj
 0001:00002c30       ??__EmaxFError@_VecMathTests@aos@shdfnd@physx@@YAXXZ 10003c30 f   GuSweepsMesh.obj
 0001:00002c50       ??__EmaxV3Error@_VecMathTests@aos@shdfnd@physx@@YAXXZ 10003c50 f   GuSweepsMesh.obj
 0001:00002c60       ??__EmaxV4Error@_VecMathTests@aos@shdfnd@physx@@YAXXZ 10003c60 f   GuSweepsMesh.obj
 0001:00002c80       ??__EminFError@_VecMathTests@aos@shdfnd@physx@@YAXXZ 10003c80 f   GuSweepsMesh.obj
 0001:00002ca0       ??__EminV3Error@_VecMathTests@aos@shdfnd@physx@@YAXXZ 10003ca0 f   GuSweepsMesh.obj
 0001:00002cb0       ??__EminV4Error@_VecMathTests@aos@shdfnd@physx@@YAXXZ 10003cb0 f   GuSweepsMesh.obj
 0001:00002cd0       ??__EmaxFError@_VecMathTests@aos@shdfnd@physx@@YAXXZ 10003cd0 f   GuTriangleMesh.obj
 0001:00002cf0       ??__EmaxV3Error@_VecMathTests@aos@shdfnd@physx@@YAXXZ 10003cf0 f   GuTriangleMesh.obj
 0001:00002d00       ??__EmaxV4Error@_VecMathTests@aos@shdfnd@physx@@YAXXZ 10003d00 f   GuTriangleMesh.obj
 0001:00002d20       ??__EminFError@_VecMathTests@aos@shdfnd@physx@@YAXXZ 10003d20 f   GuTriangleMesh.obj
 0001:00002d40       ??__EminV3Error@_VecMathTests@aos@shdfnd@physx@@YAXXZ 10003d40 f   GuTriangleMesh.obj
 0001:00002d50       ??__EminV4Error@_VecMathTests@aos@shdfnd@physx@@YAXXZ 10003d50 f   GuTriangleMesh.obj
 0001:00002d70       ??__EmaxFError@_VecMathTests@aos@shdfnd@physx@@YAXXZ 10003d70 f   GuTriangleMeshBV4.obj
 0001:00002d90       ??__EmaxV3Error@_VecMathTests@aos@shdfnd@physx@@YAXXZ 10003d90 f   GuTriangleMeshBV4.obj
 0001:00002da0       ??__EmaxV4Error@_VecMathTests@aos@shdfnd@physx@@YAXXZ 10003da0 f   GuTriangleMeshBV4.obj
 0001:00002dc0       ??__EminFError@_VecMathTests@aos@shdfnd@physx@@YAXXZ 10003dc0 f   GuTriangleMeshBV4.obj
 0001:00002de0       ??__EminV3Error@_VecMathTests@aos@shdfnd@physx@@YAXXZ 10003de0 f   GuTriangleMeshBV4.obj
 0001:00002df0       ??__EminV4Error@_VecMathTests@aos@shdfnd@physx@@YAXXZ 10003df0 f   GuTriangleMeshBV4.obj
 0001:00002e10       ??__EmaxFError@_VecMathTests@aos@shdfnd@physx@@YAXXZ 10003e10 f   GuTriangleMeshRTree.obj
 0001:00002e30       ??__EmaxV3Error@_VecMathTests@aos@shdfnd@physx@@YAXXZ 10003e30 f   GuTriangleMeshRTree.obj
 0001:00002e40       ??__EmaxV4Error@_VecMathTests@aos@shdfnd@physx@@YAXXZ 10003e40 f   GuTriangleMeshRTree.obj
 0001:00002e60       ??__EminFError@_VecMathTests@aos@shdfnd@physx@@YAXXZ 10003e60 f   GuTriangleMeshRTree.obj
 0001:00002e80       ??__EminV3Error@_VecMathTests@aos@shdfnd@physx@@YAXXZ 10003e80 f   GuTriangleMeshRTree.obj
 0001:00002e90       ??__EminV4Error@_VecMathTests@aos@shdfnd@physx@@YAXXZ 10003e90 f   GuTriangleMeshRTree.obj
 0001:00002eb0       ??__EmaxFError@_VecMathTests@aos@shdfnd@physx@@YAXXZ 10003eb0 f   GuBV32Build.obj
 0001:00002ed0       ??__EmaxV3Error@_VecMathTests@aos@shdfnd@physx@@YAXXZ 10003ed0 f   GuBV32Build.obj
 0001:00002ee0       ??__EmaxV4Error@_VecMathTests@aos@shdfnd@physx@@YAXXZ 10003ee0 f   GuBV32Build.obj
 0001:00002f00       ??__EminFError@_VecMathTests@aos@shdfnd@physx@@YAXXZ 10003f00 f   GuBV32Build.obj
 0001:00002f20       ??__EminV3Error@_VecMathTests@aos@shdfnd@physx@@YAXXZ 10003f20 f   GuBV32Build.obj
 0001:00002f30       ??__EminV4Error@_VecMathTests@aos@shdfnd@physx@@YAXXZ 10003f30 f   GuBV32Build.obj
 0001:00002f50       ??__EmaxFError@_VecMathTests@aos@shdfnd@physx@@YAXXZ 10003f50 f   GuPCMContactBoxBox.obj
 0001:00002f70       ??__EmaxV3Error@_VecMathTests@aos@shdfnd@physx@@YAXXZ 10003f70 f   GuPCMContactBoxBox.obj
 0001:00002f80       ??__EmaxV4Error@_VecMathTests@aos@shdfnd@physx@@YAXXZ 10003f80 f   GuPCMContactBoxBox.obj
 0001:00002fa0       ??__EminFError@_VecMathTests@aos@shdfnd@physx@@YAXXZ 10003fa0 f   GuPCMContactBoxBox.obj
 0001:00002fc0       ??__EminV3Error@_VecMathTests@aos@shdfnd@physx@@YAXXZ 10003fc0 f   GuPCMContactBoxBox.obj
 0001:00002fd0       ??__EminV4Error@_VecMathTests@aos@shdfnd@physx@@YAXXZ 10003fd0 f   GuPCMContactBoxBox.obj
 0001:00003000       ??__EmaxFError@_VecMathTests@aos@shdfnd@physx@@YAXXZ 10004000 f   GuPCMContactBoxConvex.obj
 0001:00003020       ??__EmaxV3Error@_VecMathTests@aos@shdfnd@physx@@YAXXZ 10004020 f   GuPCMContactBoxConvex.obj
 0001:00003030       ??__EmaxV4Error@_VecMathTests@aos@shdfnd@physx@@YAXXZ 10004030 f   GuPCMContactBoxConvex.obj
 0001:00003050       ??__EminFError@_VecMathTests@aos@shdfnd@physx@@YAXXZ 10004050 f   GuPCMContactBoxConvex.obj
 0001:00003070       ??__EminV3Error@_VecMathTests@aos@shdfnd@physx@@YAXXZ 10004070 f   GuPCMContactBoxConvex.obj
 0001:00003080       ??__EminV4Error@_VecMathTests@aos@shdfnd@physx@@YAXXZ 10004080 f   GuPCMContactBoxConvex.obj
 0001:000030a0       ??__EmaxFError@_VecMathTests@aos@shdfnd@physx@@YAXXZ 100040a0 f   GuPCMContactCapsuleBox.obj
 0001:000030c0       ??__EmaxV3Error@_VecMathTests@aos@shdfnd@physx@@YAXXZ 100040c0 f   GuPCMContactCapsuleBox.obj
 0001:000030d0       ??__EmaxV4Error@_VecMathTests@aos@shdfnd@physx@@YAXXZ 100040d0 f   GuPCMContactCapsuleBox.obj
 0001:000030f0       ??__EminFError@_VecMathTests@aos@shdfnd@physx@@YAXXZ 100040f0 f   GuPCMContactCapsuleBox.obj
 0001:00003110       ??__EminV3Error@_VecMathTests@aos@shdfnd@physx@@YAXXZ 10004110 f   GuPCMContactCapsuleBox.obj
 0001:00003120       ??__EminV4Error@_VecMathTests@aos@shdfnd@physx@@YAXXZ 10004120 f   GuPCMContactCapsuleBox.obj
 0001:00003140       ??__EmaxFError@_VecMathTests@aos@shdfnd@physx@@YAXXZ 10004140 f   GuPCMContactCapsuleCapsule.obj
 0001:00003160       ??__EmaxV3Error@_VecMathTests@aos@shdfnd@physx@@YAXXZ 10004160 f   GuPCMContactCapsuleCapsule.obj
 0001:00003170       ??__EmaxV4Error@_VecMathTests@aos@shdfnd@physx@@YAXXZ 10004170 f   GuPCMContactCapsuleCapsule.obj
 0001:00003190       ??__EminFError@_VecMathTests@aos@shdfnd@physx@@YAXXZ 10004190 f   GuPCMContactCapsuleCapsule.obj
 0001:000031b0       ??__EminV3Error@_VecMathTests@aos@shdfnd@physx@@YAXXZ 100041b0 f   GuPCMContactCapsuleCapsule.obj
 0001:000031c0       ??__EminV4Error@_VecMathTests@aos@shdfnd@physx@@YAXXZ 100041c0 f   GuPCMContactCapsuleCapsule.obj
 0001:000031e0       ??__EmaxFError@_VecMathTests@aos@shdfnd@physx@@YAXXZ 100041e0 f   GuPCMContactCapsuleConvex.obj
 0001:00003200       ??__EmaxV3Error@_VecMathTests@aos@shdfnd@physx@@YAXXZ 10004200 f   GuPCMContactCapsuleConvex.obj
 0001:00003210       ??__EmaxV4Error@_VecMathTests@aos@shdfnd@physx@@YAXXZ 10004210 f   GuPCMContactCapsuleConvex.obj
 0001:00003230       ??__EminFError@_VecMathTests@aos@shdfnd@physx@@YAXXZ 10004230 f   GuPCMContactCapsuleConvex.obj
 0001:00003250       ??__EminV3Error@_VecMathTests@aos@shdfnd@physx@@YAXXZ 10004250 f   GuPCMContactCapsuleConvex.obj
 0001:00003260       ??__EminV4Error@_VecMathTests@aos@shdfnd@physx@@YAXXZ 10004260 f   GuPCMContactCapsuleConvex.obj
 0001:00003280       ??__EmaxFError@_VecMathTests@aos@shdfnd@physx@@YAXXZ 10004280 f   GuPCMContactCapsuleHeightField.obj
 0001:000032a0       ??__EmaxV3Error@_VecMathTests@aos@shdfnd@physx@@YAXXZ 100042a0 f   GuPCMContactCapsuleHeightField.obj
 0001:000032b0       ??__EmaxV4Error@_VecMathTests@aos@shdfnd@physx@@YAXXZ 100042b0 f   GuPCMContactCapsuleHeightField.obj
 0001:000032d0       ??__EminFError@_VecMathTests@aos@shdfnd@physx@@YAXXZ 100042d0 f   GuPCMContactCapsuleHeightField.obj
 0001:000032f0       ??__EminV3Error@_VecMathTests@aos@shdfnd@physx@@YAXXZ 100042f0 f   GuPCMContactCapsuleHeightField.obj
 0001:00003300       ??__EminV4Error@_VecMathTests@aos@shdfnd@physx@@YAXXZ 10004300 f   GuPCMContactCapsuleHeightField.obj
 0001:00003320       ??__EmaxFError@_VecMathTests@aos@shdfnd@physx@@YAXXZ 10004320 f   GuPCMContactCapsuleMesh.obj
 0001:00003340       ??__EmaxV3Error@_VecMathTests@aos@shdfnd@physx@@YAXXZ 10004340 f   GuPCMContactCapsuleMesh.obj
 0001:00003350       ??__EmaxV4Error@_VecMathTests@aos@shdfnd@physx@@YAXXZ 10004350 f   GuPCMContactCapsuleMesh.obj
 0001:00003370       ??__EminFError@_VecMathTests@aos@shdfnd@physx@@YAXXZ 10004370 f   GuPCMContactCapsuleMesh.obj
 0001:00003390       ??__EminV3Error@_VecMathTests@aos@shdfnd@physx@@YAXXZ 10004390 f   GuPCMContactCapsuleMesh.obj
 0001:000033a0       ??__EminV4Error@_VecMathTests@aos@shdfnd@physx@@YAXXZ 100043a0 f   GuPCMContactCapsuleMesh.obj
 0001:000033c0       ??__EmaxFError@_VecMathTests@aos@shdfnd@physx@@YAXXZ 100043c0 f   GuPCMContactConvexCommon.obj
 0001:000033e0       ??__EmaxV3Error@_VecMathTests@aos@shdfnd@physx@@YAXXZ 100043e0 f   GuPCMContactConvexCommon.obj
 0001:000033f0       ??__EmaxV4Error@_VecMathTests@aos@shdfnd@physx@@YAXXZ 100043f0 f   GuPCMContactConvexCommon.obj
 0001:00003410       ??__EminFError@_VecMathTests@aos@shdfnd@physx@@YAXXZ 10004410 f   GuPCMContactConvexCommon.obj
 0001:00003430       ??__EminV3Error@_VecMathTests@aos@shdfnd@physx@@YAXXZ 10004430 f   GuPCMContactConvexCommon.obj
 0001:00003440       ??__EminV4Error@_VecMathTests@aos@shdfnd@physx@@YAXXZ 10004440 f   GuPCMContactConvexCommon.obj
 0001:00003460       ??__EmaxFError@_VecMathTests@aos@shdfnd@physx@@YAXXZ 10004460 f   GuPCMContactConvexConvex.obj
 0001:00003480       ??__EmaxV3Error@_VecMathTests@aos@shdfnd@physx@@YAXXZ 10004480 f   GuPCMContactConvexConvex.obj
 0001:00003490       ??__EmaxV4Error@_VecMathTests@aos@shdfnd@physx@@YAXXZ 10004490 f   GuPCMContactConvexConvex.obj
 0001:000034b0       ??__EminFError@_VecMathTests@aos@shdfnd@physx@@YAXXZ 100044b0 f   GuPCMContactConvexConvex.obj
 0001:000034d0       ??__EminV3Error@_VecMathTests@aos@shdfnd@physx@@YAXXZ 100044d0 f   GuPCMContactConvexConvex.obj
 0001:000034e0       ??__EminV4Error@_VecMathTests@aos@shdfnd@physx@@YAXXZ 100044e0 f   GuPCMContactConvexConvex.obj
 0001:00003500       ??__EmaxFError@_VecMathTests@aos@shdfnd@physx@@YAXXZ 10004500 f   GuPCMContactConvexHeightField.obj
 0001:00003520       ??__EmaxV3Error@_VecMathTests@aos@shdfnd@physx@@YAXXZ 10004520 f   GuPCMContactConvexHeightField.obj
 0001:00003530       ??__EmaxV4Error@_VecMathTests@aos@shdfnd@physx@@YAXXZ 10004530 f   GuPCMContactConvexHeightField.obj
 0001:00003550       ??__EminFError@_VecMathTests@aos@shdfnd@physx@@YAXXZ 10004550 f   GuPCMContactConvexHeightField.obj
 0001:00003570       ??__EminV3Error@_VecMathTests@aos@shdfnd@physx@@YAXXZ 10004570 f   GuPCMContactConvexHeightField.obj
 0001:00003580       ??__EminV4Error@_VecMathTests@aos@shdfnd@physx@@YAXXZ 10004580 f   GuPCMContactConvexHeightField.obj
 0001:000035a0       ??__EmaxFError@_VecMathTests@aos@shdfnd@physx@@YAXXZ 100045a0 f   GuPCMContactConvexMesh.obj
 0001:000035c0       ??__EmaxV3Error@_VecMathTests@aos@shdfnd@physx@@YAXXZ 100045c0 f   GuPCMContactConvexMesh.obj
 0001:000035d0       ??__EmaxV4Error@_VecMathTests@aos@shdfnd@physx@@YAXXZ 100045d0 f   GuPCMContactConvexMesh.obj
 0001:000035f0       ??__EminFError@_VecMathTests@aos@shdfnd@physx@@YAXXZ 100045f0 f   GuPCMContactConvexMesh.obj
 0001:00003610       ??__EminV3Error@_VecMathTests@aos@shdfnd@physx@@YAXXZ 10004610 f   GuPCMContactConvexMesh.obj
 0001:00003620       ??__EminV4Error@_VecMathTests@aos@shdfnd@physx@@YAXXZ 10004620 f   GuPCMContactConvexMesh.obj
 0001:00003640       ??__EmaxFError@_VecMathTests@aos@shdfnd@physx@@YAXXZ 10004640 f   GuPCMContactGenBoxConvex.obj
 0001:00003660       ??__EmaxV3Error@_VecMathTests@aos@shdfnd@physx@@YAXXZ 10004660 f   GuPCMContactGenBoxConvex.obj
 0001:00003670       ??__EmaxV4Error@_VecMathTests@aos@shdfnd@physx@@YAXXZ 10004670 f   GuPCMContactGenBoxConvex.obj
 0001:00003690       ??__EminFError@_VecMathTests@aos@shdfnd@physx@@YAXXZ 10004690 f   GuPCMContactGenBoxConvex.obj
 0001:000036b0       ??__EminV3Error@_VecMathTests@aos@shdfnd@physx@@YAXXZ 100046b0 f   GuPCMContactGenBoxConvex.obj
 0001:000036c0       ??__EminV4Error@_VecMathTests@aos@shdfnd@physx@@YAXXZ 100046c0 f   GuPCMContactGenBoxConvex.obj
 0001:000036e0       ??__EmaxFError@_VecMathTests@aos@shdfnd@physx@@YAXXZ 100046e0 f   GuPCMContactGenSphereCapsule.obj
 0001:00003700       ??__EmaxV3Error@_VecMathTests@aos@shdfnd@physx@@YAXXZ 10004700 f   GuPCMContactGenSphereCapsule.obj
 0001:00003710       ??__EmaxV4Error@_VecMathTests@aos@shdfnd@physx@@YAXXZ 10004710 f   GuPCMContactGenSphereCapsule.obj
 0001:00003730       ??__EminFError@_VecMathTests@aos@shdfnd@physx@@YAXXZ 10004730 f   GuPCMContactGenSphereCapsule.obj
 0001:00003750       ??__EminV3Error@_VecMathTests@aos@shdfnd@physx@@YAXXZ 10004750 f   GuPCMContactGenSphereCapsule.obj
 0001:00003760       ??__EminV4Error@_VecMathTests@aos@shdfnd@physx@@YAXXZ 10004760 f   GuPCMContactGenSphereCapsule.obj
 0001:00003780       ??__EmaxFError@_VecMathTests@aos@shdfnd@physx@@YAXXZ 10004780 f   GuPCMContactPlaneBox.obj
 0001:000037a0       ??__EmaxV3Error@_VecMathTests@aos@shdfnd@physx@@YAXXZ 100047a0 f   GuPCMContactPlaneBox.obj
 0001:000037b0       ??__EmaxV4Error@_VecMathTests@aos@shdfnd@physx@@YAXXZ 100047b0 f   GuPCMContactPlaneBox.obj
 0001:000037d0       ??__EminFError@_VecMathTests@aos@shdfnd@physx@@YAXXZ 100047d0 f   GuPCMContactPlaneBox.obj
 0001:000037f0       ??__EminV3Error@_VecMathTests@aos@shdfnd@physx@@YAXXZ 100047f0 f   GuPCMContactPlaneBox.obj
 0001:00003800       ??__EminV4Error@_VecMathTests@aos@shdfnd@physx@@YAXXZ 10004800 f   GuPCMContactPlaneBox.obj
 0001:00003820       ??__EmaxFError@_VecMathTests@aos@shdfnd@physx@@YAXXZ 10004820 f   GuPCMContactPlaneCapsule.obj
 0001:00003840       ??__EmaxV3Error@_VecMathTests@aos@shdfnd@physx@@YAXXZ 10004840 f   GuPCMContactPlaneCapsule.obj
 0001:00003850       ??__EmaxV4Error@_VecMathTests@aos@shdfnd@physx@@YAXXZ 10004850 f   GuPCMContactPlaneCapsule.obj
 0001:00003870       ??__EminFError@_VecMathTests@aos@shdfnd@physx@@YAXXZ 10004870 f   GuPCMContactPlaneCapsule.obj
 0001:00003890       ??__EminV3Error@_VecMathTests@aos@shdfnd@physx@@YAXXZ 10004890 f   GuPCMContactPlaneCapsule.obj
 0001:000038a0       ??__EminV4Error@_VecMathTests@aos@shdfnd@physx@@YAXXZ 100048a0 f   GuPCMContactPlaneCapsule.obj
 0001:000038c0       ??__EmaxFError@_VecMathTests@aos@shdfnd@physx@@YAXXZ 100048c0 f   GuPCMContactPlaneConvex.obj
 0001:000038e0       ??__EmaxV3Error@_VecMathTests@aos@shdfnd@physx@@YAXXZ 100048e0 f   GuPCMContactPlaneConvex.obj
 0001:000038f0       ??__EmaxV4Error@_VecMathTests@aos@shdfnd@physx@@YAXXZ 100048f0 f   GuPCMContactPlaneConvex.obj
 0001:00003910       ??__EminFError@_VecMathTests@aos@shdfnd@physx@@YAXXZ 10004910 f   GuPCMContactPlaneConvex.obj
 0001:00003930       ??__EminV3Error@_VecMathTests@aos@shdfnd@physx@@YAXXZ 10004930 f   GuPCMContactPlaneConvex.obj
 0001:00003940       ??__EminV4Error@_VecMathTests@aos@shdfnd@physx@@YAXXZ 10004940 f   GuPCMContactPlaneConvex.obj
 0001:00003960       ??__EmaxFError@_VecMathTests@aos@shdfnd@physx@@YAXXZ 10004960 f   GuPCMContactSphereBox.obj
 0001:00003980       ??__EmaxV3Error@_VecMathTests@aos@shdfnd@physx@@YAXXZ 10004980 f   GuPCMContactSphereBox.obj
 0001:00003990       ??__EmaxV4Error@_VecMathTests@aos@shdfnd@physx@@YAXXZ 10004990 f   GuPCMContactSphereBox.obj
 0001:000039b0       ??__EminFError@_VecMathTests@aos@shdfnd@physx@@YAXXZ 100049b0 f   GuPCMContactSphereBox.obj
 0001:000039d0       ??__EminV3Error@_VecMathTests@aos@shdfnd@physx@@YAXXZ 100049d0 f   GuPCMContactSphereBox.obj
 0001:000039e0       ??__EminV4Error@_VecMathTests@aos@shdfnd@physx@@YAXXZ 100049e0 f   GuPCMContactSphereBox.obj
 0001:00003a00       ??__EmaxFError@_VecMathTests@aos@shdfnd@physx@@YAXXZ 10004a00 f   GuPCMContactSphereCapsule.obj
 0001:00003a20       ??__EmaxV3Error@_VecMathTests@aos@shdfnd@physx@@YAXXZ 10004a20 f   GuPCMContactSphereCapsule.obj
 0001:00003a30       ??__EmaxV4Error@_VecMathTests@aos@shdfnd@physx@@YAXXZ 10004a30 f   GuPCMContactSphereCapsule.obj
 0001:00003a50       ??__EminFError@_VecMathTests@aos@shdfnd@physx@@YAXXZ 10004a50 f   GuPCMContactSphereCapsule.obj
 0001:00003a70       ??__EminV3Error@_VecMathTests@aos@shdfnd@physx@@YAXXZ 10004a70 f   GuPCMContactSphereCapsule.obj
 0001:00003a80       ??__EminV4Error@_VecMathTests@aos@shdfnd@physx@@YAXXZ 10004a80 f   GuPCMContactSphereCapsule.obj
 0001:00003aa0       ??__EmaxFError@_VecMathTests@aos@shdfnd@physx@@YAXXZ 10004aa0 f   GuPCMContactSphereConvex.obj
 0001:00003ac0       ??__EmaxV3Error@_VecMathTests@aos@shdfnd@physx@@YAXXZ 10004ac0 f   GuPCMContactSphereConvex.obj
 0001:00003ad0       ??__EmaxV4Error@_VecMathTests@aos@shdfnd@physx@@YAXXZ 10004ad0 f   GuPCMContactSphereConvex.obj
 0001:00003af0       ??__EminFError@_VecMathTests@aos@shdfnd@physx@@YAXXZ 10004af0 f   GuPCMContactSphereConvex.obj
 0001:00003b10       ??__EminV3Error@_VecMathTests@aos@shdfnd@physx@@YAXXZ 10004b10 f   GuPCMContactSphereConvex.obj
 0001:00003b20       ??__EminV4Error@_VecMathTests@aos@shdfnd@physx@@YAXXZ 10004b20 f   GuPCMContactSphereConvex.obj
 0001:00003b40       ??__EmaxFError@_VecMathTests@aos@shdfnd@physx@@YAXXZ 10004b40 f   GuPCMContactSphereHeightField.obj
 0001:00003b60       ??__EmaxV3Error@_VecMathTests@aos@shdfnd@physx@@YAXXZ 10004b60 f   GuPCMContactSphereHeightField.obj
 0001:00003b70       ??__EmaxV4Error@_VecMathTests@aos@shdfnd@physx@@YAXXZ 10004b70 f   GuPCMContactSphereHeightField.obj
 0001:00003b90       ??__EminFError@_VecMathTests@aos@shdfnd@physx@@YAXXZ 10004b90 f   GuPCMContactSphereHeightField.obj
 0001:00003bb0       ??__EminV3Error@_VecMathTests@aos@shdfnd@physx@@YAXXZ 10004bb0 f   GuPCMContactSphereHeightField.obj
 0001:00003bc0       ??__EminV4Error@_VecMathTests@aos@shdfnd@physx@@YAXXZ 10004bc0 f   GuPCMContactSphereHeightField.obj
 0001:00003be0       ??__EmaxFError@_VecMathTests@aos@shdfnd@physx@@YAXXZ 10004be0 f   GuPCMContactSphereMesh.obj
 0001:00003c00       ??__EmaxV3Error@_VecMathTests@aos@shdfnd@physx@@YAXXZ 10004c00 f   GuPCMContactSphereMesh.obj
 0001:00003c10       ??__EmaxV4Error@_VecMathTests@aos@shdfnd@physx@@YAXXZ 10004c10 f   GuPCMContactSphereMesh.obj
 0001:00003c30       ??__EminFError@_VecMathTests@aos@shdfnd@physx@@YAXXZ 10004c30 f   GuPCMContactSphereMesh.obj
 0001:00003c50       ??__EminV3Error@_VecMathTests@aos@shdfnd@physx@@YAXXZ 10004c50 f   GuPCMContactSphereMesh.obj
 0001:00003c60       ??__EminV4Error@_VecMathTests@aos@shdfnd@physx@@YAXXZ 10004c60 f   GuPCMContactSphereMesh.obj
 0001:00003c80       ??__EmaxFError@_VecMathTests@aos@shdfnd@physx@@YAXXZ 10004c80 f   GuPCMContactSpherePlane.obj
 0001:00003ca0       ??__EmaxV3Error@_VecMathTests@aos@shdfnd@physx@@YAXXZ 10004ca0 f   GuPCMContactSpherePlane.obj
 0001:00003cb0       ??__EmaxV4Error@_VecMathTests@aos@shdfnd@physx@@YAXXZ 10004cb0 f   GuPCMContactSpherePlane.obj
 0001:00003cd0       ??__EminFError@_VecMathTests@aos@shdfnd@physx@@YAXXZ 10004cd0 f   GuPCMContactSpherePlane.obj
 0001:00003cf0       ??__EminV3Error@_VecMathTests@aos@shdfnd@physx@@YAXXZ 10004cf0 f   GuPCMContactSpherePlane.obj
 0001:00003d00       ??__EminV4Error@_VecMathTests@aos@shdfnd@physx@@YAXXZ 10004d00 f   GuPCMContactSpherePlane.obj
 0001:00003d20       ??__EmaxFError@_VecMathTests@aos@shdfnd@physx@@YAXXZ 10004d20 f   GuPCMContactSphereSphere.obj
 0001:00003d40       ??__EmaxV3Error@_VecMathTests@aos@shdfnd@physx@@YAXXZ 10004d40 f   GuPCMContactSphereSphere.obj
 0001:00003d50       ??__EmaxV4Error@_VecMathTests@aos@shdfnd@physx@@YAXXZ 10004d50 f   GuPCMContactSphereSphere.obj
 0001:00003d70       ??__EminFError@_VecMathTests@aos@shdfnd@physx@@YAXXZ 10004d70 f   GuPCMContactSphereSphere.obj
 0001:00003d90       ??__EminV3Error@_VecMathTests@aos@shdfnd@physx@@YAXXZ 10004d90 f   GuPCMContactSphereSphere.obj
 0001:00003da0       ??__EminV4Error@_VecMathTests@aos@shdfnd@physx@@YAXXZ 10004da0 f   GuPCMContactSphereSphere.obj
 0001:00003dc0       ??__EmaxFError@_VecMathTests@aos@shdfnd@physx@@YAXXZ 10004dc0 f   GuPCMShapeConvex.obj
 0001:00003de0       ??__EmaxV3Error@_VecMathTests@aos@shdfnd@physx@@YAXXZ 10004de0 f   GuPCMShapeConvex.obj
 0001:00003df0       ??__EmaxV4Error@_VecMathTests@aos@shdfnd@physx@@YAXXZ 10004df0 f   GuPCMShapeConvex.obj
 0001:00003e10       ??__EminFError@_VecMathTests@aos@shdfnd@physx@@YAXXZ 10004e10 f   GuPCMShapeConvex.obj
 0001:00003e30       ??__EminV3Error@_VecMathTests@aos@shdfnd@physx@@YAXXZ 10004e30 f   GuPCMShapeConvex.obj
 0001:00003e40       ??__EminV4Error@_VecMathTests@aos@shdfnd@physx@@YAXXZ 10004e40 f   GuPCMShapeConvex.obj
 0001:00003e60       ??__EmaxFError@_VecMathTests@aos@shdfnd@physx@@YAXXZ 10004e60 f   GuPCMTriangleContactGen.obj
 0001:00003e80       ??__EmaxV3Error@_VecMathTests@aos@shdfnd@physx@@YAXXZ 10004e80 f   GuPCMTriangleContactGen.obj
 0001:00003e90       ??__EmaxV4Error@_VecMathTests@aos@shdfnd@physx@@YAXXZ 10004e90 f   GuPCMTriangleContactGen.obj
 0001:00003eb0       ??__EminFError@_VecMathTests@aos@shdfnd@physx@@YAXXZ 10004eb0 f   GuPCMTriangleContactGen.obj
 0001:00003ed0       ??__EminV3Error@_VecMathTests@aos@shdfnd@physx@@YAXXZ 10004ed0 f   GuPCMTriangleContactGen.obj
 0001:00003ee0       ??__EminV4Error@_VecMathTests@aos@shdfnd@physx@@YAXXZ 10004ee0 f   GuPCMTriangleContactGen.obj
 0001:00003f00       ??__EmaxFError@_VecMathTests@aos@shdfnd@physx@@YAXXZ 10004f00 f   GuPersistentContactManifold.obj
 0001:00003f20       ??__EmaxV3Error@_VecMathTests@aos@shdfnd@physx@@YAXXZ 10004f20 f   GuPersistentContactManifold.obj
 0001:00003f30       ??__EmaxV4Error@_VecMathTests@aos@shdfnd@physx@@YAXXZ 10004f30 f   GuPersistentContactManifold.obj
 0001:00003f50       ??__EminFError@_VecMathTests@aos@shdfnd@physx@@YAXXZ 10004f50 f   GuPersistentContactManifold.obj
 0001:00003f70       ??__EminV3Error@_VecMathTests@aos@shdfnd@physx@@YAXXZ 10004f70 f   GuPersistentContactManifold.obj
 0001:00003f80       ??__EminV4Error@_VecMathTests@aos@shdfnd@physx@@YAXXZ 10004f80 f   GuPersistentContactManifold.obj
 0001:00003fa0       ??__EmaxFError@_VecMathTests@aos@shdfnd@physx@@YAXXZ 10004fa0 f   GuSweepBoxBox.obj
 0001:00003fc0       ??__EmaxV3Error@_VecMathTests@aos@shdfnd@physx@@YAXXZ 10004fc0 f   GuSweepBoxBox.obj
 0001:00003fd0       ??__EmaxV4Error@_VecMathTests@aos@shdfnd@physx@@YAXXZ 10004fd0 f   GuSweepBoxBox.obj
 0001:00004000       ??__EminFError@_VecMathTests@aos@shdfnd@physx@@YAXXZ 10005000 f   GuSweepBoxBox.obj
 0001:00004020       ??__EminV3Error@_VecMathTests@aos@shdfnd@physx@@YAXXZ 10005020 f   GuSweepBoxBox.obj
 0001:00004030       ??__EminV4Error@_VecMathTests@aos@shdfnd@physx@@YAXXZ 10005030 f   GuSweepBoxBox.obj
 0001:00004050       ??__EmaxFError@_VecMathTests@aos@shdfnd@physx@@YAXXZ 10005050 f   GuSweepBoxSphere.obj
 0001:00004070       ??__EmaxV3Error@_VecMathTests@aos@shdfnd@physx@@YAXXZ 10005070 f   GuSweepBoxSphere.obj
 0001:00004080       ??__EmaxV4Error@_VecMathTests@aos@shdfnd@physx@@YAXXZ 10005080 f   GuSweepBoxSphere.obj
 0001:000040a0       ??__EminFError@_VecMathTests@aos@shdfnd@physx@@YAXXZ 100050a0 f   GuSweepBoxSphere.obj
 0001:000040c0       ??__EminV3Error@_VecMathTests@aos@shdfnd@physx@@YAXXZ 100050c0 f   GuSweepBoxSphere.obj
 0001:000040d0       ??__EminV4Error@_VecMathTests@aos@shdfnd@physx@@YAXXZ 100050d0 f   GuSweepBoxSphere.obj
 0001:000040f0       ??__EmaxFError@_VecMathTests@aos@shdfnd@physx@@YAXXZ 100050f0 f   GuSweepBoxTriangle_FeatureBased.obj
 0001:00004110       ??__EmaxV3Error@_VecMathTests@aos@shdfnd@physx@@YAXXZ 10005110 f   GuSweepBoxTriangle_FeatureBased.obj
 0001:00004120       ??__EmaxV4Error@_VecMathTests@aos@shdfnd@physx@@YAXXZ 10005120 f   GuSweepBoxTriangle_FeatureBased.obj
 0001:00004140       ??__EminFError@_VecMathTests@aos@shdfnd@physx@@YAXXZ 10005140 f   GuSweepBoxTriangle_FeatureBased.obj
 0001:00004160       ??__EminV3Error@_VecMathTests@aos@shdfnd@physx@@YAXXZ 10005160 f   GuSweepBoxTriangle_FeatureBased.obj
 0001:00004170       ??__EminV4Error@_VecMathTests@aos@shdfnd@physx@@YAXXZ 10005170 f   GuSweepBoxTriangle_FeatureBased.obj
 0001:00004190       ??__EmaxFError@_VecMathTests@aos@shdfnd@physx@@YAXXZ 10005190 f   GuSweepBoxTriangle_SAT.obj
 0001:000041b0       ??__EmaxV3Error@_VecMathTests@aos@shdfnd@physx@@YAXXZ 100051b0 f   GuSweepBoxTriangle_SAT.obj
 0001:000041c0       ??__EmaxV4Error@_VecMathTests@aos@shdfnd@physx@@YAXXZ 100051c0 f   GuSweepBoxTriangle_SAT.obj
 0001:000041e0       ??__EminFError@_VecMathTests@aos@shdfnd@physx@@YAXXZ 100051e0 f   GuSweepBoxTriangle_SAT.obj
 0001:00004200       ??__EminV3Error@_VecMathTests@aos@shdfnd@physx@@YAXXZ 10005200 f   GuSweepBoxTriangle_SAT.obj
 0001:00004210       ??__EminV4Error@_VecMathTests@aos@shdfnd@physx@@YAXXZ 10005210 f   GuSweepBoxTriangle_SAT.obj
 0001:00004230       ??__EmaxFError@_VecMathTests@aos@shdfnd@physx@@YAXXZ 10005230 f   GuSweepCapsuleBox.obj
 0001:00004250       ??__EmaxV3Error@_VecMathTests@aos@shdfnd@physx@@YAXXZ 10005250 f   GuSweepCapsuleBox.obj
 0001:00004260       ??__EmaxV4Error@_VecMathTests@aos@shdfnd@physx@@YAXXZ 10005260 f   GuSweepCapsuleBox.obj
 0001:00004280       ??__EminFError@_VecMathTests@aos@shdfnd@physx@@YAXXZ 10005280 f   GuSweepCapsuleBox.obj
 0001:000042a0       ??__EminV3Error@_VecMathTests@aos@shdfnd@physx@@YAXXZ 100052a0 f   GuSweepCapsuleBox.obj
 0001:000042b0       ??__EminV4Error@_VecMathTests@aos@shdfnd@physx@@YAXXZ 100052b0 f   GuSweepCapsuleBox.obj
 0001:000042d0       ??__EmaxFError@_VecMathTests@aos@shdfnd@physx@@YAXXZ 100052d0 f   GuSweepCapsuleTriangle.obj
 0001:000042f0       ??__EmaxV3Error@_VecMathTests@aos@shdfnd@physx@@YAXXZ 100052f0 f   GuSweepCapsuleTriangle.obj
 0001:00004300       ??__EmaxV4Error@_VecMathTests@aos@shdfnd@physx@@YAXXZ 10005300 f   GuSweepCapsuleTriangle.obj
 0001:00004320       ??__EminFError@_VecMathTests@aos@shdfnd@physx@@YAXXZ 10005320 f   GuSweepCapsuleTriangle.obj
 0001:00004340       ??__EminV3Error@_VecMathTests@aos@shdfnd@physx@@YAXXZ 10005340 f   GuSweepCapsuleTriangle.obj
 0001:00004350       ??__EminV4Error@_VecMathTests@aos@shdfnd@physx@@YAXXZ 10005350 f   GuSweepCapsuleTriangle.obj
 0001:00004370       ??__EmaxFError@_VecMathTests@aos@shdfnd@physx@@YAXXZ 10005370 f   GuSweepSphereTriangle.obj
 0001:00004390       ??__EmaxV3Error@_VecMathTests@aos@shdfnd@physx@@YAXXZ 10005390 f   GuSweepSphereTriangle.obj
 0001:000043a0       ??__EmaxV4Error@_VecMathTests@aos@shdfnd@physx@@YAXXZ 100053a0 f   GuSweepSphereTriangle.obj
 0001:000043c0       ??__EminFError@_VecMathTests@aos@shdfnd@physx@@YAXXZ 100053c0 f   GuSweepSphereTriangle.obj
 0001:000043e0       ??__EminV3Error@_VecMathTests@aos@shdfnd@physx@@YAXXZ 100053e0 f   GuSweepSphereTriangle.obj
 0001:000043f0       ??__EminV4Error@_VecMathTests@aos@shdfnd@physx@@YAXXZ 100053f0 f   GuSweepSphereTriangle.obj
 0001:00004410       ??__EmaxFError@_VecMathTests@aos@shdfnd@physx@@YAXXZ 10005410 f   GuSweepTriangleUtils.obj
 0001:00004430       ??__EmaxV3Error@_VecMathTests@aos@shdfnd@physx@@YAXXZ 10005430 f   GuSweepTriangleUtils.obj
 0001:00004440       ??__EmaxV4Error@_VecMathTests@aos@shdfnd@physx@@YAXXZ 10005440 f   GuSweepTriangleUtils.obj
 0001:00004460       ??__EminFError@_VecMathTests@aos@shdfnd@physx@@YAXXZ 10005460 f   GuSweepTriangleUtils.obj
 0001:00004480       ??__EminV3Error@_VecMathTests@aos@shdfnd@physx@@YAXXZ 10005480 f   GuSweepTriangleUtils.obj
 0001:00004490       ??__EminV4Error@_VecMathTests@aos@shdfnd@physx@@YAXXZ 10005490 f   GuSweepTriangleUtils.obj
 0001:000077b0       $LN141                     100087b0     CmRenderOutput.obj
 0001:0000a7a8       $LN25                      1000b7a8     CmWindowsDelayLoadHook.obj
 0001:0000ae9c       $LN518                     1000be9c     GuBounds.obj
 0001:0000b024       $LN92                      1000c024     GuBounds.obj
 0001:0000b578       $LN363                     1000c578     GuBounds.obj
 0001:0000bde0       ?computeMeshBounds@@YAXABVPxTransform@physx@@PIBVCenterExtentsPadded@Gu@2@ABVPxMeshScale@2@AAVVec3p@42@3@Z 1000cde0 f   GuBounds.obj
 0001:0000bf40       ?computeMeshBounds@@YAXABVPxVec3@physx@@ABVPxMat33Padded@Gu@2@PIBVCenterExtentsPadded@42@ABVPxMeshScale@2@AAVVec3p@42@4@Z 1000cf40 f   GuBounds.obj
 0001:0000c850       ?computePlaneBounds@@YAXAAVPxBounds3@physx@@ABVPxTransform@2@MM@Z 1000d850 f   GuBounds.obj
 0001:0000cb00       ?computeScaledMatrix@@YAXAAVPxMat33Padded@Gu@physx@@ABVPxMeshScale@3@@Z 1000db00 f   GuBounds.obj
 0001:0000f490       ??_GLocalReport@?1??sweepBox_HeightFieldGeom_Precise@@YA_NABVPxGeometry@physx@@ABVPxTransform@3@ABVPxBoxGeometry@3@1ABVBox@Gu@3@ABVPxVec3@3@MAAUPxSweepHit@3@V?$PxFlags@W4Enum@PxHitFlag@physx@@G@3@M@Z@UAEPAXI@Z 10010490 f   GuCCTSweepTests.obj
 0001:00010040       ?onEvent@LocalReport@?1??sweepBox_HeightFieldGeom_Precise@@YA_NABVPxGeometry@physx@@ABVPxTransform@4@ABVPxBoxGeometry@4@1ABVBox@Gu@4@ABVPxVec3@4@MAAUPxSweepHit@4@V?$PxFlags@W4Enum@PxHitFlag@physx@@G@4@M@Z@UAE_NIPAI@Z 10011040 f   GuCCTSweepTests.obj
 0001:000103f0       ?sweepBoxVsTriangles@@YA_NIPBVPxTriangle@physx@@ABVBox@Gu@2@ABVPxVec3@2@MAAUPxSweepHit@2@V?$PxFlags@W4Enum@PxHitFlag@physx@@G@2@_NPBI@Z 100113f0 f   GuCCTSweepTests.obj
 0001:000115bc       $LN194                     100125bc     GuGeometryQuery.obj
 0001:00011ea0       $LN294                     10012ea0     GuGeometryQuery.obj
 0001:000121d4       $LN168                     100131d4     GuGeometryQuery.obj
 0001:00012390       $LN98                      10013390     GuGeometryUnion.obj
 0001:00014a40       ?loadMeshData@@YAPAVTriangleMeshData@Gu@physx@@AAVPxInputStream@3@@Z 10015a40 f   GuMeshFactory.obj
 0001:00019230       ?getBinaryMetaData@ShadowConvexMeshGeometry@?1??0GeometryUnion@Gu@physx@@SAXAAVPxOutputStream@4@@Z@SAX0@Z 1001a230 f   GuMetaData.obj
 0001:00019500       ?getBinaryMetaData@ShadowHeightFieldGeometry@?1??0GeometryUnion@Gu@physx@@SAXAAVPxOutputStream@4@@Z@SAX0@Z 1001a500 f   GuMetaData.obj
 0001:00019810       ?getBinaryMetaData@ShadowTriangleMeshGeometry@?1??0GeometryUnion@Gu@physx@@SAXAAVPxOutputStream@4@@Z@SAX0@Z 1001a810 f   GuMetaData.obj
 0001:00019b20       ?getBinaryMetaData_BVDataPackedQ@@YAXAAVPxOutputStream@physx@@@Z 1001ab20 f   GuMetaData.obj
 0001:00019e30       ?getBinaryMetaData_BigConvexRawData@@YAXAAVPxOutputStream@physx@@@Z 1001ae30 f   GuMetaData.obj
 0001:0001a0b0       ?getBinaryMetaData_ConvexHullData@@YAXAAVPxOutputStream@physx@@@Z 1001b0b0 f   GuMetaData.obj
 0001:0001a380       ?getBinaryMetaData_HeightFieldData@@YAXAAVPxOutputStream@physx@@@Z 1001b380 f   GuMetaData.obj
 0001:0001a780       ?getBinaryMetaData_RTreePage@@YAXAAVPxOutputStream@physx@@@Z 1001b780 f   GuMetaData.obj
 0001:0001bc40       ?GeomMTDCallback_NotSupported@@YA_NAAVPxVec3@physx@@AAMABVPxGeometry@2@ABVPxTransform@2@23@Z 1001cc40 f   GuMTD.obj
 0001:0001bc50       ?GeomMTDCallback_SphereSphere@@YA_NAAVPxVec3@physx@@AAMABVPxGeometry@2@ABVPxTransform@2@23@Z 1001cc50 f   GuMTD.obj
 0001:0001bd20       ?GeomMTDCallback_SpherePlane@@YA_NAAVPxVec3@physx@@AAMABVPxGeometry@2@ABVPxTransform@2@23@Z 1001cd20 f   GuMTD.obj
 0001:0001bde0       ?GeomMTDCallback_SphereCapsule@@YA_NAAVPxVec3@physx@@AAMABVPxGeometry@2@ABVPxTransform@2@23@Z 1001cde0 f   GuMTD.obj
 0001:0001bf00       ?GeomMTDCallback_SphereBox@@YA_NAAVPxVec3@physx@@AAMABVPxGeometry@2@ABVPxTransform@2@23@Z 1001cf00 f   GuMTD.obj
 0001:0001c020       ?GeomMTDCallback_SphereConvex@@YA_NAAVPxVec3@physx@@AAMABVPxGeometry@2@ABVPxTransform@2@23@Z 1001d020 f   GuMTD.obj
 0001:0001c080       ?GeomMTDCallback_SphereMesh@@YA_NAAVPxVec3@physx@@AAMABVPxGeometry@2@ABVPxTransform@2@23@Z 1001d080 f   GuMTD.obj
 0001:0001c1c0       ?GeomMTDCallback_PlaneCapsule@@YA_NAAVPxVec3@physx@@AAMABVPxGeometry@2@ABVPxTransform@2@23@Z 1001d1c0 f   GuMTD.obj
 0001:0001c380       ?GeomMTDCallback_PlaneBox@@YA_NAAVPxVec3@physx@@AAMABVPxGeometry@2@ABVPxTransform@2@23@Z 1001d380 f   GuMTD.obj
 0001:0001c670       ?GeomMTDCallback_PlaneConvex@@YA_NAAVPxVec3@physx@@AAMABVPxGeometry@2@ABVPxTransform@2@23@Z 1001d670 f   GuMTD.obj
 0001:0001c6a0       ?GeomMTDCallback_CapsuleCapsule@@YA_NAAVPxVec3@physx@@AAMABVPxGeometry@2@ABVPxTransform@2@23@Z 1001d6a0 f   GuMTD.obj
 0001:0001c860       ?GeomMTDCallback_CapsuleBox@@YA_NAAVPxVec3@physx@@AAMABVPxGeometry@2@ABVPxTransform@2@23@Z 1001d860 f   GuMTD.obj
 0001:0001ca10       ?GeomMTDCallback_CapsuleConvex@@YA_NAAVPxVec3@physx@@AAMABVPxGeometry@2@ABVPxTransform@2@23@Z 1001da10 f   GuMTD.obj
 0001:0001cb00       ?GeomMTDCallback_CapsuleMesh@@YA_NAAVPxVec3@physx@@AAMABVPxGeometry@2@ABVPxTransform@2@23@Z 1001db00 f   GuMTD.obj
 0001:0001cce0       ?GeomMTDCallback_BoxBox@@YA_NAAVPxVec3@physx@@AAMABVPxGeometry@2@ABVPxTransform@2@23@Z 1001dce0 f   GuMTD.obj
 0001:0001cea0       ?GeomMTDCallback_BoxConvex@@YA_NAAVPxVec3@physx@@AAMABVPxGeometry@2@ABVPxTransform@2@23@Z 1001dea0 f   GuMTD.obj
 0001:0001cf90       ?GeomMTDCallback_BoxMesh@@YA_NAAVPxVec3@physx@@AAMABVPxGeometry@2@ABVPxTransform@2@23@Z 1001df90 f   GuMTD.obj
 0001:0001d1b0       ?GeomMTDCallback_ConvexConvex@@YA_NAAVPxVec3@physx@@AAMABVPxGeometry@2@ABVPxTransform@2@23@Z 1001e1b0 f   GuMTD.obj
 0001:0001d1c0       ?GeomMTDCallback_ConvexMesh@@YA_NAAVPxVec3@physx@@AAMABVPxGeometry@2@ABVPxTransform@2@23@Z 1001e1c0 f   GuMTD.obj
 0001:0001d290       ?GeomMTDCallback_SphereHeightField@@YA_NAAVPxVec3@physx@@AAMABVPxGeometry@2@ABVPxTransform@2@23@Z 1001e290 f   GuMTD.obj
 0001:0001d3d0       ?GeomMTDCallback_CapsuleHeightField@@YA_NAAVPxVec3@physx@@AAMABVPxGeometry@2@ABVPxTransform@2@23@Z 1001e3d0 f   GuMTD.obj
 0001:0001d5b0       ?GeomMTDCallback_BoxHeightField@@YA_NAAVPxVec3@physx@@AAMABVPxGeometry@2@ABVPxTransform@2@23@Z 1001e5b0 f   GuMTD.obj
 0001:0001d7d0       ?GeomMTDCallback_ConvexHeightField@@YA_NAAVPxVec3@physx@@AAMABVPxGeometry@2@ABVPxTransform@2@23@Z 1001e7d0 f   GuMTD.obj
 0001:0001e804       $LN706                     1001f804     GuMTD.obj
 0001:0001f120       ?PxcCapsuleOBBOverlap3@@YA_NABVSegment@Gu@physx@@MABVBox@23@PAMPAVPxVec3@3@@Z 10020120 f   GuMTD.obj
 0001:0001f770       ?computeMTD_BoxBox@@YA_NAAVPxVec3@physx@@AAMABVBox@Gu@2@2@Z 10020770 f   GuMTD.obj
 0001:00020570       ?computeMTD_BoxConvex@@YA_NAAVPxVec3@physx@@AAMABVBox@Gu@2@ABVPxConvexMeshGeometry@2@ABVPxTransform@2@@Z 10021570 f   GuMTD.obj
 0001:00020de0       ?computeMTD_CapsuleBox@@YA_NAAVPxVec3@physx@@AAMABVCapsule@Gu@2@ABVBox@42@@Z 10021de0 f   GuMTD.obj
 0001:00020fe0       ?computeMTD_CapsuleCapsule@@YA_NAAVPxVec3@physx@@AAMABVCapsule@Gu@2@2@Z 10021fe0 f   GuMTD.obj
 0001:000211d0       ?computeMTD_CapsuleConvex@@YA_NAAVPxVec3@physx@@AAMABVCapsule@Gu@2@ABVPxTransform@2@ABVPxConvexMeshGeometry@2@3@Z 100221d0 f   GuMTD.obj
 0001:00021b30       ?computeMTD_ConvexConvex@@YA_NAAVPxVec3@physx@@AAMABVPxConvexMeshGeometry@2@ABVPxTransform@2@23@Z 10022b30 f   GuMTD.obj
 0001:00022740       ?computeMTD_PlaneConvex@@YA_NAAVPxVec3@physx@@AAMABVPxPlane@2@ABVPxConvexMeshGeometry@2@ABVPxTransform@2@@Z 10023740 f   GuMTD.obj
 0001:00022a30       ?computeMTD_SphereBox@@YA_NAAVPxVec3@physx@@AAMABVSphere@Gu@2@ABVBox@42@@Z 10023a30 f   GuMTD.obj
 0001:00022ff0       ?computeMTD_SphereCapsule@@YA_NAAVPxVec3@physx@@AAMABVSphere@Gu@2@ABVCapsule@42@@Z 10023ff0 f   GuMTD.obj
 0001:00023200       ?computeMTD_SphereConvex@@YA_NAAVPxVec3@physx@@AAMABVSphere@Gu@2@ABVPxConvexMeshGeometry@2@ABVPxTransform@2@@Z 10024200 f   GuMTD.obj
 0001:00023b40       ?processContacts@@YA_NAAVPxVec3@physx@@AAMIPBUContactPoint@Gu@2@@Z 10024b40 f   GuMTD.obj
 0001:00024740       ?GeomOverlapCallback_SphereSphere@@YA_NABVPxGeometry@physx@@ABVPxTransform@2@01PAUTriggerCache@Gu@2@@Z 10025740 f   GuOverlapTests.obj
 0001:000247a0       ?GeomOverlapCallback_SpherePlane@@YA_NABVPxGeometry@physx@@ABVPxTransform@2@01PAUTriggerCache@Gu@2@@Z 100257a0 f   GuOverlapTests.obj
 0001:00024800       ?GeomOverlapCallback_SphereCapsule@@YA_NABVPxGeometry@physx@@ABVPxTransform@2@01PAUTriggerCache@Gu@2@@Z 10025800 f   GuOverlapTests.obj
 0001:000249a0       ?GeomOverlapCallback_SphereBox@@YA_NABVPxGeometry@physx@@ABVPxTransform@2@01PAUTriggerCache@Gu@2@@Z 100259a0 f   GuOverlapTests.obj
 0001:00024ab0       ?GeomOverlapCallback_SphereConvex@@YA_NABVPxGeometry@physx@@ABVPxTransform@2@01PAUTriggerCache@Gu@2@@Z 10025ab0 f   GuOverlapTests.obj
 0001:00024b70       ?GeomOverlapCallback_PlaneCapsule@@YA_NABVPxGeometry@physx@@ABVPxTransform@2@01PAUTriggerCache@Gu@2@@Z 10025b70 f   GuOverlapTests.obj
 0001:00024ce0       ?GeomOverlapCallback_PlaneBox@@YA_NABVPxGeometry@physx@@ABVPxTransform@2@01PAUTriggerCache@Gu@2@@Z 10025ce0 f   GuOverlapTests.obj
 0001:00024f70       ?GeomOverlapCallback_PlaneConvex@@YA_NABVPxGeometry@physx@@ABVPxTransform@2@01PAUTriggerCache@Gu@2@@Z 10025f70 f   GuOverlapTests.obj
 0001:000258d0       ?GeomOverlapCallback_CapsuleCapsule@@YA_NABVPxGeometry@physx@@ABVPxTransform@2@01PAUTriggerCache@Gu@2@@Z 100268d0 f   GuOverlapTests.obj
 0001:00025ac0       ?GeomOverlapCallback_CapsuleBox@@YA_NABVPxGeometry@physx@@ABVPxTransform@2@01PAUTriggerCache@Gu@2@@Z 10026ac0 f   GuOverlapTests.obj
 0001:00025d50       ?GeomOverlapCallback_CapsuleConvex@@YA_NABVPxGeometry@physx@@ABVPxTransform@2@01PAUTriggerCache@Gu@2@@Z 10026d50 f   GuOverlapTests.obj
 0001:00025e10       ?GeomOverlapCallback_BoxBox@@YA_NABVPxGeometry@physx@@ABVPxTransform@2@01PAUTriggerCache@Gu@2@@Z 10026e10 f   GuOverlapTests.obj
 0001:00025f40       ?GeomOverlapCallback_BoxConvex@@YA_NABVPxGeometry@physx@@ABVPxTransform@2@01PAUTriggerCache@Gu@2@@Z 10026f40 f   GuOverlapTests.obj
 0001:00026000       ?GeomOverlapCallback_ConvexConvex@@YA_NABVPxGeometry@physx@@ABVPxTransform@2@01PAUTriggerCache@Gu@2@@Z 10027000 f   GuOverlapTests.obj
 0001:00026ce0       ?GeomOverlapCallback_NotSupported@@YA_NABVPxGeometry@physx@@ABVPxTransform@2@01PAUTriggerCache@Gu@2@@Z 10027ce0 f   GuOverlapTests.obj
 0001:00026cf0       ?GeomOverlapCallback_HeightfieldUnregistered@@YA_NABVPxGeometry@physx@@ABVPxTransform@2@01PAUTriggerCache@Gu@2@@Z 10027cf0 f   GuOverlapTests.obj
 0001:00027fd8       $LN750                     10028fd8     GuOverlapTests.obj
 0001:000290cc       $LN782                     1002a0cc     GuOverlapTests.obj
 0001:00029220       ?intersectBoxConvex@@YA_NABVPxBoxGeometry@physx@@ABVPxTransform@2@ABVConvexMesh@Gu@2@ABVPxMeshScale@2@1PAVPxVec3@2@@Z 1002a220 f   GuOverlapTests.obj
 0001:00029c50       ?intersectCapsuleConvex@@YA_NABVPxCapsuleGeometry@physx@@ABVPxTransform@2@ABVConvexMesh@Gu@2@ABVPxMeshScale@2@1PAVPxVec3@2@@Z 1002ac50 f   GuOverlapTests.obj
 0001:0002a5f0       ?intersectSphereConvex@@YA_NABVPxTransform@physx@@MABVConvexMesh@Gu@2@ABVPxMeshScale@2@0PAVPxVec3@2@@Z 1002b5f0 f   GuOverlapTests.obj
 0001:0002ad30       ?projectHull_@@YA?AVPxVec3@physx@@ABUConvexHullData@Gu@2@AAM1ABV12@ABVPxMat33@2@@Z 1002bd30 f   GuOverlapTests.obj
 0001:0002d360       ?raycast_heightField_unregistered@@YAIABVPxGeometry@physx@@ABVPxTransform@2@ABVPxVec3@2@2MV?$PxFlags@W4Enum@PxHitFlag@physx@@G@2@IPIAUPxRaycastHit@2@@Z 1002e360 f   GuRaycastTests.obj
 0001:0002d3a0       ??$traceSegment@UHFTraceSegmentCallback@?A0x46cb3c25@@$0A@$0A@@HeightFieldTraceUtil@Gu@physx@@QBEXABVPxVec3@2@0MPAUHFTraceSegmentCallback@?A0x46cb3c25@@ABVPxBounds3@2@_NPBV32@@Z 1002e3a0 f   GuRaycastTests.obj
 0001:0002f270       ?faceHit@HFTraceSegmentCallback@?A0x46cb3c25@@QAE_NABVHeightFieldUtil@Gu@physx@@ABVPxVec3@5@IMM@Z 10030270 f   GuRaycastTests.obj
 0001:00036cf0       ?calculateMTD@@YA_NABUPolygonalData@Gu@physx@@PAVSupportLocal@23@AAVPsTransformV@aos@shdfnd@3@ABVPsMatTransformV@673@_NABT__m128@@PBUMTDTriangle@@IIPAVMeshPersistentContact@23@AAIAAT9@9989@Z 10037cf0 f   GuSweepMTD.obj
 0001:00036e30       ?calculateMTD@@YA_NABVCapsuleV@Gu@physx@@ABT__m128@@_NPBUMTDTriangle@@IIPAVMeshPersistentContact@23@AAIAAT4@6656@Z 10037e30 f   GuSweepMTD.obj
 0001:00037240       ?getMTDPerTriangle@@YA_NPBVMeshPersistentContact@Gu@physx@@IIAAT__m128@@11AAI1@Z 10038240 f   GuSweepMTD.obj
 0001:0003ddf4       $LN1102                    1003edf4     GuSweepSharedTests.obj
 0001:0003de04       $LN1103                    1003ee04     GuSweepSharedTests.obj
 0001:0003f778       $LN1165                    10040778     GuSweepSharedTests.obj
 0001:0003f788       $LN1166                    10040788     GuSweepSharedTests.obj
 0001:00041104       $LN1216                    10042104     GuSweepSharedTests.obj
 0001:00041114       $LN1217                    10042114     GuSweepSharedTests.obj
 0001:00041fb4       $LN709                     10042fb4     GuSweepSharedTests.obj
 0001:00042e64       $LN739                     10043e64     GuSweepSharedTests.obj
 0001:00043d80       $LN771                     10044d80     GuSweepSharedTests.obj
 0001:000444b0       ?computeSweepConvexPlane@@YAIABVPxConvexMeshGeometry@physx@@PAUConvexHullData@Gu@2@ABIABVPxTransform@2@ABVPxVec3@2@4@Z 100454b0 f   GuSweepSharedTests.obj
 0001:00047470       ?sweepCapsule_HeightfieldUnregistered@@YA_NABVPxGeometry@physx@@ABVPxTransform@2@ABVPxCapsuleGeometry@2@1ABVCapsule@Gu@2@ABVPxVec3@2@MAAUPxSweepHit@2@V?$PxFlags@W4Enum@PxHitFlag@physx@@G@2@M@Z 10048470 f   GuSweepTests.obj
 0001:000474a0       ?sweepBox_HeightfieldUnregistered@@YA_NABVPxGeometry@physx@@ABVPxTransform@2@ABVPxBoxGeometry@2@1ABVBox@Gu@2@ABVPxVec3@2@MAAUPxSweepHit@2@V?$PxFlags@W4Enum@PxHitFlag@physx@@G@2@M@Z 100484a0 f   GuSweepTests.obj
 0001:000474d0       ?sweepConvex_HeightfieldUnregistered@@YA_NABVPxGeometry@physx@@ABVPxTransform@2@ABVPxConvexMeshGeometry@2@1ABVPxVec3@2@MAAUPxSweepHit@2@V?$PxFlags@W4Enum@PxHitFlag@physx@@G@2@M@Z 100484d0 f   GuSweepTests.obj
 0001:00048d64       $LN1053                    10049d64     GuSweepTests.obj
 0001:00048d74       $LN1054                    10049d74     GuSweepTests.obj
 0001:0004a684       $LN1070                    1004b684     GuSweepTests.obj
 0001:0004a694       $LN1071                    1004b694     GuSweepTests.obj
 0001:0004bf54       $LN1114                    1004cf54     GuSweepTests.obj
 0001:0004bf64       $LN1115                    1004cf64     GuSweepTests.obj
 0001:0004cce0       $LN655                     1004dce0     GuSweepTests.obj
 0001:0004dab8       $LN657                     1004eab8     GuSweepTests.obj
 0001:0004e8a8       $LN686                     1004f8a8     GuSweepTests.obj
 0001:00055290       ??1EntityReportContainerCallback@?A0xeeca81bd@Gu@physx@@UAE@XZ 10056290 f   GuCCDSweepConvexMesh.obj
 0001:000552a0       ??_GAccumCallback@?A0xeeca81bd@Gu@physx@@UAEPAXI@Z 100562a0 f   GuCCDSweepConvexMesh.obj
 0001:000552d0       ??_GCB@?1??SweepEstimateAnyShapeMesh@Gu@physx@@YAMABUCCDShape@23@0ABVPxTransform@3@111MM@Z@UAEPAXI@Z 100562d0 f   GuCCDSweepConvexMesh.obj
 0001:00055300       ??_GEntityReportContainerCallback@?A0xeeca81bd@Gu@physx@@UAEPAXI@Z 10056300 f   GuCCDSweepConvexMesh.obj
 0001:000553c0       ?calcCenterAndBounds@ConvexTriangles@?A0xeeca81bd@Gu@physx@@ABEXABVPxTransform@4@@Z 100563c0 f   GuCCDSweepConvexMesh.obj
 0001:00055b80       ?getPolygonNormal@ConvexTriangles@?A0xeeca81bd@Gu@physx@@QBE?AVPxVec3@4@I@Z 10056b80 f   GuCCDSweepConvexMesh.obj
 0001:00055fb0       ?onEvent@EntityReportContainerCallback@?A0xeeca81bd@Gu@physx@@UAE_NIPAI@Z 10056fb0 f   GuCCDSweepConvexMesh.obj
 0001:00056020       ?processHit@AccumCallback@?A0xeeca81bd@Gu@physx@@UAE_NABUPxRaycastHit@4@ABVPxVec3@4@11AAMPBI@Z 10057020 f   GuCCDSweepConvexMesh.obj
 0001:00056070       ?processHit@CB@?1??SweepEstimateAnyShapeMesh@Gu@physx@@YAMABUCCDShape@34@0ABVPxTransform@4@111MM@Z@UAE_NABUPxRaycastHit@4@ABVPxVec3@4@33AAMPBI@Z 10057070 f   GuCCDSweepConvexMesh.obj
 0001:00059250       ??$CCDSweep@VBoxV@Gu@physx@@V123@@Gu@physx@@YAMAAVBoxV@01@0ABVPxTransform@1@111ABT__m128@@AAVPxVec3@1@3M@Z 1005a250 f   GuCCDSweepPrimitives.obj
 0001:00059730       ??$CCDSweep@VBoxV@Gu@physx@@VConvexHullV@23@@Gu@physx@@YAMAAVBoxV@01@AAVConvexHullV@01@ABVPxTransform@1@222ABT__m128@@AAVPxVec3@1@4M@Z 1005a730 f   GuCCDSweepPrimitives.obj
 0001:00059c10       ??$CCDSweep@VCapsuleV@Gu@physx@@V123@@Gu@physx@@YAMAAVCapsuleV@01@0ABVPxTransform@1@111ABT__m128@@AAVPxVec3@1@3M@Z 1005ac10 f   GuCCDSweepPrimitives.obj
 0001:0005a0f0       ??$CCDSweep@VCapsuleV@Gu@physx@@VBoxV@23@@Gu@physx@@YAMAAVCapsuleV@01@AAVBoxV@01@ABVPxTransform@1@222ABT__m128@@AAVPxVec3@1@4M@Z 1005b0f0 f   GuCCDSweepPrimitives.obj
 0001:0005a5d0       ??$CCDSweep@VCapsuleV@Gu@physx@@VConvexHullV@23@@Gu@physx@@YAMAAVCapsuleV@01@AAVConvexHullV@01@ABVPxTransform@1@222ABT__m128@@AAVPxVec3@1@4M@Z 1005b5d0 f   GuCCDSweepPrimitives.obj
 0001:0005aab0       ??$CCDSweep@VConvexHullV@Gu@physx@@V123@@Gu@physx@@YAMAAVConvexHullV@01@0ABVPxTransform@1@111ABT__m128@@AAVPxVec3@1@3M@Z 1005bab0 f   GuCCDSweepPrimitives.obj
 0001:0005af90       ??$CCDSweep@VTriangleV@Gu@physx@@VBoxV@23@@Gu@physx@@YAMAAVTriangleV@01@AAVBoxV@01@ABVPxTransform@1@222ABT__m128@@AAVPxVec3@1@4M@Z 1005bf90 f   GuCCDSweepPrimitives.obj
 0001:0005b470       ??$CCDSweep@VTriangleV@Gu@physx@@VCapsuleV@23@@Gu@physx@@YAMAAVTriangleV@01@AAVCapsuleV@01@ABVPxTransform@1@222ABT__m128@@AAVPxVec3@1@4M@Z 1005c470 f   GuCCDSweepPrimitives.obj
 0001:0005b950       ??$CCDSweep@VTriangleV@Gu@physx@@VConvexHullV@23@@Gu@physx@@YAMAAVTriangleV@01@AAVConvexHullV@01@ABVPxTransform@1@222ABT__m128@@AAVPxVec3@1@4M@Z 1005c950 f   GuCCDSweepPrimitives.obj
 0001:0005d6c4       $LN1121                    1005e6c4     GuCCDSweepPrimitives.obj
 0001:0005d6d4       $LN1122                    1005e6d4     GuCCDSweepPrimitives.obj
 0001:0005efd8       $LN1123                    1005ffd8     GuCCDSweepPrimitives.obj
 0001:0005efe8       $LN1124                    1005ffe8     GuCCDSweepPrimitives.obj
 0001:000609d4       $LN1168                    100619d4     GuCCDSweepPrimitives.obj
 0001:000609e4       $LN1169                    100619e4     GuCCDSweepPrimitives.obj
 0001:00062364       $LN1136                    10063364     GuCCDSweepPrimitives.obj
 0001:00062374       $LN1137                    10063374     GuCCDSweepPrimitives.obj
 0001:00063d34       $LN1138                    10064d34     GuCCDSweepPrimitives.obj
 0001:00063d44       $LN1139                    10064d44     GuCCDSweepPrimitives.obj
 0001:000657a4       $LN1184                    100667a4     GuCCDSweepPrimitives.obj
 0001:000657b4       $LN1185                    100667b4     GuCCDSweepPrimitives.obj
 0001:000665d4       $LN687                     100675d4     GuCCDSweepPrimitives.obj
 0001:0006747c       $LN687                     1006847c     GuCCDSweepPrimitives.obj
 0001:00068374       $LN739                     10069374     GuCCDSweepPrimitives.obj
 0001:000691a4       $LN701                     1006a1a4     GuCCDSweepPrimitives.obj
 0001:0006a084       $LN701                     1006b084     GuCCDSweepPrimitives.obj
 0001:0006afb8       $LN751                     1006bfb8     GuCCDSweepPrimitives.obj
 0001:0006c3c0       ?doBoxBoxContactGeneration@@YAHAAVContactBuffer@Gu@physx@@ABVPxVec3@3@1AAIABVMatrix34@Cm@3@3M@Z 1006d3c0 f   GuContactBoxBox.obj
 0001:0006da08       $LN543                     1006ea08     GuContactBoxBox.obj
 0001:0006da20       ?generateContacts@@YAHAAVContactBuffer@Gu@physx@@ABVPxVec3@3@MM1ABVMatrix34@Cm@3@2M@Z 1006ea20 f   GuContactBoxBox.obj
 0001:0006f7d0       ?GuCapsuleOBBOverlap3@@YA_NABVSegment@Gu@physx@@MABVBox@23@PAMPAVPxVec3@3@@Z 100707d0 f   GuContactCapsuleBox.obj
 0001:0006fda0       ?GuGenerateEEContacts2@@YAXAAVContactBuffer@Gu@physx@@ABVSegment@23@MABVBox@23@ABVPxVec3@3@M@Z 10070da0 f   GuContactCapsuleBox.obj
 0001:000703b0       ?GuGenerateEEContacts@@YAXAAVContactBuffer@Gu@physx@@ABVSegment@23@MABVBox@23@ABVPxVec3@3@@Z 100713b0 f   GuContactCapsuleBox.obj
 0001:000709b0       ?GuGenerateVFContacts@@YAXAAVContactBuffer@Gu@physx@@ABVSegment@23@MABVBox@23@ABVPxVec3@3@M@Z 100719b0 f   GuContactCapsuleBox.obj
 0001:00072940       ?GuCapsuleConvexOverlap@@YA_NABVSegment@Gu@physx@@MABUPolygonalData@23@ABVFastVertex2ShapeScaling@Cm@3@ABVPxTransform@3@PAMPAVPxVec3@3@_N@Z 10073940 f   GuContactCapsuleConvex.obj
 0001:000731d0       ?GuGenerateEEContacts2b@@YAXAAVContactBuffer@Gu@physx@@ABVSegment@23@MABVMatrix34@Cm@3@ABUPolygonalData@23@ABVFastVertex2ShapeScaling@63@ABVPxVec3@3@M@Z 100741d0 f   GuContactCapsuleConvex.obj
 0001:00073ab0       ?GuGenerateEEContacts@@YAXAAVContactBuffer@Gu@physx@@ABVSegment@23@MMABUPolygonalData@23@ABVPxTransform@3@ABVFastVertex2ShapeScaling@Cm@3@ABVPxVec3@3@@Z 10074ab0 f   GuContactCapsuleConvex.obj
 0001:00074500       ?GuGenerateVFContacts2@@YAXAAVContactBuffer@Gu@physx@@ABVPxTransform@3@ABUPolygonalData@23@ABVPxMeshScale@3@IPIBVPxVec3@3@MABV73@M@Z 10075500 f   GuContactCapsuleConvex.obj
 0001:00075800       ??0CapsuleMeshContactGeneration@?A0xc1f9f224@@QAE@AAVContactBuffer@Gu@physx@@ABVPxTransform@4@ABVSegment@34@MMM@Z 10076800 f   GuContactCapsuleMesh.obj
 0001:00075a20       ??_GCapsuleHeightfieldContactGenerationCallback@?A0xc1f9f224@@UAEPAXI@Z 10076a20 f   GuContactCapsuleMesh.obj
 0001:00075a50       ??_GCapsuleMeshContactGenerationCallback_NoScale@?A0xc1f9f224@@UAEPAXI@Z 10076a50 f   GuContactCapsuleMesh.obj
 0001:00075a80       ??_GCapsuleMeshContactGenerationCallback_Scale@?A0xc1f9f224@@UAEPAXI@Z 10076a80 f   GuContactCapsuleMesh.obj
 0001:00075ab0       ?PxcCapsuleTriOverlap3@@YA_NEABVSegment@Gu@physx@@MPIBVPxVec3@3@PIAMPIAV43@@Z 10076ab0 f   GuContactCapsuleMesh.obj
 0001:000760c0       ?PxcGenerateEEContacts2@@YAXABVMatrix34@Cm@physx@@AAVContactBuffer@Gu@3@ABVSegment@53@MPIBVPxVec3@3@ABV73@IM@Z 100770c0 f   GuContactCapsuleMesh.obj
 0001:000763c0       ?PxcGenerateEEContacts@@YAXABVMatrix34@Cm@physx@@AAVContactBuffer@Gu@3@ABVSegment@53@MPIBVPxVec3@3@ABV73@I@Z 100773c0 f   GuContactCapsuleMesh.obj
 0001:000766e0       ?PxcGenerateVFContacts@@YAXABVMatrix34@Cm@physx@@AAVContactBuffer@Gu@3@ABVSegment@53@MPIBVPxVec3@3@ABV73@IM@Z 100776e0 f   GuContactCapsuleMesh.obj
 0001:00076bc0       ?onEvent@CapsuleHeightfieldContactGenerationCallback@?A0xc1f9f224@@UAE_NIPAI@Z 10077bc0 f   GuContactCapsuleMesh.obj
 0001:00076f00       ?processHit@CapsuleMeshContactGenerationCallback_NoScale@?A0xc1f9f224@@UAE_NABUPxRaycastHit@physx@@ABVPxVec3@4@11AAMPBI@Z 10077f00 f   GuContactCapsuleMesh.obj
 0001:00076fb0       ?processHit@CapsuleMeshContactGenerationCallback_Scale@?A0xc1f9f224@@UAE_NABUPxRaycastHit@physx@@ABVPxVec3@4@11AAMPBI@Z 10077fb0 f   GuContactCapsuleMesh.obj
 0001:000771c0       ?processTriangle@CapsuleMeshContactGeneration@?A0xc1f9f224@@QAEXIABVTrianglePadded@Gu@physx@@E@Z 100781c0 f   GuContactCapsuleMesh.obj
 0001:00077e80       ?GuBruteForceOverlapBackfaceRoughPass@@YA_NABUPolygonalData@Gu@physx@@0ABVMatrix34@Cm@3@1ABVFastVertex2ShapeScaling@53@211ABVPxVec3@3@AAI4AAMAAV73@AAW4PxcSepAxisType@23@MM@Z 10078e80 f   GuContactConvexConvex.obj
 0001:00078110       ?GuContactHullHull@@YA_NABUPolygonalData@Gu@physx@@0ABVPxBounds3@3@1ABVPxTransform@3@2ABUNarrowPhaseParams@23@AAVContactBuffer@23@ABVFastVertex2ShapeScaling@Cm@3@5_N6@Z 10079110 f   GuContactConvexConvex.obj
 0001:0007a010       ?GuTestFacesSepAxesBackfaceRoughPass@@YA_NABUPolygonalData@Gu@physx@@0ABVMatrix34@Cm@3@1ABVFastVertex2ShapeScaling@53@21ABVPxVec3@3@3AAMAAV73@AAIMM3@Z 1007b010 f   GuContactConvexConvex.obj
 0001:0007a6f0       ?PxcBruteForceOverlapBackface@@YA_NABVPxBounds3@physx@@0ABUPolygonalData@Gu@2@1ABVMatrix34@Cm@2@2ABVFastVertex2ShapeScaling@62@322ABVPxVec3@2@AAI5AAMAAV82@AAW4PxcSepAxisType@42@MM@Z 1007b6f0 f   GuContactConvexConvex.obj
 0001:0007af00       ?PxcFindSeparatingAxes@@YAXAAVSeparatingAxes@Gu@physx@@PIBIIABUPolygonalData@23@ABVMatrix34@Cm@3@ABVPxPlane@3@3ABVPxBounds3@3@MABVFastVertex2ShapeScaling@63@@Z 1007bf00 f   GuContactConvexConvex.obj
 0001:0007b2e0       ?PxcSegmentAABBIntersect@@YA_NABVPxVec3@physx@@000ABVMatrix34@Cm@2@@Z 1007c2e0 f   GuContactConvexConvex.obj
 0001:0007b620       ?PxcTestFacesSepAxesBackface@@YA_NABUPolygonalData@Gu@physx@@0ABVMatrix34@Cm@3@1ABVFastVertex2ShapeScaling@53@21ABVPxVec3@3@AAMAAV73@AAIPIAI6MM3@Z 1007c620 f   GuContactConvexConvex.obj
 0001:0007bd40       ?prepareData@@YAXAAVPxPlane@physx@@0AAVPxBounds3@2@1ABV32@2ABV12@3ABVFastVertex2ShapeScaling@Cm@2@4ABVMatrix34@52@5M@Z 1007cd40 f   GuContactConvexConvex.obj
 0001:0007c5f0       ??0ConvexMeshContactGeneration@?A0xf00f4180@@QAE@AAV?$InlineArray@I$0EEA@V?$ReflectionAllocator@I@shdfnd@physx@@@shdfnd@physx@@ABVPxTransform@4@1ABUPolygonalData@Gu@4@ABVMatrix34@Cm@4@3ABVFastVertex2ShapeScaling@94@MM_NM11AAVContactBuffer@74@@Z 1007d5f0 f   GuContactConvexMesh.obj
 0001:0007cba0       ??_GConvexVsHeightfieldContactGenerationCallback@?A0xf00f4180@@UAEPAXI@Z 1007dba0 f   GuContactConvexMesh.obj
 0001:0007cde0       ?computeFeatureCode@@YA?AW4FeatureCode@@ABVPxVec3@physx@@PBV23@@Z 1007dde0 f   GuContactConvexMesh.obj
 0001:0007d120       ?contactHullHeightfield2@@YA_NABUPolygonalData@Gu@physx@@ABVPxBounds3@3@ABVPxHeightFieldGeometry@3@ABVPxTransform@3@3ABUNarrowPhaseParams@23@AAVContactBuffer@23@ABVFastVertex2ShapeScaling@Cm@3@_N@Z 1007e120 f   GuContactConvexMesh.obj
 0001:0007db40       ?contactHullMesh2@@YA_NABUPolygonalData@Gu@physx@@ABVPxBounds3@3@ABUPxTriangleMeshGeometryLL@3@ABVPxTransform@3@3ABUNarrowPhaseParams@23@AAVContactBuffer@23@ABVFastVertex2ShapeScaling@Cm@3@6_N7@Z 1007eb40 f   GuContactConvexMesh.obj
 0001:0007e640       ?generateContacts@ConvexMeshContactGeneration@?A0xf00f4180@@QBE_NABVPxPlane@physx@@PIBVPxVec3@4@ABV54@AAV54@MI@Z 1007f640 f   GuContactConvexMesh.obj
 0001:0007f4a0       ?generateLastContacts@ConvexMeshContactGeneration@?A0xf00f4180@@QAEXXZ 100804a0 f   GuContactConvexMesh.obj
 0001:0007f770       $LN111                     10080770     GuContactConvexMesh.obj
 0001:0007f790       ?onEvent@ConvexVsHeightfieldContactGenerationCallback@?A0xf00f4180@@UAE_NIPAI@Z 10080790 f   GuContactConvexMesh.obj
 0001:0007fae0       ?performEETests@@YA_NABUPolygonalData@Gu@physx@@EABVMatrix34@Cm@3@1PIBVPxVec3@3@IPIBIABVPxPlane@3@ABVFastVertex2ShapeScaling@53@AAV63@AAMMMII@Z 10080ae0 f   GuContactConvexMesh.obj
 0001:00080c40       ?processTriangle@ConvexMeshContactGeneration@?A0xf00f4180@@QAEXPBVPxVec3@physx@@IEPBI@Z 10081c40 f   GuContactConvexMesh.obj
 0001:00081190       ?testFacesSepAxesBackface@@YA_NABUPolygonalData@Gu@physx@@ABVMatrix34@Cm@3@11ABVPxVec3@3@PIBV63@ABVFastVertex2ShapeScaling@53@AAIPAIAAMAAV63@5M_N@Z 10082190 f   GuContactConvexMesh.obj
 0001:00081ce0       ?triangleConvexTest@@YA_NABUPolygonalData@Gu@physx@@EIPIBVPxVec3@3@ABVPxPlane@3@ABV43@ABVMatrix34@Cm@3@444ABVFastVertex2ShapeScaling@73@MMAAV43@AAMAA_N_N@Z 10082ce0 f   GuContactConvexMesh.obj
 0001:00085430       ?ContactReductionAllIn@@YAXAAVContactBuffer@Gu@physx@@IIABVPxMat33@3@PIBVPxVec3@3@PIBE@Z 10086430 f   GuContactPolygonPolygon.obj
 0001:00085e10       ?PointInConvexPolygon2D_OutCodes@@YA_NPIBMIMMMMAAE@Z 10086e10 f   GuContactPolygonPolygon.obj
 0001:00086020       ?transformVertices@@YAXAAM000PIAMIPIBVPxVec3@physx@@PIBEABVPxMat33@2@@Z 10087020 f   GuContactPolygonPolygon.obj
 0001:000872c0       ??$sort@USortKey@@U?$Less@USortKey@@@shdfnd@physx@@VNullAllocator@?A0x0ab56d94@@@shdfnd@physx@@YAXPAUSortKey@@IABU?$Less@USortKey@@@01@ABVNullAllocator@?A0x0ab56d94@@I@Z 100882c0 f   GuContactSphereMesh.obj
 0001:000876f0       ??1SphereMeshContactGenerationCallback_NoScale@?A0x0ab56d94@@UAE@XZ 100886f0 f   GuContactSphereMesh.obj
 0001:00087710       ??1SphereMeshContactGenerationCallback_Scale@?A0x0ab56d94@@UAE@XZ 10088710 f   GuContactSphereMesh.obj
 0001:00087730       ??_GSphereHeightfieldContactGenerationCallback@?A0x0ab56d94@@UAEPAXI@Z 10088730 f   GuContactSphereMesh.obj
 0001:00087760       ??_GSphereMeshContactGenerationCallback_NoScale@?A0x0ab56d94@@UAEPAXI@Z 10088760 f   GuContactSphereMesh.obj
 0001:000877a0       ??_GSphereMeshContactGenerationCallback_Scale@?A0x0ab56d94@@UAEPAXI@Z 100887a0 f   GuContactSphereMesh.obj
 0001:000877e0       ?closestPtPointTriangle@@YA?AVPxVec3@physx@@ABV12@000AAM1AAW4FeatureCode@Gu@2@@Z 100887e0 f   GuContactSphereMesh.obj
 0001:00087cf0       ?generateLastContacts@SphereMeshContactGeneration@?A0x0ab56d94@@QAEXXZ 10088cf0 f   GuContactSphereMesh.obj
 0001:00088280       $LN121                     10089280     GuContactSphereMesh.obj
 0001:000882a0       ?onEvent@SphereHeightfieldContactGenerationCallback@?A0x0ab56d94@@UAE_NIPAI@Z 100892a0 f   GuContactSphereMesh.obj
 0001:00088920       ?processHit@SphereMeshContactGenerationCallback_NoScale@?A0x0ab56d94@@UAE_NABUPxRaycastHit@physx@@ABVPxVec3@4@11AAMPBI@Z 10089920 f   GuContactSphereMesh.obj
 0001:00088950       ?processHit@SphereMeshContactGenerationCallback_Scale@?A0x0ab56d94@@UAE_NABUPxRaycastHit@physx@@ABVPxVec3@4@11AAMPBI@Z 10089950 f   GuContactSphereMesh.obj
 0001:00088b20       ?processTriangle@SphereMeshContactGeneration@?A0x0ab56d94@@QAEXIABVPxVec3@physx@@00PBI@Z 10089b20 f   GuContactSphereMesh.obj
 0001:00089160       ?validateEdge@@YA_NIIPBUCachedTriangleIndices@@I@Z 1008a160 f   GuContactSphereMesh.obj
 0001:000891c0       ?validateVertex@@YA_NIPBUCachedTriangleIndices@@I@Z 1008a1c0 f   GuContactSphereMesh.obj
 0001:000895bc       $LN36                      1008a5bc     GuFeatureCode.obj
 0001:0008a860       ?convexHullLoad@@YA_NAAUConvexHullData@Gu@physx@@AAVPxInputStream@3@AAV?$PxBitAndDataT@I$0IAAAAAAA@@3@@Z 1008b860 f   GuConvexMesh.obj
 0001:0008cc70       ?SelectClosestEdgeCB_Convex@@YAIABUPolygonalData@Gu@physx@@ABVFastVertex2ShapeScaling@Cm@3@ABVPxVec3@3@@Z 1008dc70 f   GuShapeConvex.obj
 0001:0008cea0       ?HullProjectionCB_SmallConvex@@YAXABUPolygonalData@Gu@physx@@ABVPxVec3@3@ABVMatrix34@Cm@3@ABVFastVertex2ShapeScaling@63@AAM4@Z 1008dea0 f   GuShapeConvex.obj
 0001:0008d030       ?HullProjectionCB_BigConvex@@YAXABUPolygonalData@Gu@physx@@ABVPxVec3@3@ABVMatrix34@Cm@3@ABVFastVertex2ShapeScaling@63@AAM4@Z 1008e030 f   GuShapeConvex.obj
 0001:0008d410       ?SelectClosestEdgeCB_Box@@YAIABUPolygonalData@Gu@physx@@ABVFastVertex2ShapeScaling@Cm@3@ABVPxVec3@3@@Z 1008e410 f   GuShapeConvex.obj
 0001:0008d610       ?HullProjectionCB_Box@@YAXABUPolygonalData@Gu@physx@@ABVPxVec3@3@ABVMatrix34@Cm@3@ABVFastVertex2ShapeScaling@63@AAM4@Z 1008e610 f   GuShapeConvex.obj
 0001:0008e1f0       ?case0@@YAXIIIAAVPxVec3@physx@@ABV12@1PAMAAM@Z 1008f1f0 f   GuDistanceSegmentBox.obj
 0001:0008e460       ?distanceLineBoxSquared@@YAMABVPxVec3@physx@@000ABVPxMat33@2@PAMPAV12@@Z 1008f460 f   GuDistanceSegmentBox.obj
 0001:0008eb30       ?face@@YAXIIIAAVPxVec3@physx@@ABV12@11PAMAAM@Z 1008fb30 f   GuDistanceSegmentBox.obj
 0001:000933ac       $LN411                     100943ac     GuEPA.obj
 0001:00093760       ?calculateContactInformation@Gu@physx@@YAXPIBT__m128@@0PAVFacet@12@ABUGjkConvex@12@2_NAAUGjkOutput@12@@Z 10094760 f   GuEPA.obj
 0001:00094b20       ?getClosestPtPointTriangle@Gu@physx@@YA?AT__m128@@PIAT3@ABT3@PAIAAI@Z 10095b20 f   GuGJKSimplex.obj
 0001:00096fcc       $LN655                     10097fcc     GuGJKTest.obj
 0001:00098818       $LN1010                    10099818     GuGJKTest.obj
 0001:00098828       $LN1011                    10099828     GuGJKTest.obj
 0001:000995c0       $LN600                     1009a5c0     GuGJKTest.obj
 0001:0009fef0       ?intersectHeightFieldBox@@YA_NABVHeightFieldTraceUtil@Gu@physx@@ABVBox@23@@Z 100a0ef0 f   GuOverlapTestsHF.obj
 0001:000a0d10       ?intersectHeightFieldCapsule@@YA_NABVHeightFieldUtil@Gu@physx@@ABVPxCapsuleGeometry@3@ABVPxTransform@3@@Z 100a1d10 f   GuOverlapTestsHF.obj
 0001:000a1580       ?intersectHeightFieldConvex@@YA_NABVHeightFieldTraceUtil@Gu@physx@@ABVPxTransform@3@ABVConvexMesh@23@1ABVPxMeshScale@3@@Z 100a2580 f   GuOverlapTestsHF.obj
 0001:000a2b70       ?intersectHeightFieldSphere@@YA_NABVHeightFieldUtil@Gu@physx@@ABVSphere@23@@Z 100a3b70 f   GuOverlapTestsHF.obj
 0001:000a3070       ?multiplyInverseRTLeft@@YA?AVMatrix34@Cm@physx@@ABV123@0@Z 100a4070 f   GuOverlapTestsHF.obj
 0001:000a6e04       $LN1118                    100a7e04     GuSweepsHF.obj
 0001:000a6e14       $LN1119                    100a7e14     GuSweepsHF.obj
 0001:000a7cec       $LN707                     100a8cec     GuSweepsHF.obj
 0001:000b2240       ?gReorderCallback@@YA_NPBVAABBTreeNode@Gu@physx@@IPAX@Z 100b3240 f   GuBV4Build.obj
 0001:000b24b0       ?BuildBV4FromRoot@@YA_NAAVBV4Tree@Gu@physx@@PAUBV4Node@@AAUBV4BuildParams@@_NM@Z 100b34b0 f   GuBV4Build.obj
 0001:000b2920       ?_BuildBV4@@YAXABVAABBTree@Gu@physx@@PAUBV4Node@@PBVAABBTreeNode@23@AAUBV4BuildParams@@@Z 100b3920 f   GuBV4Build.obj
 0001:000b2b90       ?_Check@Local@?4??BuildBV4Internal@@YA_NAAVBV4Tree@Gu@physx@@ABVAABBTree@45@PAVSourceMesh@45@M_N@Z@SAXPAVAABBTreeNode@45@@Z 100b3b90 f   GuBV4Build.obj
 0001:000b2cf0       ?_CheckMD@Local@?4??BuildBV4Internal@@YA_NAAVBV4Tree@Gu@physx@@ABVAABBTree@45@PAVSourceMesh@45@M_N@Z@SAXPBVAABBTreeNode@45@AAI5@Z 100b3cf0 f   GuBV4Build.obj
 0001:000b2d40       ?_ComputeMaxValues@@YAXPBUBV4Node@@AAVPxVec3@physx@@1@Z 100b3d40 f   GuBV4Build.obj
 0001:000b2e60       ?_FlattenQ@@YAXQAU?$BVDataPackedT@VQuantizedAABB@Gu@physx@@@Gu@physx@@IAAIPBUBV4Node@@11ABVPxVec3@3@333@Z 100b3e60 f   GuBV4Build.obj
 0001:000b31a0       ?_Walk@Local@?1??walk@AABBTree@Gu@physx@@QBEIP6A_NPBVAABBTreeNode@45@IPAX@Z1@Z@SAX0AAI321@Z 100b41a0 f   GuBV4Build.obj
 0001:000b3220       ?local_BuildHierarchy@@YAXPIAVAABBTreeNode@Gu@physx@@PIBVPxBounds3@3@PIBVPxVec3@3@AAUBuildStats@23@QIBV123@I@Z 100b4220 f   GuBV4Build.obj
 0001:000b3290       ?local_Subdivide@@YA_NPIAVAABBTreeNode@Gu@physx@@PIBVPxBounds3@3@PIBVPxVec3@3@AAUBuildStats@23@QIBV123@I@Z 100b4290 f   GuBV4Build.obj
 0001:000b36d0       ?precomputeNodeSorting@@YAIABVPxBounds3@physx@@0@Z 100b46d0 f   GuBV4Build.obj
 0001:000b38b0       ?setNode@@YAPAUBV4Node@@ABVAABBTree@Gu@physx@@PAU1@IPBVAABBTreeNode@34@AAUBV4BuildParams@@@Z 100b48b0 f   GuBV4Build.obj
 0001:000b39c0       ?setPrimitive@@YAXABVAABBTree@Gu@physx@@PAUBV4Node@@IPBVAABBTreeNode@23@M@Z 100b49c0 f   GuBV4Build.obj
 0001:000b4290       ??$BV4_ProcessStreamKajiyaNoOrderQ@$00VLeafFunction_BoxSweepAny@?A0xc24db68b@@UBoxSweepParams@2@@@YAHPIBU?$BVDataPackedT@VQuantizedAABB@Gu@physx@@@Gu@physx@@IPIAUBoxSweepParams@?A0xc24db68b@@@Z 100b5290 f   GuBV4_AABBSweep.obj
 0001:000b4710       ??$BV4_ProcessStreamKajiyaNoOrderQ@$00VLeafFunction_BoxSweepAnyCB@?A0xc24db68b@@UGenericSweepParamsCB@2@@@YAHPIBU?$BVDataPackedT@VQuantizedAABB@Gu@physx@@@Gu@physx@@IPIAUGenericSweepParamsCB@?A0xc24db68b@@@Z 100b5710 f   GuBV4_AABBSweep.obj
 0001:000b4df0       ??$BV4_ProcessStreamKajiyaNoOrderQ@$00VLeafFunction_BoxSweepCB@?A0xc24db68b@@UBoxSweepParamsCB@2@@@YAHPIBU?$BVDataPackedT@VQuantizedAABB@Gu@physx@@@Gu@physx@@IPIAUBoxSweepParamsCB@?A0xc24db68b@@@Z 100b5df0 f   GuBV4_AABBSweep.obj
 0001:000b6d10       ??$BV4_ProcessStreamKajiyaOrderedQ@$00VLeafFunction_BoxSweepCB@?A0xc24db68b@@UBoxSweepParamsCB@2@@@YAXPIBU?$BVDataPackedT@VQuantizedAABB@Gu@physx@@@Gu@physx@@IPIAUBoxSweepParamsCB@?A0xc24db68b@@@Z 100b7d10 f   GuBV4_AABBSweep.obj
 0001:000b8fa0       ??$BV4_ProcessStreamKajiyaOrderedQ@$00VLeafFunction_BoxSweepClosest@?A0xc24db68b@@UBoxSweepParams@2@@@YAXPIBU?$BVDataPackedT@VQuantizedAABB@Gu@physx@@@Gu@physx@@IPIAUBoxSweepParams@?A0xc24db68b@@@Z 100b9fa0 f   GuBV4_AABBSweep.obj
 0001:000b9720       ??$BV4_ProcessStreamKajiyaOrderedQ@$00VLeafFunction_BoxSweepClosestCB@?A0xc24db68b@@UGenericSweepParamsCB@2@@@YAXPIBU?$BVDataPackedT@VQuantizedAABB@Gu@physx@@@Gu@physx@@IPIAUGenericSweepParamsCB@?A0xc24db68b@@@Z 100ba720 f   GuBV4_AABBSweep.obj
 0001:000ba4d0       ??$doBruteForceTests@VLeafFunction_BoxSweepAnyCB@?A0xc24db68b@@VLeafFunction_BoxSweepClosestCB@2@UGenericSweepParamsCB@2@@Gu@physx@@YAXIPIAUGenericSweepParamsCB@?A0xc24db68b@@@Z 100bb4d0 f   GuBV4_AABBSweep.obj
 0001:000ba6f0       ??$doBruteForceTests@VLeafFunction_BoxSweepCB@?A0xc24db68b@@V12@UBoxSweepParamsCB@2@@Gu@physx@@YAXIPIAUBoxSweepParamsCB@?A0xc24db68b@@@Z 100bb6f0 f   GuBV4_AABBSweep.obj
 0001:000bb540       ?prepareSweepData@@YAXABVBox@Gu@physx@@ABVPxVec3@3@MPIAUBoxSweepParams@?A0xc24db68b@@@Z 100bc540 f   GuBV4_AABBSweep.obj
 0001:000bbcf0       ?triBoxSweep@@YA_NPIAUBoxSweepParams@?A0xc24db68b@@I_N@Z 100bccf0 f   GuBV4_AABBSweep.obj
 0001:000bf7c0       ??$BV4_ProcessStreamSwizzledNoOrderQ@VLeafFunction_BoxOverlapAll@?A0x0f86c373@@UOBBParamsAll@@@@YAHPIBU?$BVDataPackedT@VQuantizedAABB@Gu@physx@@@Gu@physx@@IPIAUOBBParamsAll@@@Z 100c07c0 f   GuBV4_BoxOverlap.obj
 0001:000c0160       ??$BV4_ProcessStreamSwizzledNoOrderQ@VLeafFunction_BoxOverlapAny@?A0x0f86c373@@UOBBParams@@@@YAHPIBU?$BVDataPackedT@VQuantizedAABB@Gu@physx@@@Gu@physx@@IPIAUOBBParams@@@Z 100c1160 f   GuBV4_BoxOverlap.obj
 0001:000c0a50       ??$BV4_ProcessStreamSwizzledNoOrderQ@VLeafFunction_BoxOverlapCB@?A0x0f86c373@@UOBBParamsCB@@@@YAHPIBU?$BVDataPackedT@VQuantizedAABB@Gu@physx@@@Gu@physx@@IPIAUOBBParamsCB@@@Z 100c1a50 f   GuBV4_BoxOverlap.obj
 0001:000c1520       ??$BV4_ProcessStreamSwizzledNoOrderQ@VLeafFunction_CapsuleOverlapAll@?A0x0f86c373@@UCapsuleParamsAll@@@@YAHPIBU?$BVDataPackedT@VQuantizedAABB@Gu@physx@@@Gu@physx@@IPIAUCapsuleParamsAll@@@Z 100c2520 f   GuBV4_BoxOverlap.obj
 0001:000c1e20       ??$BV4_ProcessStreamSwizzledNoOrderQ@VLeafFunction_CapsuleOverlapAny@?A0x0f86c373@@UCapsuleParamsAny@@@@YAHPIBU?$BVDataPackedT@VQuantizedAABB@Gu@physx@@@Gu@physx@@IPIAUCapsuleParamsAny@@@Z 100c2e20 f   GuBV4_BoxOverlap.obj
 0001:000c2650       ??$BV4_ProcessStreamSwizzledNoOrderQ@VLeafFunction_CapsuleOverlapCB@?A0x0f86c373@@UCapsuleParamsCB@@@@YAHPIBU?$BVDataPackedT@VQuantizedAABB@Gu@physx@@@Gu@physx@@IPIAUCapsuleParamsCB@@@Z 100c3650 f   GuBV4_BoxOverlap.obj
 0001:000c3070       ?CapsuleVsTriangle_SAT@@YA_NABVPxVec3@physx@@00PIBUCapsuleParamsAny@@@Z 100c4070 f   GuBV4_BoxOverlap.obj
 0001:000c4540       ??$BV4_ProcessStreamSwizzledNoOrderQ@VLeafFunction_CapsuleSweepAny@?A0xc5107a9a@@UCapsuleSweepParams@2@@@YAHPIBU?$BVDataPackedT@VQuantizedAABB@Gu@physx@@@Gu@physx@@IPIAUCapsuleSweepParams@?A0xc5107a9a@@@Z 100c5540 f   GuBV4_CapsuleSweep.obj
 0001:000c4be0       ??$BV4_ProcessStreamSwizzledNoOrderQ@VLeafFunction_CapsuleSweepCB@?A0xc5107a9a@@UCapsuleSweepParamsCB@2@@@YAHPIBU?$BVDataPackedT@VQuantizedAABB@Gu@physx@@@Gu@physx@@IPIAUCapsuleSweepParamsCB@?A0xc5107a9a@@@Z 100c5be0 f   GuBV4_CapsuleSweep.obj
 0001:000c6f20       ??$BV4_ProcessStreamSwizzledOrderedQ@VLeafFunction_CapsuleSweepCB@?A0xc5107a9a@@UCapsuleSweepParamsCB@2@@@YAXPIBU?$BVDataPackedT@VQuantizedAABB@Gu@physx@@@Gu@physx@@IPIAUCapsuleSweepParamsCB@?A0xc5107a9a@@@Z 100c7f20 f   GuBV4_CapsuleSweep.obj
 0001:000c9530       ??$BV4_ProcessStreamSwizzledOrderedQ@VLeafFunction_CapsuleSweepClosest@?A0xc5107a9a@@UCapsuleSweepParams@2@@@YAXPIBU?$BVDataPackedT@VQuantizedAABB@Gu@physx@@@Gu@physx@@IPIAUCapsuleSweepParams@?A0xc5107a9a@@@Z 100ca530 f   GuBV4_CapsuleSweep.obj
 0001:000c9e00       ??$doBruteForceTests@VLeafFunction_CapsuleSweepCB@?A0xc5107a9a@@V12@UCapsuleSweepParamsCB@2@@Gu@physx@@YAXIPIAUCapsuleSweepParamsCB@?A0xc5107a9a@@@Z 100cae00 f   GuBV4_CapsuleSweep.obj
 0001:000cada0       ?computeBoxAroundCapsule@@YAXABVCapsule@Gu@physx@@AAVBox@23@AAVPxVec3@3@@Z 100cbda0 f   GuBV4_CapsuleSweep.obj
 0001:000caf40       ?prepareSweepData@@YAXABVBox@Gu@physx@@ABVPxVec3@3@MPIAUBoxSweepParams@?A0xc5107a9a@@@Z 100cbf40 f   GuBV4_CapsuleSweep.obj
 0001:000cb8f0       ?testQuad@@YAXPIBUCapsuleSweepParams@?A0xc5107a9a@@ABVPxVec3@physx@@11111MMAAMAA_N@Z 100cc8f0 f   GuBV4_CapsuleSweep.obj
 0001:000cbd10       ?testTri@@YA_NPIBUCapsuleSweepParams@?A0xc5107a9a@@ABVPxVec3@physx@@1111MMAAMAA_N@Z 100ccd10 f   GuBV4_CapsuleSweep.obj
 0001:000cc0a0       ?triCapsuleSweep@@YA_NPIAUCapsuleSweepParams@?A0xc5107a9a@@I_N@Z 100cd0a0 f   GuBV4_CapsuleSweep.obj
 0001:000cd7b0       ??$BV4_ProcessStreamKajiyaNoOrderQ@$00VLeafFunction_CapsuleSweepAny@?A0x7ab40344@@UCapsuleSweepParams@2@@@YAHPIBU?$BVDataPackedT@VQuantizedAABB@Gu@physx@@@Gu@physx@@IPIAUCapsuleSweepParams@?A0x7ab40344@@@Z 100ce7b0 f   GuBV4_CapsuleSweepAA.obj
 0001:000cdc30       ??$BV4_ProcessStreamKajiyaOrderedQ@$00VLeafFunction_CapsuleSweepClosest@?A0x7ab40344@@UCapsuleSweepParams@2@@@YAXPIBU?$BVDataPackedT@VQuantizedAABB@Gu@physx@@@Gu@physx@@IPIAUCapsuleSweepParams@?A0x7ab40344@@@Z 100cec30 f   GuBV4_CapsuleSweepAA.obj
 0001:000ce3b0       ?computeBoxAroundCapsule@@YAXABVCapsule@Gu@physx@@AAVBox@23@AAVPxVec3@3@@Z 100cf3b0 f   GuBV4_CapsuleSweepAA.obj
 0001:000ce550       ?prepareSweepData@@YAXABVBox@Gu@physx@@ABVPxVec3@3@MPIAUBoxSweepParams@?A0x7ab40344@@@Z 100cf550 f   GuBV4_CapsuleSweepAA.obj
 0001:000cec10       ?testQuad@@YAXPIBUCapsuleSweepParams@?A0x7ab40344@@ABVPxVec3@physx@@11111MMAAMAA_N@Z 100cfc10 f   GuBV4_CapsuleSweepAA.obj
 0001:000cf030       ?testTri@@YA_NPIBUCapsuleSweepParams@?A0x7ab40344@@ABVPxVec3@physx@@1111MMAAMAA_N@Z 100d0030 f   GuBV4_CapsuleSweepAA.obj
 0001:000cf3c0       ?triCapsuleSweep@@YA_NPIAUCapsuleSweepParams@?A0x7ab40344@@I_N@Z 100d03c0 f   GuBV4_CapsuleSweepAA.obj
 0001:000d1b60       ??$BV4_ProcessStreamSwizzledNoOrderQ@VLeafFunction_BoxSweepAny@?A0x4f0c7107@@UBoxSweepParams@2@@@YAHPIBU?$BVDataPackedT@VQuantizedAABB@Gu@physx@@@Gu@physx@@IPIAUBoxSweepParams@?A0x4f0c7107@@@Z 100d2b60 f   GuBV4_OBBSweep.obj
 0001:000d2200       ??$BV4_ProcessStreamSwizzledNoOrderQ@VLeafFunction_BoxSweepAnyCB@?A0x4f0c7107@@UGenericSweepParamsCB@2@@@YAHPIBU?$BVDataPackedT@VQuantizedAABB@Gu@physx@@@Gu@physx@@IPIAUGenericSweepParamsCB@?A0x4f0c7107@@@Z 100d3200 f   GuBV4_OBBSweep.obj
 0001:000d2b10       ??$BV4_ProcessStreamSwizzledNoOrderQ@VLeafFunction_BoxSweepCB@?A0x4f0c7107@@UBoxSweepParamsCB@2@@@YAHPIBU?$BVDataPackedT@VQuantizedAABB@Gu@physx@@@Gu@physx@@IPIAUBoxSweepParamsCB@?A0x4f0c7107@@@Z 100d3b10 f   GuBV4_OBBSweep.obj
 0001:000d4c70       ??$BV4_ProcessStreamSwizzledOrderedQ@VLeafFunction_BoxSweepCB@?A0x4f0c7107@@UBoxSweepParamsCB@2@@@YAXPIBU?$BVDataPackedT@VQuantizedAABB@Gu@physx@@@Gu@physx@@IPIAUBoxSweepParamsCB@?A0x4f0c7107@@@Z 100d5c70 f   GuBV4_OBBSweep.obj
 0001:000d7060       ??$BV4_ProcessStreamSwizzledOrderedQ@VLeafFunction_BoxSweepClosest@?A0x4f0c7107@@UBoxSweepParams@2@@@YAXPIBU?$BVDataPackedT@VQuantizedAABB@Gu@physx@@@Gu@physx@@IPIAUBoxSweepParams@?A0x4f0c7107@@@Z 100d8060 f   GuBV4_OBBSweep.obj
 0001:000d7930       ??$BV4_ProcessStreamSwizzledOrderedQ@VLeafFunction_BoxSweepClosestCB@?A0x4f0c7107@@UGenericSweepParamsCB@2@@@YAXPIBU?$BVDataPackedT@VQuantizedAABB@Gu@physx@@@Gu@physx@@IPIAUGenericSweepParamsCB@?A0x4f0c7107@@@Z 100d8930 f   GuBV4_OBBSweep.obj
 0001:000d8e50       ??$doBruteForceTests@VLeafFunction_BoxSweepAnyCB@?A0x4f0c7107@@VLeafFunction_BoxSweepClosestCB@2@UGenericSweepParamsCB@2@@Gu@physx@@YAXIPIAUGenericSweepParamsCB@?A0x4f0c7107@@@Z 100d9e50 f   GuBV4_OBBSweep.obj
 0001:000d91f0       ??$doBruteForceTests@VLeafFunction_BoxSweepCB@?A0x4f0c7107@@V12@UBoxSweepParamsCB@2@@Gu@physx@@YAXIPIAUBoxSweepParamsCB@?A0x4f0c7107@@@Z 100da1f0 f   GuBV4_OBBSweep.obj
 0001:000da060       ?prepareSweepData@@YAXABVBox@Gu@physx@@ABVPxVec3@3@MPIAUBoxSweepParams@?A0x4f0c7107@@@Z 100db060 f   GuBV4_OBBSweep.obj
 0001:000daa10       ?triBoxSweep@@YA_NPIAUBoxSweepParams@?A0x4f0c7107@@I_N@Z 100dba10 f   GuBV4_OBBSweep.obj
 0001:000dc560       ??$BV4_ProcessStreamKajiyaNoOrderQ@$0A@VLeafFunction_RaycastAll@?A0x7d303ae7@@URayParamsAll@2@@@YAHPIBU?$BVDataPackedT@VQuantizedAABB@Gu@physx@@@Gu@physx@@IPIAURayParamsAll@?A0x7d303ae7@@@Z 100dd560 f   GuBV4_Raycast.obj
 0001:000dc8a0       ??$BV4_ProcessStreamKajiyaNoOrderQ@$0A@VLeafFunction_RaycastAny@?A0x7d303ae7@@URayParams@@@@YAHPIBU?$BVDataPackedT@VQuantizedAABB@Gu@physx@@@Gu@physx@@IPIAURayParams@@@Z 100dd8a0 f   GuBV4_Raycast.obj
 0001:000dcbe0       ??$BV4_ProcessStreamKajiyaNoOrderQ@$0A@VLeafFunction_RaycastCB@?A0x7d303ae7@@URayParamsCB@2@@@YAHPIBU?$BVDataPackedT@VQuantizedAABB@Gu@physx@@@Gu@physx@@IPIAURayParamsCB@?A0x7d303ae7@@@Z 100ddbe0 f   GuBV4_Raycast.obj
 0001:000dcf20       ??$BV4_ProcessStreamKajiyaOrderedQ@$0A@VLeafFunction_RaycastClosest@?A0x7d303ae7@@URayParams@@@@YAXPIBU?$BVDataPackedT@VQuantizedAABB@Gu@physx@@@Gu@physx@@IPIAURayParams@@@Z 100ddf20 f   GuBV4_Raycast.obj
 0001:000dd510       ?doLeafTest@LeafFunction_RaycastAll@?A0x7d303ae7@@SAHPIAURayParams@@I@Z 100de510 f   GuBV4_Raycast.obj
 0001:000ddba0       ?doLeafTest@LeafFunction_RaycastAny@?A0x7d303ae7@@SAHPIAURayParams@@I@Z 100deba0 f   GuBV4_Raycast.obj
 0001:000de050       ?doLeafTest@LeafFunction_RaycastCB@?A0x7d303ae7@@SAHPIAURayParamsCB@2@I@Z 100df050 f   GuBV4_Raycast.obj
 0001:000de4e0       ?doLeafTest@LeafFunction_RaycastClosest@?A0x7d303ae7@@SAHPIAURayParams@@I@Z 100df4e0 f   GuBV4_Raycast.obj
 0001:000df640       ??$BV4_ProcessStreamSwizzledNoOrderQ@VLeafFunction_SphereOverlapAll@?A0xeab7eca5@@USphereParamsAll@@@@YAHPIBU?$BVDataPackedT@VQuantizedAABB@Gu@physx@@@Gu@physx@@IPIAUSphereParamsAll@@@Z 100e0640 f   GuBV4_SphereOverlap.obj
 0001:000dfba0       ??$BV4_ProcessStreamSwizzledNoOrderQ@VLeafFunction_SphereOverlapAny@?A0xeab7eca5@@USphereParams@@@@YAHPIBU?$BVDataPackedT@VQuantizedAABB@Gu@physx@@@Gu@physx@@IPIAUSphereParams@@@Z 100e0ba0 f   GuBV4_SphereOverlap.obj
 0001:000e00a0       ??$BV4_ProcessStreamSwizzledNoOrderQ@VLeafFunction_SphereOverlapCB@?A0xeab7eca5@@USphereParamsCB@@@@YAHPIBU?$BVDataPackedT@VQuantizedAABB@Gu@physx@@@Gu@physx@@IPIAUSphereParamsCB@@@Z 100e10a0 f   GuBV4_SphereOverlap.obj
 0001:000e1ac0       ?__SphereTriangle@@YAHPIBUSphereParams@@I@Z 100e2ac0 f   GuBV4_SphereOverlap.obj
 0001:000e2cd0       ??$BV4_ProcessStreamKajiyaNoOrderQ@$00VLeafFunction_SphereSweepAny@?A0x45c24a54@@USphereSweepParams@2@@@YAHPIBU?$BVDataPackedT@VQuantizedAABB@Gu@physx@@@Gu@physx@@IPIAUSphereSweepParams@?A0x45c24a54@@@Z 100e3cd0 f   GuBV4_SphereSweep.obj
 0001:000e3140       ??$BV4_ProcessStreamKajiyaNoOrderQ@$00VLeafFunction_SphereSweepCB@?A0x45c24a54@@USphereSweepParamsCB@2@@@YAHPIBU?$BVDataPackedT@VQuantizedAABB@Gu@physx@@@Gu@physx@@IPIAUSphereSweepParamsCB@?A0x45c24a54@@@Z 100e4140 f   GuBV4_SphereSweep.obj
 0001:000e45a0       ??$BV4_ProcessStreamKajiyaOrderedQ@$00VExLeafTestSweepCB@?A0x45c24a54@@UBoxSweepParamsCB@2@@@YAXPIBU?$BVDataPackedT@VQuantizedAABB@Gu@physx@@@Gu@physx@@IPIAUBoxSweepParamsCB@?A0x45c24a54@@@Z 100e55a0 f   GuBV4_SphereSweep.obj
 0001:000e5090       ??$BV4_ProcessStreamKajiyaOrderedQ@$00VLeafFunction_SphereSweepCB@?A0x45c24a54@@USphereSweepParamsCB@2@@@YAXPIBU?$BVDataPackedT@VQuantizedAABB@Gu@physx@@@Gu@physx@@IPIAUSphereSweepParamsCB@?A0x45c24a54@@@Z 100e6090 f   GuBV4_SphereSweep.obj
 0001:000e6810       ??$BV4_ProcessStreamKajiyaOrderedQ@$00VLeafFunction_SphereSweepClosest@?A0x45c24a54@@USphereSweepParams@2@@@YAXPIBU?$BVDataPackedT@VQuantizedAABB@Gu@physx@@@Gu@physx@@IPIAUSphereSweepParams@?A0x45c24a54@@@Z 100e7810 f   GuBV4_SphereSweep.obj
 0001:000e6f90       ??$doBruteForceTests@VLeafFunction_SphereSweepCB@?A0x45c24a54@@V12@USphereSweepParamsCB@2@@Gu@physx@@YAXIPIAUSphereSweepParamsCB@?A0x45c24a54@@@Z 100e7f90 f   GuBV4_SphereSweep.obj
 0001:000e77c0       ?triSphereSweep@@YA_NPIAUSphereSweepParams@?A0x45c24a54@@I_N@Z 100e87c0 f   GuBV4_SphereSweep.obj
 0001:000ed060       ?gRayCallback@@YA?AW4HitCode@Gu@physx@@PAXABVPxVec3@3@11IMMM@Z 100ee060 f   GuMidphaseBV4.obj
 0001:000ed7c0       ?gSphereVsMeshCallback@@YA_NPAXABVPxVec3@physx@@11IPBI@Z 100ee7c0 f   GuMidphaseBV4.obj
 0001:000eda30       ?gCapsuleVsMeshCallback@@YA_NPAXABVPxVec3@physx@@11IPBI@Z 100eea30 f   GuMidphaseBV4.obj
 0001:000edd20       ?gBoxVsMeshCallback@@YA_NPAXABVPxVec3@physx@@11IPBI@Z 100eed20 f   GuMidphaseBV4.obj
 0001:000edf90       ?gVolumeCallback@@YA_NPAXABVPxVec3@physx@@11IPBI@Z 100eef90 f   GuMidphaseBV4.obj
 0001:000edfd0       ?gCapsuleMeshSweepCallback@@YA_NPAXABVPxVec3@physx@@11IAAM@Z 100eefd0 f   GuMidphaseBV4.obj
 0001:000ee040       ?gBoxMeshSweepCallback@@YA_NPAXABVPxVec3@physx@@11IAAM@Z 100ef040 f   GuMidphaseBV4.obj
 0001:000ee0b0       ?gConvexVsMeshSweepCallback@@YA_NPAXABVPxVec3@physx@@11IAAM@Z 100ef0b0 f   GuMidphaseBV4.obj
 0001:000ee140       ?boxSweepVsMesh@@YAHAAVSweepHit@Gu@physx@@ABVBV4Tree@23@PBM2ABVBox@23@ABVPxVec3@3@M_N55@Z 100ef140 f   GuMidphaseBV4.obj
 0001:000ee330       ?capsuleSweepVsMesh@@YA_NAAVSweepHit@Gu@physx@@ABVBV4Tree@23@ABVCapsule@23@ABVPxVec3@3@MPBVPxMat44@3@I@Z 100ef330 f   GuMidphaseBV4.obj
 0001:000efaa0       $LN126                     100f0aa0     GuMeshQuery.obj
 0001:000efc40       ??0HfTrianglesEntityReport2@?A0x2338cd47@@QAE@PAIIIAAVHeightFieldUtil@Gu@physx@@ABVPxVec3@4@2ABVPxQuat@4@_N@Z 100f0c40 f   GuMeshQuery.obj
 0001:000efd30       ??_GHfTrianglesEntityReport2@?A0x2338cd47@@UAEPAXI@Z 100f0d30 f   GuMeshQuery.obj
 0001:000efd60       ?onEvent@HfTrianglesEntityReport2@?A0x2338cd47@@UAE_NIPAI@Z 100f0d60 f   GuMeshQuery.obj
 0001:000f35a0       ??$intersectAnyVsMesh@$0A@@@YA_NPBVSphere@Gu@physx@@PBVCapsule@12@PBVBox@12@ABVTriangleMesh@12@ABVPxTransform@2@ABVPxMeshScale@2@PAULimitedResults@12@@Z 100f45a0 f   GuMidphaseRTree.obj
 0001:000f3810       ??$intersectAnyVsMeshT@$00$00@@YA_NPBVSphere@Gu@physx@@PBVCapsule@12@PBVBox@12@ABVTriangleMesh@12@ABVPxTransform@2@ABVPxMeshScale@2@PAULimitedResults@12@@Z 100f4810 f   GuMidphaseRTree.obj
 0001:000f3c20       ??$intersectAnyVsMeshT@$00$0A@@@YA_NPBVSphere@Gu@physx@@PBVCapsule@12@PBVBox@12@ABVTriangleMesh@12@ABVPxTransform@2@ABVPxMeshScale@2@PAULimitedResults@12@@Z 100f4c20 f   GuMidphaseRTree.obj
 0001:000f44a0       ??$intersectAnyVsMeshT@$01$00@@YA_NPBVSphere@Gu@physx@@PBVCapsule@12@PBVBox@12@ABVTriangleMesh@12@ABVPxTransform@2@ABVPxMeshScale@2@PAULimitedResults@12@@Z 100f54a0 f   GuMidphaseRTree.obj
 0001:000f49a0       ??$intersectAnyVsMeshT@$01$0A@@@YA_NPBVSphere@Gu@physx@@PBVCapsule@12@PBVBox@12@ABVTriangleMesh@12@ABVPxTransform@2@ABVPxMeshScale@2@PAULimitedResults@12@@Z 100f59a0 f   GuMidphaseRTree.obj
 0001:000f54b0       ??$intersectAnyVsMeshT@$0A@$0A@@@YA_NPBVSphere@Gu@physx@@PBVCapsule@12@PBVBox@12@ABVTriangleMesh@12@ABVPxTransform@2@ABVPxMeshScale@2@PAULimitedResults@12@@Z 100f64b0 f   GuMidphaseRTree.obj
 0001:000f5ea0       ??1?$IntersectBoxVsMeshCallback@$00@?A0x120f3a9d@@UAE@XZ 100f6ea0 f   GuMidphaseRTree.obj
 0001:000f5eb0       ??1?$IntersectBoxVsMeshCallback@$0A@@?A0x120f3a9d@@UAE@XZ 100f6eb0 f   GuMidphaseRTree.obj
 0001:000f5ec0       ??1?$IntersectCapsuleVsMeshCallback@$00@?A0x120f3a9d@@UAE@XZ 100f6ec0 f   GuMidphaseRTree.obj
 0001:000f5ed0       ??1?$IntersectCapsuleVsMeshCallback@$0A@@?A0x120f3a9d@@UAE@XZ 100f6ed0 f   GuMidphaseRTree.obj
 0001:000f5ee0       ??1?$IntersectSphereVsMeshCallback@$00@?A0x120f3a9d@@UAE@XZ 100f6ee0 f   GuMidphaseRTree.obj
 0001:000f5ef0       ??1?$IntersectSphereVsMeshCallback@$0A@@?A0x120f3a9d@@UAE@XZ 100f6ef0 f   GuMidphaseRTree.obj
 0001:000f60a0       ??1IntersectShapeVsMeshCallback@?A0x120f3a9d@@UAE@XZ 100f70a0 f   GuMidphaseRTree.obj
 0001:000f6140       ??_G?$IntersectBoxVsMeshCallback@$00@?A0x120f3a9d@@UAEPAXI@Z 100f7140 f   GuMidphaseRTree.obj
 0001:000f6170       ??_G?$IntersectBoxVsMeshCallback@$0A@@?A0x120f3a9d@@UAEPAXI@Z 100f7170 f   GuMidphaseRTree.obj
 0001:000f61a0       ??_G?$IntersectCapsuleVsMeshCallback@$00@?A0x120f3a9d@@UAEPAXI@Z 100f71a0 f   GuMidphaseRTree.obj
 0001:000f61d0       ??_G?$IntersectCapsuleVsMeshCallback@$0A@@?A0x120f3a9d@@UAEPAXI@Z 100f71d0 f   GuMidphaseRTree.obj
 0001:000f6200       ??_G?$IntersectSphereVsMeshCallback@$00@?A0x120f3a9d@@UAEPAXI@Z 100f7200 f   GuMidphaseRTree.obj
 0001:000f6230       ??_G?$IntersectSphereVsMeshCallback@$0A@@?A0x120f3a9d@@UAEPAXI@Z 100f7230 f   GuMidphaseRTree.obj
 0001:000f6480       ??_GIntersectShapeVsMeshCallback@?A0x120f3a9d@@UAEPAXI@Z 100f7480 f   GuMidphaseRTree.obj
 0001:000f64e0       ?computeSweptAABBAroundOBB@@YAXABVBox@Gu@physx@@AAVPxVec3@3@11AAM@Z 100f74e0 f   GuMidphaseRTree.obj
 0001:000f66c0       ?processHit@?$IntersectBoxVsMeshCallback@$00@?A0x120f3a9d@@UAE_NABUPxRaycastHit@physx@@ABVPxVec3@4@11AAMPBI@Z 100f76c0 f   GuMidphaseRTree.obj
 0001:000f6920       ?processHit@?$IntersectBoxVsMeshCallback@$0A@@?A0x120f3a9d@@UAE_NABUPxRaycastHit@physx@@ABVPxVec3@4@11AAMPBI@Z 100f7920 f   GuMidphaseRTree.obj
 0001:000f6ba0       ?processHit@?$IntersectCapsuleVsMeshCallback@$00@?A0x120f3a9d@@UAE_NABUPxRaycastHit@physx@@ABVPxVec3@4@11AAMPBI@Z 100f7ba0 f   GuMidphaseRTree.obj
 0001:000f6ca0       ?processHit@?$IntersectCapsuleVsMeshCallback@$0A@@?A0x120f3a9d@@UAE_NABUPxRaycastHit@physx@@ABVPxVec3@4@11AAMPBI@Z 100f7ca0 f   GuMidphaseRTree.obj
 0001:000f7010       ?processHit@?$IntersectSphereVsMeshCallback@$00@?A0x120f3a9d@@UAE_NABUPxRaycastHit@physx@@ABVPxVec3@4@11AAMPBI@Z 100f8010 f   GuMidphaseRTree.obj
 0001:000f7130       ?processHit@?$IntersectSphereVsMeshCallback@$0A@@?A0x120f3a9d@@UAE_NABUPxRaycastHit@physx@@ABVPxVec3@4@11AAMPBI@Z 100f8130 f   GuMidphaseRTree.obj
 0001:000fb754       $LN760                     100fc754     GuOverlapTestsMesh.obj
 0001:00101860       ?sweepSphereTriangle@@YA_NABVPxTriangle@physx@@ABVPxVec3@2@M1MAAUPxSweepHit@2@AAV32@V?$PxFlags@W4Enum@PxHitFlag@physx@@G@2@_N@Z 10102860 f   GuSweepsMesh.obj
 0001:00103710       ?gReorderCallback@@YA_NPBVAABBTreeNode@Gu@physx@@IPAX@Z 10104710 f   GuBV32Build.obj
 0001:00103800       ?BuildBV32Internal@@YA_NAAVBV32Tree@Gu@physx@@ABVAABBTree@23@PAVSourceMesh@23@M@Z 10104800 f   GuBV32Build.obj
 0001:00103bb0       ?_BuildBV32@@YAXABVAABBTree@Gu@physx@@PAUBV32Node@@PBVAABBTreeNode@23@MAAI@Z 10104bb0 f   GuBV32Build.obj
 0001:00103cc0       ?_Check@Local@?5??BuildBV32Internal@@YA_NAAVBV32Tree@Gu@physx@@ABVAABBTree@45@PAVSourceMesh@45@M@Z@SAXPAVAABBTreeNode@45@@Z 10104cc0 f   GuBV32Build.obj
 0001:00103e20       ?_CheckMD@Local@?5??BuildBV32Internal@@YA_NAAVBV32Tree@Gu@physx@@ABVAABBTree@45@PAVSourceMesh@45@M@Z@SAXPBVAABBTreeNode@45@AAI4@Z 10104e20 f   GuBV32Build.obj
 0001:00103e70       ?_Flatten@Local@?8??BuildBV32Internal@@YA_NAAVBV32Tree@Gu@physx@@ABVAABBTree@45@PAVSourceMesh@45@M@Z@SAXQAUBV32Data@45@IAAIPBUBV32Node@@44I@Z 10104e70 f   GuBV32Build.obj
 0001:00104020       ?fillInNodes@@YAXPBVAABBTreeNode@Gu@physx@@IIPAPBV123@AAI@Z 10105020 f   GuBV32Build.obj
 0001:001040b0       ?setNode@@YAPAUBV32Node@@ABVAABBTree@Gu@physx@@PAU1@IPBVAABBTreeNode@34@M@Z 101050b0 f   GuBV32Build.obj
 0001:001050b0       ?calculateContacts@Gu@physx@@YAXABT__m128@@0PAT3@00PAVPersistentContact@12@AAI0@Z 101060b0 f   GuPCMContactBoxBox.obj
 0001:00105d20       ?doBoxBoxGenerateContacts@Gu@physx@@YAIABT__m128@@0ABVPsMatTransformV@aos@shdfnd@2@10PAVPersistentContact@12@AAI@Z 10106d20 f   GuPCMContactBoxBox.obj
 0001:00107a9c       $LN1737                    10108a9c     GuPCMContactBoxBox.obj
 0001:00107ac0       ?getIncidentPolygon@Gu@physx@@YAXPAT__m128@@AAT3@ABT3@ABVPsMatTransformV@aos@shdfnd@2@2@Z 10108ac0 f   GuPCMContactBoxBox.obj
 0001:00107cc0       ?intersectSegmentAABB@Gu@physx@@YA_NABT__m128@@000AAT3@1@Z 10108cc0 f   GuPCMContactBoxBox.obj
 0001:0010a5e8       $LN1114                    1010b5e8     GuPCMContactBoxConvex.obj
 0001:0010a5f8       $LN1115                    1010b5f8     GuPCMContactBoxConvex.obj
 0001:0010a640       ?fullContactsGenerationBoxConvex@Gu@physx@@YA_NPBUGjkConvex@12@0ABVPsTransformV@aos@shdfnd@2@1PAVPersistentContact@12@AAVContactBuffer@12@AAVPersistentContactManifold@12@AAT__m128@@ABT__m128@@66_N7PAVRenderOutput@Cm@2@M@Z 1010b640 f   GuPCMContactBoxConvex.obj
 0001:0010a960       ?generateOrProcessContactsBoxConvex@Gu@physx@@YA_NPBUGjkConvex@12@0ABVPsTransformV@aos@shdfnd@2@1ABVPsMatTransformV@562@W4GjkStatus@12@AAUGjkOutput@12@AAVPersistentContactManifold@12@AAVContactBuffer@12@IT__m128@@7_NMPAVRenderOutput@Cm@2@@Z 1010b960 f   GuPCMContactBoxConvex.obj
 0001:0010b970       ?fullContactsGenerationCapsuleBox@Gu@physx@@YA_NABVCapsuleV@12@ABVBoxV@12@VPxVec3@2@ABVPsMatTransformV@aos@shdfnd@2@ABVPsTransformV@782@4PAVPersistentContact@12@AAIAAVContactBuffer@12@AAVPersistentContactManifold@12@AAT__m128@@ABT__m128@@MABT__m128@@_NMPAVRenderOutput@Cm@2@@Z 1010c970 f   GuPCMContactCapsuleBox.obj
 0001:0010c340       ?pcmDistancePointSegmentTValue22@@YA?AT__m128@@ABT1@0000000@Z 1010d340 f   GuPCMContactCapsuleCapsule.obj
 0001:0010c430       ?storeContact@Gu@physx@@YAXABT__m128@@00AAVContactBuffer@12@@Z 1010d430 f   GuPCMContactCapsuleCapsule.obj
 0001:0010ecf8       $LN1053                    1010fcf8     GuPCMContactCapsuleConvex.obj
 0001:0010ed08       $LN1054                    1010fd08     GuPCMContactCapsuleConvex.obj
 0001:0010ed20       ?fullContactsGenerationCapsuleConvex@Gu@physx@@YA_NABVCapsuleV@12@ABVConvexHullV@12@ABVPsMatTransformV@aos@shdfnd@2@ABVPsTransformV@672@3PAVPersistentContact@12@AAVContactBuffer@12@_NAAVPersistentContactManifold@12@AAT__m128@@ABT__m128@@M96PAVRenderOutput@Cm@2@M@Z 1010fd20 f   GuPCMContactCapsuleConvex.obj
 0001:00116280       ?pcmDistancePointTriangleSquared@Gu@physx@@YA?AT__m128@@ABT3@000EAAT3@AA_N2@Z 10117280 f   GuPCMContactConvexCommon.obj
 0001:00116810       ?selectNormal@Gu@physx@@YA_NABT__m128@@AAT3@E@Z 10117810 f   GuPCMContactConvexCommon.obj
 0001:001193f4       $LN1116                    1011a3f4     GuPCMContactConvexConvex.obj
 0001:00119404       $LN1117                    1011a404     GuPCMContactConvexConvex.obj
 0001:0011ad24       $LN1166                    1011bd24     GuPCMContactConvexConvex.obj
 0001:0011ad34       $LN1167                    1011bd34     GuPCMContactConvexConvex.obj
 0001:0011c664       $LN1167                    1011d664     GuPCMContactConvexConvex.obj
 0001:0011c674       $LN1168                    1011d674     GuPCMContactConvexConvex.obj
 0001:0011c6c0       ?convexHullHasScale0@Gu@physx@@YA_NABVConvexHullV@12@0ABVPsTransformV@aos@shdfnd@2@1ABVPsMatTransformV@562@AAUGjkOutput@12@AAVPersistentContactManifold@12@AAVContactBuffer@12@IT__m128@@6_NMPAVRenderOutput@Cm@2@@Z 1011d6c0 f   GuPCMContactConvexConvex.obj
 0001:0011c800       ?convexHullNoScale0@Gu@physx@@YA_NABVConvexHullV@12@0ABVPsTransformV@aos@shdfnd@2@1ABVPsMatTransformV@562@AAUGjkOutput@12@AAVPersistentContactManifold@12@AAVContactBuffer@12@IT__m128@@6_NMPAVRenderOutput@Cm@2@@Z 1011d800 f   GuPCMContactConvexConvex.obj
 0001:0011c940       ?fullContactsGenerationConvexConvex@Gu@physx@@YA_NPBUGjkConvex@12@0ABVPsTransformV@aos@shdfnd@2@1_N2PAVPersistentContact@12@AAVContactBuffer@12@AAVPersistentContactManifold@12@AAT__m128@@ABT__m128@@772PAVRenderOutput@Cm@2@M@Z 1011d940 f   GuPCMContactConvexConvex.obj
 0001:0011cc00       ?generateOrProcessContactsConvexConvex@Gu@physx@@YA_NPBUGjkConvex@12@0ABVPsTransformV@aos@shdfnd@2@1ABVPsMatTransformV@562@W4GjkStatus@12@AAUGjkOutput@12@AAVPersistentContactManifold@12@AAVContactBuffer@12@IT__m128@@7_N8MPAVRenderOutput@Cm@2@@Z 1011dc00 f   GuPCMContactConvexConvex.obj
 0001:00123170       ?testEdgeNormal@Gu@physx@@YA_NABUPolygonalData@12@0PAVSupportLocal@12@1ABVPsMatTransformV@aos@shdfnd@2@2ABT__m128@@AAT8@4W4FeatureStatus@12@AAW4912@@Z 10124170 f   GuPCMContactGenBoxConvex.obj
 0001:00123720       ?testFaceNormal@Gu@physx@@YA_NABUPolygonalData@12@0PAVSupportLocal@12@1ABVPsMatTransformV@aos@shdfnd@2@2ABT__m128@@AAT8@AAI4W4FeatureStatus@12@AAW4912@@Z 10124720 f   GuPCMContactGenBoxConvex.obj
 0001:00125550       ?generatedFaceContacts@Gu@physx@@YAXABVCapsuleV@12@AAUPolygonalData@12@PAVSupportLocal@12@ABVPsMatTransformV@aos@shdfnd@2@PAVPersistentContact@12@AAIABT__m128@@6@Z 10126550 f   GuPCMContactGenSphereCapsule.obj
 0001:001259b0       ?testSATCapsulePoly@Gu@physx@@YA_NABVCapsuleV@12@ABUPolygonalData@12@PAVSupportLocal@12@ABT__m128@@AAT6@4@Z 101269b0 f   GuPCMContactGenSphereCapsule.obj
 0001:00129280       ?addToContactBuffer@Gu@physx@@YAXAAVContactBuffer@12@ABT__m128@@11@Z 1012a280 f   GuPCMContactSphereConvex.obj
 0001:001292d0       ?fullContactsGenerationSphereConvex@Gu@physx@@YA_NABVCapsuleV@12@ABVConvexHullV@12@ABVPsTransformV@aos@shdfnd@2@2PAVPersistentContact@12@AAVContactBuffer@12@_NAAVPersistentContactManifold@12@AAT__m128@@ABT__m128@@_NPAVRenderOutput@Cm@2@@Z 1012a2d0 f   GuPCMContactSphereConvex.obj
 0001:0012cc60       ?generatedPolyContacts@physx@@YAXABUPolygonalData@Gu@1@ABUHullPolygonData@31@ABVTriangleV@31@IEPAVSupportLocal@31@PAVMeshPersistentContact@31@AAIABT__m128@@6PAVRenderOutput@Cm@1@@Z 1012dc60 f   GuPCMTriangleContactGen.obj
 0001:0012d8c0       ?generatedTriangleContacts@physx@@YAXABVTriangleV@Gu@1@IEABUPolygonalData@31@ABUHullPolygonData@31@PAVSupportLocal@31@PAVMeshPersistentContact@31@AAIABT__m128@@6PAVRenderOutput@Cm@1@@Z 1012e8c0 f   GuPCMTriangleContactGen.obj
 0001:0012e530       ?testPolyEdgeNormal@physx@@YA_NABVTriangleV@Gu@1@EABUPolygonalData@31@PAV?$SupportLocalImpl@VTriangleV@Gu@physx@@@31@PAVSupportLocal@31@ABT__m128@@AAT7@5W4FeatureStatus@31@AAW4831@@Z 1012f530 f   GuPCMTriangleContactGen.obj
 0001:0012ea10       ?testPolyFaceNormal@physx@@YA_NABVTriangleV@Gu@1@ABUPolygonalData@31@PAV?$SupportLocalImpl@VTriangleV@Gu@physx@@@31@PAVSupportLocal@31@ABT__m128@@AAT7@AAI5W4FeatureStatus@31@AAW4831@@Z 1012fa10 f   GuPCMTriangleContactGen.obj
 0001:0012ed30       ?testTriangleFaceNormal@physx@@YA_NABVTriangleV@Gu@1@ABUPolygonalData@31@PAV?$SupportLocalImpl@VTriangleV@Gu@physx@@@31@PAVSupportLocal@31@ABT__m128@@AAT7@AAI5W4FeatureStatus@31@AAW4831@@Z 1012fd30 f   GuPCMTriangleContactGen.obj
 0001:00133080       ?addBatchManifoldContactsToSingleManifold@@YA?AT__m128@@PAVSinglePersistentContactManifold@Gu@physx@@PAVMeshPersistentContact@34@IPAUPCMContactPatch@34@ABT1@E@Z 10134080 f   GuPersistentContactManifold.obj
 0001:00133280       ?distancePointTriangleSquaredLocal@Gu@physx@@YA?AT__m128@@ABT3@000@Z 10134280 f   GuPersistentContactManifold.obj
 0001:001335f0       ?drawManifoldPoint@@YAXABVPersistentContact@Gu@physx@@ABVPsTransformV@aos@shdfnd@3@1AAVRenderOutput@Cm@3@I@Z 101345f0 f   GuPersistentContactManifold.obj
 0001:00133cb0       ?drawManifoldPoint@@YAXABVPersistentContact@Gu@physx@@ABVPsTransformV@aos@shdfnd@3@1ABT__m128@@AAVRenderOutput@Cm@3@I@Z 10134cb0 f   GuPersistentContactManifold.obj
 0001:00137380       ?inflateTriangle@@YA?AVPxTriangle@physx@@ABV12@M@Z 10138380 f   GuSweepBoxTriangle_FeatureBased.obj
 0001:001382a0       ?extrudeBox@@YAIABVPxBounds3@physx@@PBVPxTransform@2@ABVPxVec3@2@PAVPxTriangle@2@2@Z 101392a0 f   GuSweepCapsuleBox.obj
 0001:00138790       ?extrudeMesh@@YAIIPBVPxTriangle@physx@@ABVPxVec3@2@PAV12@PAI1@Z 10139790 f   GuSweepCapsuleBox.obj
 0001:0013a540       ?edgeEdgeDist@@YAXAAVPxVec3@physx@@0ABV12@111@Z 1013b540 f   GuSweepCapsuleCapsule.obj
 0001:0013a7a0       ?rayQuad@@YA_NABVPxVec3@physx@@0000AAM11_N@Z 1013b7a0 f   GuSweepCapsuleCapsule.obj
 0001:00141a58       $LN685                     10142a58     GuSweepTriangleUtils.obj
 0001:00141a70       ?runBackupProcedure@@YA_NAAVPxVec3@physx@@0ABV12@1ABVPxTriangle@2@@Z 10142a70 f   GuSweepTriangleUtils.obj
 0001:0014211b       ?FLoadedAtPreferredAddress@@YG_NPAU_IMAGE_NT_HEADERS@@PAUHINSTANCE__@@@Z 1014311b f   Delayimp:delayhlp.obj
 0001:00142142       ?OverlayIAT@@YGXPAU_IMAGE_THUNK_DATA32@@PBU1@@Z 10143142 f   Delayimp:delayhlp.obj
 0001:00142178       ?PiddFromDllName@@YGPBUImgDelayDescr@@PBD@Z 10143178 f   Delayimp:delayhlp.obj
 0001:001421fd       ?PinhFromImageBase@@YGPAU_IMAGE_NT_HEADERS@@PAUHINSTANCE__@@@Z 101431fd f   Delayimp:delayhlp.obj
 0001:0014220e       ?TimeStampOfImage@@YGKPAU_IMAGE_NT_HEADERS@@@Z 1014320e f   Delayimp:delayhlp.obj
 0001:0014221d       ?__memcmp@@YGHPBX0I@Z      1014321d f   Delayimp:delayhlp.obj
 0001:00142250       ?__memcpy@@YGPAXPAXPBXI@Z  10143250 f   Delayimp:delayhlp.obj
 0001:00142279       ?__strlen@@YGIPBD@Z        10143279 f   Delayimp:delayhlp.obj
 0001:00142660       $$000000                   10143660     MSVCRT:ftol3.obj
 0001:00142a30       $$000000                   10143a30     MSVCRT:chkstk.obj
 0001:00142a60       $$000000                   10143a60     MSVCRT:svml_ssinf4_dispatch.obj
 0001:00142ad0       $$000000                   10143ad0     MSVCRT:alloca16.obj
 0001:00142afc       ?dllmain_crt_dispatch@@YGHQAUHINSTANCE__@@KQAX@Z 10143afc f   MSVCRT:dll_dllmain.obj
 0001:00142b4f       ?dllmain_crt_process_attach@@YAHQAUHINSTANCE__@@QAX@Z 10143b4f f   MSVCRT:dll_dllmain.obj
 0001:00142c59       ?dllmain_crt_process_detach@@YAH_N@Z 10143c59 f   MSVCRT:dll_dllmain.obj
 0001:00142ceb       ?dllmain_dispatch@@YAHQAUHINSTANCE__@@KQAX@Z 10143ceb f   MSVCRT:dll_dllmain.obj
 0001:00142df1       ?dllmain_raw@@YGHQAUHINSTANCE__@@KQAX@Z 10143df1 f   MSVCRT:dll_dllmain.obj
 0001:00142e80       $$000000                   10143e80     MSVCRT:svml_ssinf4_sse2.obj
 0001:00143040       ___get_entropy             10144040 f   MSVCRT:gs_support.obj
 0001:0014316e       ?find_pe_section@@YAPAU_IMAGE_SECTION_HEADER@@QAEI@Z 1014416e f   MSVCRT:utility.obj
 0001:001431b7       ?is_potentially_valid_image_base@@YA_NQAX@Z 101441b7 f   MSVCRT:utility.obj
 0001:00143780       $$000000                   10144780     MSVCRT:sehprolg4.obj
 0001:00143800       $$000000                   10144800     MSVCRT:svml_dtrig.obj
 0001:00143af0       ___common_srl              10144af0 f   MSVCRT:svml_dtrig.obj
 0001:00143b20       ___common_sll              10144b20 f   MSVCRT:svml_dtrig.obj
 0002:000000e4       ?minFError$initializer$@_VecMathTests@aos@shdfnd@physx@@3P6AXXZA 101460e4     GuBounds.obj
 0002:000000e8       ?maxFError$initializer$@_VecMathTests@aos@shdfnd@physx@@3P6AXXZA 101460e8     GuBounds.obj
 0002:000000ec       ?minV3Error$initializer$@_VecMathTests@aos@shdfnd@physx@@3P6AXXZA 101460ec     GuBounds.obj
 0002:000000f0       ?maxV3Error$initializer$@_VecMathTests@aos@shdfnd@physx@@3P6AXXZA 101460f0     GuBounds.obj
 0002:000000f4       ?minV4Error$initializer$@_VecMathTests@aos@shdfnd@physx@@3P6AXXZA 101460f4     GuBounds.obj
 0002:000000f8       ?maxV4Error$initializer$@_VecMathTests@aos@shdfnd@physx@@3P6AXXZA 101460f8     GuBounds.obj
 0002:000000fc       ?minFError$initializer$@_VecMathTests@aos@shdfnd@physx@@3P6AXXZA 101460fc     GuBox.obj
 0002:00000100       ?maxFError$initializer$@_VecMathTests@aos@shdfnd@physx@@3P6AXXZA 10146100     GuBox.obj
 0002:00000104       ?minV3Error$initializer$@_VecMathTests@aos@shdfnd@physx@@3P6AXXZA 10146104     GuBox.obj
 0002:00000108       ?maxV3Error$initializer$@_VecMathTests@aos@shdfnd@physx@@3P6AXXZA 10146108     GuBox.obj
 0002:0000010c       ?minV4Error$initializer$@_VecMathTests@aos@shdfnd@physx@@3P6AXXZA 1014610c     GuBox.obj
 0002:00000110       ?maxV4Error$initializer$@_VecMathTests@aos@shdfnd@physx@@3P6AXXZA 10146110     GuBox.obj
 0002:00000114       ?minFError$initializer$@_VecMathTests@aos@shdfnd@physx@@3P6AXXZA 10146114     GuCCTSweepTests.obj
 0002:00000118       ?maxFError$initializer$@_VecMathTests@aos@shdfnd@physx@@3P6AXXZA 10146118     GuCCTSweepTests.obj
 0002:0000011c       ?minV3Error$initializer$@_VecMathTests@aos@shdfnd@physx@@3P6AXXZA 1014611c     GuCCTSweepTests.obj
 0002:00000120       ?maxV3Error$initializer$@_VecMathTests@aos@shdfnd@physx@@3P6AXXZA 10146120     GuCCTSweepTests.obj
 0002:00000124       ?minV4Error$initializer$@_VecMathTests@aos@shdfnd@physx@@3P6AXXZA 10146124     GuCCTSweepTests.obj
 0002:00000128       ?maxV4Error$initializer$@_VecMathTests@aos@shdfnd@physx@@3P6AXXZA 10146128     GuCCTSweepTests.obj
 0002:0000012c       ?minFError$initializer$@_VecMathTests@aos@shdfnd@physx@@3P6AXXZA 1014612c     GuGeometryQuery.obj
 0002:00000130       ?maxFError$initializer$@_VecMathTests@aos@shdfnd@physx@@3P6AXXZA 10146130     GuGeometryQuery.obj
 0002:00000134       ?minV3Error$initializer$@_VecMathTests@aos@shdfnd@physx@@3P6AXXZA 10146134     GuGeometryQuery.obj
 0002:00000138       ?maxV3Error$initializer$@_VecMathTests@aos@shdfnd@physx@@3P6AXXZA 10146138     GuGeometryQuery.obj
 0002:0000013c       ?minV4Error$initializer$@_VecMathTests@aos@shdfnd@physx@@3P6AXXZA 1014613c     GuGeometryQuery.obj
 0002:00000140       ?maxV4Error$initializer$@_VecMathTests@aos@shdfnd@physx@@3P6AXXZA 10146140     GuGeometryQuery.obj
 0002:00000144       ?minFError$initializer$@_VecMathTests@aos@shdfnd@physx@@3P6AXXZA 10146144     GuGeometryUnion.obj
 0002:00000148       ?maxFError$initializer$@_VecMathTests@aos@shdfnd@physx@@3P6AXXZA 10146148     GuGeometryUnion.obj
 0002:0000014c       ?minV3Error$initializer$@_VecMathTests@aos@shdfnd@physx@@3P6AXXZA 1014614c     GuGeometryUnion.obj
 0002:00000150       ?maxV3Error$initializer$@_VecMathTests@aos@shdfnd@physx@@3P6AXXZA 10146150     GuGeometryUnion.obj
 0002:00000154       ?minV4Error$initializer$@_VecMathTests@aos@shdfnd@physx@@3P6AXXZA 10146154     GuGeometryUnion.obj
 0002:00000158       ?maxV4Error$initializer$@_VecMathTests@aos@shdfnd@physx@@3P6AXXZA 10146158     GuGeometryUnion.obj
 0002:0000015c       ?minFError$initializer$@_VecMathTests@aos@shdfnd@physx@@3P6AXXZA 1014615c     GuInternal.obj
 0002:00000160       ?maxFError$initializer$@_VecMathTests@aos@shdfnd@physx@@3P6AXXZA 10146160     GuInternal.obj
 0002:00000164       ?minV3Error$initializer$@_VecMathTests@aos@shdfnd@physx@@3P6AXXZA 10146164     GuInternal.obj
 0002:00000168       ?maxV3Error$initializer$@_VecMathTests@aos@shdfnd@physx@@3P6AXXZA 10146168     GuInternal.obj
 0002:0000016c       ?minV4Error$initializer$@_VecMathTests@aos@shdfnd@physx@@3P6AXXZA 1014616c     GuInternal.obj
 0002:00000170       ?maxV4Error$initializer$@_VecMathTests@aos@shdfnd@physx@@3P6AXXZA 10146170     GuInternal.obj
 0002:00000174       ?minFError$initializer$@_VecMathTests@aos@shdfnd@physx@@3P6AXXZA 10146174     GuMeshFactory.obj
 0002:00000178       ?maxFError$initializer$@_VecMathTests@aos@shdfnd@physx@@3P6AXXZA 10146178     GuMeshFactory.obj
 0002:0000017c       ?minV3Error$initializer$@_VecMathTests@aos@shdfnd@physx@@3P6AXXZA 1014617c     GuMeshFactory.obj
 0002:00000180       ?maxV3Error$initializer$@_VecMathTests@aos@shdfnd@physx@@3P6AXXZA 10146180     GuMeshFactory.obj
 0002:00000184       ?minV4Error$initializer$@_VecMathTests@aos@shdfnd@physx@@3P6AXXZA 10146184     GuMeshFactory.obj
 0002:00000188       ?maxV4Error$initializer$@_VecMathTests@aos@shdfnd@physx@@3P6AXXZA 10146188     GuMeshFactory.obj
 0002:0000018c       ?minFError$initializer$@_VecMathTests@aos@shdfnd@physx@@3P6AXXZA 1014618c     GuMetaData.obj
 0002:00000190       ?maxFError$initializer$@_VecMathTests@aos@shdfnd@physx@@3P6AXXZA 10146190     GuMetaData.obj
 0002:00000194       ?minV3Error$initializer$@_VecMathTests@aos@shdfnd@physx@@3P6AXXZA 10146194     GuMetaData.obj
 0002:00000198       ?maxV3Error$initializer$@_VecMathTests@aos@shdfnd@physx@@3P6AXXZA 10146198     GuMetaData.obj
 0002:0000019c       ?minV4Error$initializer$@_VecMathTests@aos@shdfnd@physx@@3P6AXXZA 1014619c     GuMetaData.obj
 0002:000001a0       ?maxV4Error$initializer$@_VecMathTests@aos@shdfnd@physx@@3P6AXXZA 101461a0     GuMetaData.obj
 0002:000001a4       ?minFError$initializer$@_VecMathTests@aos@shdfnd@physx@@3P6AXXZA 101461a4     GuMTD.obj
 0002:000001a8       ?maxFError$initializer$@_VecMathTests@aos@shdfnd@physx@@3P6AXXZA 101461a8     GuMTD.obj
 0002:000001ac       ?minV3Error$initializer$@_VecMathTests@aos@shdfnd@physx@@3P6AXXZA 101461ac     GuMTD.obj
 0002:000001b0       ?maxV3Error$initializer$@_VecMathTests@aos@shdfnd@physx@@3P6AXXZA 101461b0     GuMTD.obj
 0002:000001b4       ?minV4Error$initializer$@_VecMathTests@aos@shdfnd@physx@@3P6AXXZA 101461b4     GuMTD.obj
 0002:000001b8       ?maxV4Error$initializer$@_VecMathTests@aos@shdfnd@physx@@3P6AXXZA 101461b8     GuMTD.obj
 0002:000001bc       ?minFError$initializer$@_VecMathTests@aos@shdfnd@physx@@3P6AXXZA 101461bc     GuOverlapTests.obj
 0002:000001c0       ?maxFError$initializer$@_VecMathTests@aos@shdfnd@physx@@3P6AXXZA 101461c0     GuOverlapTests.obj
 0002:000001c4       ?minV3Error$initializer$@_VecMathTests@aos@shdfnd@physx@@3P6AXXZA 101461c4     GuOverlapTests.obj
 0002:000001c8       ?maxV3Error$initializer$@_VecMathTests@aos@shdfnd@physx@@3P6AXXZA 101461c8     GuOverlapTests.obj
 0002:000001cc       ?minV4Error$initializer$@_VecMathTests@aos@shdfnd@physx@@3P6AXXZA 101461cc     GuOverlapTests.obj
 0002:000001d0       ?maxV4Error$initializer$@_VecMathTests@aos@shdfnd@physx@@3P6AXXZA 101461d0     GuOverlapTests.obj
 0002:000001d4       ?minFError$initializer$@_VecMathTests@aos@shdfnd@physx@@3P6AXXZA 101461d4     GuRaycastTests.obj
 0002:000001d8       ?maxFError$initializer$@_VecMathTests@aos@shdfnd@physx@@3P6AXXZA 101461d8     GuRaycastTests.obj
 0002:000001dc       ?minV3Error$initializer$@_VecMathTests@aos@shdfnd@physx@@3P6AXXZA 101461dc     GuRaycastTests.obj
 0002:000001e0       ?maxV3Error$initializer$@_VecMathTests@aos@shdfnd@physx@@3P6AXXZA 101461e0     GuRaycastTests.obj
 0002:000001e4       ?minV4Error$initializer$@_VecMathTests@aos@shdfnd@physx@@3P6AXXZA 101461e4     GuRaycastTests.obj
 0002:000001e8       ?maxV4Error$initializer$@_VecMathTests@aos@shdfnd@physx@@3P6AXXZA 101461e8     GuRaycastTests.obj
 0002:000001ec       ?minFError$initializer$@_VecMathTests@aos@shdfnd@physx@@3P6AXXZA 101461ec     GuSweepMTD.obj
 0002:000001f0       ?maxFError$initializer$@_VecMathTests@aos@shdfnd@physx@@3P6AXXZA 101461f0     GuSweepMTD.obj
 0002:000001f4       ?minV3Error$initializer$@_VecMathTests@aos@shdfnd@physx@@3P6AXXZA 101461f4     GuSweepMTD.obj
 0002:000001f8       ?maxV3Error$initializer$@_VecMathTests@aos@shdfnd@physx@@3P6AXXZA 101461f8     GuSweepMTD.obj
 0002:000001fc       ?minV4Error$initializer$@_VecMathTests@aos@shdfnd@physx@@3P6AXXZA 101461fc     GuSweepMTD.obj
 0002:00000200       ?maxV4Error$initializer$@_VecMathTests@aos@shdfnd@physx@@3P6AXXZA 10146200     GuSweepMTD.obj
 0002:00000204       ?minFError$initializer$@_VecMathTests@aos@shdfnd@physx@@3P6AXXZA 10146204     GuSweepSharedTests.obj
 0002:00000208       ?maxFError$initializer$@_VecMathTests@aos@shdfnd@physx@@3P6AXXZA 10146208     GuSweepSharedTests.obj
 0002:0000020c       ?minV3Error$initializer$@_VecMathTests@aos@shdfnd@physx@@3P6AXXZA 1014620c     GuSweepSharedTests.obj
 0002:00000210       ?maxV3Error$initializer$@_VecMathTests@aos@shdfnd@physx@@3P6AXXZA 10146210     GuSweepSharedTests.obj
 0002:00000214       ?minV4Error$initializer$@_VecMathTests@aos@shdfnd@physx@@3P6AXXZA 10146214     GuSweepSharedTests.obj
 0002:00000218       ?maxV4Error$initializer$@_VecMathTests@aos@shdfnd@physx@@3P6AXXZA 10146218     GuSweepSharedTests.obj
 0002:0000021c       ?minFError$initializer$@_VecMathTests@aos@shdfnd@physx@@3P6AXXZA 1014621c     GuSweepTests.obj
 0002:00000220       ?maxFError$initializer$@_VecMathTests@aos@shdfnd@physx@@3P6AXXZA 10146220     GuSweepTests.obj
 0002:00000224       ?minV3Error$initializer$@_VecMathTests@aos@shdfnd@physx@@3P6AXXZA 10146224     GuSweepTests.obj
 0002:00000228       ?maxV3Error$initializer$@_VecMathTests@aos@shdfnd@physx@@3P6AXXZA 10146228     GuSweepTests.obj
 0002:0000022c       ?minV4Error$initializer$@_VecMathTests@aos@shdfnd@physx@@3P6AXXZA 1014622c     GuSweepTests.obj
 0002:00000230       ?maxV4Error$initializer$@_VecMathTests@aos@shdfnd@physx@@3P6AXXZA 10146230     GuSweepTests.obj
 0002:00000234       ?minFError$initializer$@_VecMathTests@aos@shdfnd@physx@@3P6AXXZA 10146234     GuAABBTreeBuild.obj
 0002:00000238       ?maxFError$initializer$@_VecMathTests@aos@shdfnd@physx@@3P6AXXZA 10146238     GuAABBTreeBuild.obj
 0002:0000023c       ?minV3Error$initializer$@_VecMathTests@aos@shdfnd@physx@@3P6AXXZA 1014623c     GuAABBTreeBuild.obj
 0002:00000240       ?maxV3Error$initializer$@_VecMathTests@aos@shdfnd@physx@@3P6AXXZA 10146240     GuAABBTreeBuild.obj
 0002:00000244       ?minV4Error$initializer$@_VecMathTests@aos@shdfnd@physx@@3P6AXXZA 10146244     GuAABBTreeBuild.obj
 0002:00000248       ?maxV4Error$initializer$@_VecMathTests@aos@shdfnd@physx@@3P6AXXZA 10146248     GuAABBTreeBuild.obj
 0002:0000024c       ?minFError$initializer$@_VecMathTests@aos@shdfnd@physx@@3P6AXXZA 1014624c     GuBVHStructure.obj
 0002:00000250       ?maxFError$initializer$@_VecMathTests@aos@shdfnd@physx@@3P6AXXZA 10146250     GuBVHStructure.obj
 0002:00000254       ?minV3Error$initializer$@_VecMathTests@aos@shdfnd@physx@@3P6AXXZA 10146254     GuBVHStructure.obj
 0002:00000258       ?maxV3Error$initializer$@_VecMathTests@aos@shdfnd@physx@@3P6AXXZA 10146258     GuBVHStructure.obj
 0002:0000025c       ?minV4Error$initializer$@_VecMathTests@aos@shdfnd@physx@@3P6AXXZA 1014625c     GuBVHStructure.obj
 0002:00000260       ?maxV4Error$initializer$@_VecMathTests@aos@shdfnd@physx@@3P6AXXZA 10146260     GuBVHStructure.obj
 0002:00000264       ?minFError$initializer$@_VecMathTests@aos@shdfnd@physx@@3P6AXXZA 10146264     GuCCDSweepConvexMesh.obj
 0002:00000268       ?maxFError$initializer$@_VecMathTests@aos@shdfnd@physx@@3P6AXXZA 10146268     GuCCDSweepConvexMesh.obj
 0002:0000026c       ?minV3Error$initializer$@_VecMathTests@aos@shdfnd@physx@@3P6AXXZA 1014626c     GuCCDSweepConvexMesh.obj
 0002:00000270       ?maxV3Error$initializer$@_VecMathTests@aos@shdfnd@physx@@3P6AXXZA 10146270     GuCCDSweepConvexMesh.obj
 0002:00000274       ?minV4Error$initializer$@_VecMathTests@aos@shdfnd@physx@@3P6AXXZA 10146274     GuCCDSweepConvexMesh.obj
 0002:00000278       ?maxV4Error$initializer$@_VecMathTests@aos@shdfnd@physx@@3P6AXXZA 10146278     GuCCDSweepConvexMesh.obj
 0002:0000027c       ?minFError$initializer$@_VecMathTests@aos@shdfnd@physx@@3P6AXXZA 1014627c     GuCCDSweepPrimitives.obj
 0002:00000280       ?maxFError$initializer$@_VecMathTests@aos@shdfnd@physx@@3P6AXXZA 10146280     GuCCDSweepPrimitives.obj
 0002:00000284       ?minV3Error$initializer$@_VecMathTests@aos@shdfnd@physx@@3P6AXXZA 10146284     GuCCDSweepPrimitives.obj
 0002:00000288       ?maxV3Error$initializer$@_VecMathTests@aos@shdfnd@physx@@3P6AXXZA 10146288     GuCCDSweepPrimitives.obj
 0002:0000028c       ?minV4Error$initializer$@_VecMathTests@aos@shdfnd@physx@@3P6AXXZA 1014628c     GuCCDSweepPrimitives.obj
 0002:00000290       ?maxV4Error$initializer$@_VecMathTests@aos@shdfnd@physx@@3P6AXXZA 10146290     GuCCDSweepPrimitives.obj
 0002:00000294       ?minFError$initializer$@_VecMathTests@aos@shdfnd@physx@@3P6AXXZA 10146294     GuBarycentricCoordinates.obj
 0002:00000298       ?maxFError$initializer$@_VecMathTests@aos@shdfnd@physx@@3P6AXXZA 10146298     GuBarycentricCoordinates.obj
 0002:0000029c       ?minV3Error$initializer$@_VecMathTests@aos@shdfnd@physx@@3P6AXXZA 1014629c     GuBarycentricCoordinates.obj
 0002:000002a0       ?maxV3Error$initializer$@_VecMathTests@aos@shdfnd@physx@@3P6AXXZA 101462a0     GuBarycentricCoordinates.obj
 0002:000002a4       ?minV4Error$initializer$@_VecMathTests@aos@shdfnd@physx@@3P6AXXZA 101462a4     GuBarycentricCoordinates.obj
 0002:000002a8       ?maxV4Error$initializer$@_VecMathTests@aos@shdfnd@physx@@3P6AXXZA 101462a8     GuBarycentricCoordinates.obj
 0002:000002ac       ?minFError$initializer$@_VecMathTests@aos@shdfnd@physx@@3P6AXXZA 101462ac     GuContactBoxBox.obj
 0002:000002b0       ?maxFError$initializer$@_VecMathTests@aos@shdfnd@physx@@3P6AXXZA 101462b0     GuContactBoxBox.obj
 0002:000002b4       ?minV3Error$initializer$@_VecMathTests@aos@shdfnd@physx@@3P6AXXZA 101462b4     GuContactBoxBox.obj
 0002:000002b8       ?maxV3Error$initializer$@_VecMathTests@aos@shdfnd@physx@@3P6AXXZA 101462b8     GuContactBoxBox.obj
 0002:000002bc       ?minV4Error$initializer$@_VecMathTests@aos@shdfnd@physx@@3P6AXXZA 101462bc     GuContactBoxBox.obj
 0002:000002c0       ?maxV4Error$initializer$@_VecMathTests@aos@shdfnd@physx@@3P6AXXZA 101462c0     GuContactBoxBox.obj
 0002:000002c4       ?minFError$initializer$@_VecMathTests@aos@shdfnd@physx@@3P6AXXZA 101462c4     GuContactCapsuleBox.obj
 0002:000002c8       ?maxFError$initializer$@_VecMathTests@aos@shdfnd@physx@@3P6AXXZA 101462c8     GuContactCapsuleBox.obj
 0002:000002cc       ?minV3Error$initializer$@_VecMathTests@aos@shdfnd@physx@@3P6AXXZA 101462cc     GuContactCapsuleBox.obj
 0002:000002d0       ?maxV3Error$initializer$@_VecMathTests@aos@shdfnd@physx@@3P6AXXZA 101462d0     GuContactCapsuleBox.obj
 0002:000002d4       ?minV4Error$initializer$@_VecMathTests@aos@shdfnd@physx@@3P6AXXZA 101462d4     GuContactCapsuleBox.obj
 0002:000002d8       ?maxV4Error$initializer$@_VecMathTests@aos@shdfnd@physx@@3P6AXXZA 101462d8     GuContactCapsuleBox.obj
 0002:000002dc       ?minFError$initializer$@_VecMathTests@aos@shdfnd@physx@@3P6AXXZA 101462dc     GuContactCapsuleCapsule.obj
 0002:000002e0       ?maxFError$initializer$@_VecMathTests@aos@shdfnd@physx@@3P6AXXZA 101462e0     GuContactCapsuleCapsule.obj
 0002:000002e4       ?minV3Error$initializer$@_VecMathTests@aos@shdfnd@physx@@3P6AXXZA 101462e4     GuContactCapsuleCapsule.obj
 0002:000002e8       ?maxV3Error$initializer$@_VecMathTests@aos@shdfnd@physx@@3P6AXXZA 101462e8     GuContactCapsuleCapsule.obj
 0002:000002ec       ?minV4Error$initializer$@_VecMathTests@aos@shdfnd@physx@@3P6AXXZA 101462ec     GuContactCapsuleCapsule.obj
 0002:000002f0       ?maxV4Error$initializer$@_VecMathTests@aos@shdfnd@physx@@3P6AXXZA 101462f0     GuContactCapsuleCapsule.obj
 0002:000002f4       ?minFError$initializer$@_VecMathTests@aos@shdfnd@physx@@3P6AXXZA 101462f4     GuContactCapsuleConvex.obj
 0002:000002f8       ?maxFError$initializer$@_VecMathTests@aos@shdfnd@physx@@3P6AXXZA 101462f8     GuContactCapsuleConvex.obj
 0002:000002fc       ?minV3Error$initializer$@_VecMathTests@aos@shdfnd@physx@@3P6AXXZA 101462fc     GuContactCapsuleConvex.obj
 0002:00000300       ?maxV3Error$initializer$@_VecMathTests@aos@shdfnd@physx@@3P6AXXZA 10146300     GuContactCapsuleConvex.obj
 0002:00000304       ?minV4Error$initializer$@_VecMathTests@aos@shdfnd@physx@@3P6AXXZA 10146304     GuContactCapsuleConvex.obj
 0002:00000308       ?maxV4Error$initializer$@_VecMathTests@aos@shdfnd@physx@@3P6AXXZA 10146308     GuContactCapsuleConvex.obj
 0002:0000030c       ?minFError$initializer$@_VecMathTests@aos@shdfnd@physx@@3P6AXXZA 1014630c     GuContactCapsuleMesh.obj
 0002:00000310       ?maxFError$initializer$@_VecMathTests@aos@shdfnd@physx@@3P6AXXZA 10146310     GuContactCapsuleMesh.obj
 0002:00000314       ?minV3Error$initializer$@_VecMathTests@aos@shdfnd@physx@@3P6AXXZA 10146314     GuContactCapsuleMesh.obj
 0002:00000318       ?maxV3Error$initializer$@_VecMathTests@aos@shdfnd@physx@@3P6AXXZA 10146318     GuContactCapsuleMesh.obj
 0002:0000031c       ?minV4Error$initializer$@_VecMathTests@aos@shdfnd@physx@@3P6AXXZA 1014631c     GuContactCapsuleMesh.obj
 0002:00000320       ?maxV4Error$initializer$@_VecMathTests@aos@shdfnd@physx@@3P6AXXZA 10146320     GuContactCapsuleMesh.obj
 0002:00000324       ?minFError$initializer$@_VecMathTests@aos@shdfnd@physx@@3P6AXXZA 10146324     GuContactConvexConvex.obj
 0002:00000328       ?maxFError$initializer$@_VecMathTests@aos@shdfnd@physx@@3P6AXXZA 10146328     GuContactConvexConvex.obj
 0002:0000032c       ?minV3Error$initializer$@_VecMathTests@aos@shdfnd@physx@@3P6AXXZA 1014632c     GuContactConvexConvex.obj
 0002:00000330       ?maxV3Error$initializer$@_VecMathTests@aos@shdfnd@physx@@3P6AXXZA 10146330     GuContactConvexConvex.obj
 0002:00000334       ?minV4Error$initializer$@_VecMathTests@aos@shdfnd@physx@@3P6AXXZA 10146334     GuContactConvexConvex.obj
 0002:00000338       ?maxV4Error$initializer$@_VecMathTests@aos@shdfnd@physx@@3P6AXXZA 10146338     GuContactConvexConvex.obj
 0002:0000033c       ?minFError$initializer$@_VecMathTests@aos@shdfnd@physx@@3P6AXXZA 1014633c     GuContactConvexMesh.obj
 0002:00000340       ?maxFError$initializer$@_VecMathTests@aos@shdfnd@physx@@3P6AXXZA 10146340     GuContactConvexMesh.obj
 0002:00000344       ?minV3Error$initializer$@_VecMathTests@aos@shdfnd@physx@@3P6AXXZA 10146344     GuContactConvexMesh.obj
 0002:00000348       ?maxV3Error$initializer$@_VecMathTests@aos@shdfnd@physx@@3P6AXXZA 10146348     GuContactConvexMesh.obj
 0002:0000034c       ?minV4Error$initializer$@_VecMathTests@aos@shdfnd@physx@@3P6AXXZA 1014634c     GuContactConvexMesh.obj
 0002:00000350       ?maxV4Error$initializer$@_VecMathTests@aos@shdfnd@physx@@3P6AXXZA 10146350     GuContactConvexMesh.obj
 0002:00000354       ?minFError$initializer$@_VecMathTests@aos@shdfnd@physx@@3P6AXXZA 10146354     GuContactPlaneBox.obj
 0002:00000358       ?maxFError$initializer$@_VecMathTests@aos@shdfnd@physx@@3P6AXXZA 10146358     GuContactPlaneBox.obj
 0002:0000035c       ?minV3Error$initializer$@_VecMathTests@aos@shdfnd@physx@@3P6AXXZA 1014635c     GuContactPlaneBox.obj
 0002:00000360       ?maxV3Error$initializer$@_VecMathTests@aos@shdfnd@physx@@3P6AXXZA 10146360     GuContactPlaneBox.obj
 0002:00000364       ?minV4Error$initializer$@_VecMathTests@aos@shdfnd@physx@@3P6AXXZA 10146364     GuContactPlaneBox.obj
 0002:00000368       ?maxV4Error$initializer$@_VecMathTests@aos@shdfnd@physx@@3P6AXXZA 10146368     GuContactPlaneBox.obj
 0002:0000036c       ?minFError$initializer$@_VecMathTests@aos@shdfnd@physx@@3P6AXXZA 1014636c     GuContactPlaneCapsule.obj
 0002:00000370       ?maxFError$initializer$@_VecMathTests@aos@shdfnd@physx@@3P6AXXZA 10146370     GuContactPlaneCapsule.obj
 0002:00000374       ?minV3Error$initializer$@_VecMathTests@aos@shdfnd@physx@@3P6AXXZA 10146374     GuContactPlaneCapsule.obj
 0002:00000378       ?maxV3Error$initializer$@_VecMathTests@aos@shdfnd@physx@@3P6AXXZA 10146378     GuContactPlaneCapsule.obj
 0002:0000037c       ?minV4Error$initializer$@_VecMathTests@aos@shdfnd@physx@@3P6AXXZA 1014637c     GuContactPlaneCapsule.obj
 0002:00000380       ?maxV4Error$initializer$@_VecMathTests@aos@shdfnd@physx@@3P6AXXZA 10146380     GuContactPlaneCapsule.obj
 0002:00000384       ?minFError$initializer$@_VecMathTests@aos@shdfnd@physx@@3P6AXXZA 10146384     GuContactPlaneConvex.obj
 0002:00000388       ?maxFError$initializer$@_VecMathTests@aos@shdfnd@physx@@3P6AXXZA 10146388     GuContactPlaneConvex.obj
 0002:0000038c       ?minV3Error$initializer$@_VecMathTests@aos@shdfnd@physx@@3P6AXXZA 1014638c     GuContactPlaneConvex.obj
 0002:00000390       ?maxV3Error$initializer$@_VecMathTests@aos@shdfnd@physx@@3P6AXXZA 10146390     GuContactPlaneConvex.obj
 0002:00000394       ?minV4Error$initializer$@_VecMathTests@aos@shdfnd@physx@@3P6AXXZA 10146394     GuContactPlaneConvex.obj
 0002:00000398       ?maxV4Error$initializer$@_VecMathTests@aos@shdfnd@physx@@3P6AXXZA 10146398     GuContactPlaneConvex.obj
 0002:0000039c       ?minFError$initializer$@_VecMathTests@aos@shdfnd@physx@@3P6AXXZA 1014639c     GuContactSphereBox.obj
 0002:000003a0       ?maxFError$initializer$@_VecMathTests@aos@shdfnd@physx@@3P6AXXZA 101463a0     GuContactSphereBox.obj
 0002:000003a4       ?minV3Error$initializer$@_VecMathTests@aos@shdfnd@physx@@3P6AXXZA 101463a4     GuContactSphereBox.obj
 0002:000003a8       ?maxV3Error$initializer$@_VecMathTests@aos@shdfnd@physx@@3P6AXXZA 101463a8     GuContactSphereBox.obj
 0002:000003ac       ?minV4Error$initializer$@_VecMathTests@aos@shdfnd@physx@@3P6AXXZA 101463ac     GuContactSphereBox.obj
 0002:000003b0       ?maxV4Error$initializer$@_VecMathTests@aos@shdfnd@physx@@3P6AXXZA 101463b0     GuContactSphereBox.obj
 0002:000003b4       ?minFError$initializer$@_VecMathTests@aos@shdfnd@physx@@3P6AXXZA 101463b4     GuContactSphereCapsule.obj
 0002:000003b8       ?maxFError$initializer$@_VecMathTests@aos@shdfnd@physx@@3P6AXXZA 101463b8     GuContactSphereCapsule.obj
 0002:000003bc       ?minV3Error$initializer$@_VecMathTests@aos@shdfnd@physx@@3P6AXXZA 101463bc     GuContactSphereCapsule.obj
 0002:000003c0       ?maxV3Error$initializer$@_VecMathTests@aos@shdfnd@physx@@3P6AXXZA 101463c0     GuContactSphereCapsule.obj
 0002:000003c4       ?minV4Error$initializer$@_VecMathTests@aos@shdfnd@physx@@3P6AXXZA 101463c4     GuContactSphereCapsule.obj
 0002:000003c8       ?maxV4Error$initializer$@_VecMathTests@aos@shdfnd@physx@@3P6AXXZA 101463c8     GuContactSphereCapsule.obj
 0002:000003cc       ?minFError$initializer$@_VecMathTests@aos@shdfnd@physx@@3P6AXXZA 101463cc     GuContactSphereMesh.obj
 0002:000003d0       ?maxFError$initializer$@_VecMathTests@aos@shdfnd@physx@@3P6AXXZA 101463d0     GuContactSphereMesh.obj
 0002:000003d4       ?minV3Error$initializer$@_VecMathTests@aos@shdfnd@physx@@3P6AXXZA 101463d4     GuContactSphereMesh.obj
 0002:000003d8       ?maxV3Error$initializer$@_VecMathTests@aos@shdfnd@physx@@3P6AXXZA 101463d8     GuContactSphereMesh.obj
 0002:000003dc       ?minV4Error$initializer$@_VecMathTests@aos@shdfnd@physx@@3P6AXXZA 101463dc     GuContactSphereMesh.obj
 0002:000003e0       ?maxV4Error$initializer$@_VecMathTests@aos@shdfnd@physx@@3P6AXXZA 101463e0     GuContactSphereMesh.obj
 0002:000003e4       ?minFError$initializer$@_VecMathTests@aos@shdfnd@physx@@3P6AXXZA 101463e4     GuContactSpherePlane.obj
 0002:000003e8       ?maxFError$initializer$@_VecMathTests@aos@shdfnd@physx@@3P6AXXZA 101463e8     GuContactSpherePlane.obj
 0002:000003ec       ?minV3Error$initializer$@_VecMathTests@aos@shdfnd@physx@@3P6AXXZA 101463ec     GuContactSpherePlane.obj
 0002:000003f0       ?maxV3Error$initializer$@_VecMathTests@aos@shdfnd@physx@@3P6AXXZA 101463f0     GuContactSpherePlane.obj
 0002:000003f4       ?minV4Error$initializer$@_VecMathTests@aos@shdfnd@physx@@3P6AXXZA 101463f4     GuContactSpherePlane.obj
 0002:000003f8       ?maxV4Error$initializer$@_VecMathTests@aos@shdfnd@physx@@3P6AXXZA 101463f8     GuContactSpherePlane.obj
 0002:000003fc       ?minFError$initializer$@_VecMathTests@aos@shdfnd@physx@@3P6AXXZA 101463fc     GuContactSphereSphere.obj
 0002:00000400       ?maxFError$initializer$@_VecMathTests@aos@shdfnd@physx@@3P6AXXZA 10146400     GuContactSphereSphere.obj
 0002:00000404       ?minV3Error$initializer$@_VecMathTests@aos@shdfnd@physx@@3P6AXXZA 10146404     GuContactSphereSphere.obj
 0002:00000408       ?maxV3Error$initializer$@_VecMathTests@aos@shdfnd@physx@@3P6AXXZA 10146408     GuContactSphereSphere.obj
 0002:0000040c       ?minV4Error$initializer$@_VecMathTests@aos@shdfnd@physx@@3P6AXXZA 1014640c     GuContactSphereSphere.obj
 0002:00000410       ?maxV4Error$initializer$@_VecMathTests@aos@shdfnd@physx@@3P6AXXZA 10146410     GuContactSphereSphere.obj
 0002:00000414       ?minFError$initializer$@_VecMathTests@aos@shdfnd@physx@@3P6AXXZA 10146414     GuConvexHelper.obj
 0002:00000418       ?maxFError$initializer$@_VecMathTests@aos@shdfnd@physx@@3P6AXXZA 10146418     GuConvexHelper.obj
 0002:0000041c       ?minV3Error$initializer$@_VecMathTests@aos@shdfnd@physx@@3P6AXXZA 1014641c     GuConvexHelper.obj
 0002:00000420       ?maxV3Error$initializer$@_VecMathTests@aos@shdfnd@physx@@3P6AXXZA 10146420     GuConvexHelper.obj
 0002:00000424       ?minV4Error$initializer$@_VecMathTests@aos@shdfnd@physx@@3P6AXXZA 10146424     GuConvexHelper.obj
 0002:00000428       ?maxV4Error$initializer$@_VecMathTests@aos@shdfnd@physx@@3P6AXXZA 10146428     GuConvexHelper.obj
 0002:0000042c       ?minFError$initializer$@_VecMathTests@aos@shdfnd@physx@@3P6AXXZA 1014642c     GuConvexSupportTable.obj
 0002:00000430       ?maxFError$initializer$@_VecMathTests@aos@shdfnd@physx@@3P6AXXZA 10146430     GuConvexSupportTable.obj
 0002:00000434       ?minV3Error$initializer$@_VecMathTests@aos@shdfnd@physx@@3P6AXXZA 10146434     GuConvexSupportTable.obj
 0002:00000438       ?maxV3Error$initializer$@_VecMathTests@aos@shdfnd@physx@@3P6AXXZA 10146438     GuConvexSupportTable.obj
 0002:0000043c       ?minV4Error$initializer$@_VecMathTests@aos@shdfnd@physx@@3P6AXXZA 1014643c     GuConvexSupportTable.obj
 0002:00000440       ?maxV4Error$initializer$@_VecMathTests@aos@shdfnd@physx@@3P6AXXZA 10146440     GuConvexSupportTable.obj
 0002:00000444       ?boxVertexTable$initializer$@physx@@3P6AXXZA 10146444     GuConvexSupportTable.obj
 0002:00000448       ?minFError$initializer$@_VecMathTests@aos@shdfnd@physx@@3P6AXXZA 10146448     GuConvexUtilsInternal.obj
 0002:0000044c       ?maxFError$initializer$@_VecMathTests@aos@shdfnd@physx@@3P6AXXZA 1014644c     GuConvexUtilsInternal.obj
 0002:00000450       ?minV3Error$initializer$@_VecMathTests@aos@shdfnd@physx@@3P6AXXZA 10146450     GuConvexUtilsInternal.obj
 0002:00000454       ?maxV3Error$initializer$@_VecMathTests@aos@shdfnd@physx@@3P6AXXZA 10146454     GuConvexUtilsInternal.obj
 0002:00000458       ?minV4Error$initializer$@_VecMathTests@aos@shdfnd@physx@@3P6AXXZA 10146458     GuConvexUtilsInternal.obj
 0002:0000045c       ?maxV4Error$initializer$@_VecMathTests@aos@shdfnd@physx@@3P6AXXZA 1014645c     GuConvexUtilsInternal.obj
 0002:00000460       ?minFError$initializer$@_VecMathTests@aos@shdfnd@physx@@3P6AXXZA 10146460     GuDistancePointTriangle.obj
 0002:00000464       ?maxFError$initializer$@_VecMathTests@aos@shdfnd@physx@@3P6AXXZA 10146464     GuDistancePointTriangle.obj
 0002:00000468       ?minV3Error$initializer$@_VecMathTests@aos@shdfnd@physx@@3P6AXXZA 10146468     GuDistancePointTriangle.obj
 0002:0000046c       ?maxV3Error$initializer$@_VecMathTests@aos@shdfnd@physx@@3P6AXXZA 1014646c     GuDistancePointTriangle.obj
 0002:00000470       ?minV4Error$initializer$@_VecMathTests@aos@shdfnd@physx@@3P6AXXZA 10146470     GuDistancePointTriangle.obj
 0002:00000474       ?maxV4Error$initializer$@_VecMathTests@aos@shdfnd@physx@@3P6AXXZA 10146474     GuDistancePointTriangle.obj
 0002:00000478       ?minFError$initializer$@_VecMathTests@aos@shdfnd@physx@@3P6AXXZA 10146478     GuDistanceSegmentSegment.obj
 0002:0000047c       ?maxFError$initializer$@_VecMathTests@aos@shdfnd@physx@@3P6AXXZA 1014647c     GuDistanceSegmentSegment.obj
 0002:00000480       ?minV3Error$initializer$@_VecMathTests@aos@shdfnd@physx@@3P6AXXZA 10146480     GuDistanceSegmentSegment.obj
 0002:00000484       ?maxV3Error$initializer$@_VecMathTests@aos@shdfnd@physx@@3P6AXXZA 10146484     GuDistanceSegmentSegment.obj
 0002:00000488       ?minV4Error$initializer$@_VecMathTests@aos@shdfnd@physx@@3P6AXXZA 10146488     GuDistanceSegmentSegment.obj
 0002:0000048c       ?maxV4Error$initializer$@_VecMathTests@aos@shdfnd@physx@@3P6AXXZA 1014648c     GuDistanceSegmentSegment.obj
 0002:00000490       ?minFError$initializer$@_VecMathTests@aos@shdfnd@physx@@3P6AXXZA 10146490     GuDistanceSegmentTriangle.obj
 0002:00000494       ?maxFError$initializer$@_VecMathTests@aos@shdfnd@physx@@3P6AXXZA 10146494     GuDistanceSegmentTriangle.obj
 0002:00000498       ?minV3Error$initializer$@_VecMathTests@aos@shdfnd@physx@@3P6AXXZA 10146498     GuDistanceSegmentTriangle.obj
 0002:0000049c       ?maxV3Error$initializer$@_VecMathTests@aos@shdfnd@physx@@3P6AXXZA 1014649c     GuDistanceSegmentTriangle.obj
 0002:000004a0       ?minV4Error$initializer$@_VecMathTests@aos@shdfnd@physx@@3P6AXXZA 101464a0     GuDistanceSegmentTriangle.obj
 0002:000004a4       ?maxV4Error$initializer$@_VecMathTests@aos@shdfnd@physx@@3P6AXXZA 101464a4     GuDistanceSegmentTriangle.obj
 0002:000004a8       ?minFError$initializer$@_VecMathTests@aos@shdfnd@physx@@3P6AXXZA 101464a8     GuEPA.obj
 0002:000004ac       ?maxFError$initializer$@_VecMathTests@aos@shdfnd@physx@@3P6AXXZA 101464ac     GuEPA.obj
 0002:000004b0       ?minV3Error$initializer$@_VecMathTests@aos@shdfnd@physx@@3P6AXXZA 101464b0     GuEPA.obj
 0002:000004b4       ?maxV3Error$initializer$@_VecMathTests@aos@shdfnd@physx@@3P6AXXZA 101464b4     GuEPA.obj
 0002:000004b8       ?minV4Error$initializer$@_VecMathTests@aos@shdfnd@physx@@3P6AXXZA 101464b8     GuEPA.obj
 0002:000004bc       ?maxV4Error$initializer$@_VecMathTests@aos@shdfnd@physx@@3P6AXXZA 101464bc     GuEPA.obj
 0002:000004c0       ?minFError$initializer$@_VecMathTests@aos@shdfnd@physx@@3P6AXXZA 101464c0     GuGJKSimplex.obj
 0002:000004c4       ?maxFError$initializer$@_VecMathTests@aos@shdfnd@physx@@3P6AXXZA 101464c4     GuGJKSimplex.obj
 0002:000004c8       ?minV3Error$initializer$@_VecMathTests@aos@shdfnd@physx@@3P6AXXZA 101464c8     GuGJKSimplex.obj
 0002:000004cc       ?maxV3Error$initializer$@_VecMathTests@aos@shdfnd@physx@@3P6AXXZA 101464cc     GuGJKSimplex.obj
 0002:000004d0       ?minV4Error$initializer$@_VecMathTests@aos@shdfnd@physx@@3P6AXXZA 101464d0     GuGJKSimplex.obj
 0002:000004d4       ?maxV4Error$initializer$@_VecMathTests@aos@shdfnd@physx@@3P6AXXZA 101464d4     GuGJKSimplex.obj
 0002:000004d8       ?minFError$initializer$@_VecMathTests@aos@shdfnd@physx@@3P6AXXZA 101464d8     GuGJKTest.obj
 0002:000004dc       ?maxFError$initializer$@_VecMathTests@aos@shdfnd@physx@@3P6AXXZA 101464dc     GuGJKTest.obj
 0002:000004e0       ?minV3Error$initializer$@_VecMathTests@aos@shdfnd@physx@@3P6AXXZA 101464e0     GuGJKTest.obj
 0002:000004e4       ?maxV3Error$initializer$@_VecMathTests@aos@shdfnd@physx@@3P6AXXZA 101464e4     GuGJKTest.obj
 0002:000004e8       ?minV4Error$initializer$@_VecMathTests@aos@shdfnd@physx@@3P6AXXZA 101464e8     GuGJKTest.obj
 0002:000004ec       ?maxV4Error$initializer$@_VecMathTests@aos@shdfnd@physx@@3P6AXXZA 101464ec     GuGJKTest.obj
 0002:000004f0       ?minFError$initializer$@_VecMathTests@aos@shdfnd@physx@@3P6AXXZA 101464f0     GuHeightFieldUtil.obj
 0002:000004f4       ?maxFError$initializer$@_VecMathTests@aos@shdfnd@physx@@3P6AXXZA 101464f4     GuHeightFieldUtil.obj
 0002:000004f8       ?minV3Error$initializer$@_VecMathTests@aos@shdfnd@physx@@3P6AXXZA 101464f8     GuHeightFieldUtil.obj
 0002:000004fc       ?maxV3Error$initializer$@_VecMathTests@aos@shdfnd@physx@@3P6AXXZA 101464fc     GuHeightFieldUtil.obj
 0002:00000500       ?minV4Error$initializer$@_VecMathTests@aos@shdfnd@physx@@3P6AXXZA 10146500     GuHeightFieldUtil.obj
 0002:00000504       ?maxV4Error$initializer$@_VecMathTests@aos@shdfnd@physx@@3P6AXXZA 10146504     GuHeightFieldUtil.obj
 0002:00000508       ?minFError$initializer$@_VecMathTests@aos@shdfnd@physx@@3P6AXXZA 10146508     GuOverlapTestsHF.obj
 0002:0000050c       ?maxFError$initializer$@_VecMathTests@aos@shdfnd@physx@@3P6AXXZA 1014650c     GuOverlapTestsHF.obj
 0002:00000510       ?minV3Error$initializer$@_VecMathTests@aos@shdfnd@physx@@3P6AXXZA 10146510     GuOverlapTestsHF.obj
 0002:00000514       ?maxV3Error$initializer$@_VecMathTests@aos@shdfnd@physx@@3P6AXXZA 10146514     GuOverlapTestsHF.obj
 0002:00000518       ?minV4Error$initializer$@_VecMathTests@aos@shdfnd@physx@@3P6AXXZA 10146518     GuOverlapTestsHF.obj
 0002:0000051c       ?maxV4Error$initializer$@_VecMathTests@aos@shdfnd@physx@@3P6AXXZA 1014651c     GuOverlapTestsHF.obj
 0002:00000520       ?minFError$initializer$@_VecMathTests@aos@shdfnd@physx@@3P6AXXZA 10146520     GuSweepsHF.obj
 0002:00000524       ?maxFError$initializer$@_VecMathTests@aos@shdfnd@physx@@3P6AXXZA 10146524     GuSweepsHF.obj
 0002:00000528       ?minV3Error$initializer$@_VecMathTests@aos@shdfnd@physx@@3P6AXXZA 10146528     GuSweepsHF.obj
 0002:0000052c       ?maxV3Error$initializer$@_VecMathTests@aos@shdfnd@physx@@3P6AXXZA 1014652c     GuSweepsHF.obj
 0002:00000530       ?minV4Error$initializer$@_VecMathTests@aos@shdfnd@physx@@3P6AXXZA 10146530     GuSweepsHF.obj
 0002:00000534       ?maxV4Error$initializer$@_VecMathTests@aos@shdfnd@physx@@3P6AXXZA 10146534     GuSweepsHF.obj
 0002:00000538       ?minFError$initializer$@_VecMathTests@aos@shdfnd@physx@@3P6AXXZA 10146538     GuIntersectionRayBox.obj
 0002:0000053c       ?maxFError$initializer$@_VecMathTests@aos@shdfnd@physx@@3P6AXXZA 1014653c     GuIntersectionRayBox.obj
 0002:00000540       ?minV3Error$initializer$@_VecMathTests@aos@shdfnd@physx@@3P6AXXZA 10146540     GuIntersectionRayBox.obj
 0002:00000544       ?maxV3Error$initializer$@_VecMathTests@aos@shdfnd@physx@@3P6AXXZA 10146544     GuIntersectionRayBox.obj
 0002:00000548       ?minV4Error$initializer$@_VecMathTests@aos@shdfnd@physx@@3P6AXXZA 10146548     GuIntersectionRayBox.obj
 0002:0000054c       ?maxV4Error$initializer$@_VecMathTests@aos@shdfnd@physx@@3P6AXXZA 1014654c     GuIntersectionRayBox.obj
 0002:00000550       ?minFError$initializer$@_VecMathTests@aos@shdfnd@physx@@3P6AXXZA 10146550     GuIntersectionTriangleBox.obj
 0002:00000554       ?maxFError$initializer$@_VecMathTests@aos@shdfnd@physx@@3P6AXXZA 10146554     GuIntersectionTriangleBox.obj
 0002:00000558       ?minV3Error$initializer$@_VecMathTests@aos@shdfnd@physx@@3P6AXXZA 10146558     GuIntersectionTriangleBox.obj
 0002:0000055c       ?maxV3Error$initializer$@_VecMathTests@aos@shdfnd@physx@@3P6AXXZA 1014655c     GuIntersectionTriangleBox.obj
 0002:00000560       ?minV4Error$initializer$@_VecMathTests@aos@shdfnd@physx@@3P6AXXZA 10146560     GuIntersectionTriangleBox.obj
 0002:00000564       ?maxV4Error$initializer$@_VecMathTests@aos@shdfnd@physx@@3P6AXXZA 10146564     GuIntersectionTriangleBox.obj
 0002:00000568       ?signV$initializer$@@3P6AXXZA 10146568     GuIntersectionTriangleBox.obj
 0002:0000056c       ?minFError$initializer$@_VecMathTests@aos@shdfnd@physx@@3P6AXXZA 1014656c     GuBV4.obj
 0002:00000570       ?maxFError$initializer$@_VecMathTests@aos@shdfnd@physx@@3P6AXXZA 10146570     GuBV4.obj
 0002:00000574       ?minV3Error$initializer$@_VecMathTests@aos@shdfnd@physx@@3P6AXXZA 10146574     GuBV4.obj
 0002:00000578       ?maxV3Error$initializer$@_VecMathTests@aos@shdfnd@physx@@3P6AXXZA 10146578     GuBV4.obj
 0002:0000057c       ?minV4Error$initializer$@_VecMathTests@aos@shdfnd@physx@@3P6AXXZA 1014657c     GuBV4.obj
 0002:00000580       ?maxV4Error$initializer$@_VecMathTests@aos@shdfnd@physx@@3P6AXXZA 10146580     GuBV4.obj
 0002:00000584       ?minFError$initializer$@_VecMathTests@aos@shdfnd@physx@@3P6AXXZA 10146584     GuBV4Build.obj
 0002:00000588       ?maxFError$initializer$@_VecMathTests@aos@shdfnd@physx@@3P6AXXZA 10146588     GuBV4Build.obj
 0002:0000058c       ?minV3Error$initializer$@_VecMathTests@aos@shdfnd@physx@@3P6AXXZA 1014658c     GuBV4Build.obj
 0002:00000590       ?maxV3Error$initializer$@_VecMathTests@aos@shdfnd@physx@@3P6AXXZA 10146590     GuBV4Build.obj
 0002:00000594       ?minV4Error$initializer$@_VecMathTests@aos@shdfnd@physx@@3P6AXXZA 10146594     GuBV4Build.obj
 0002:00000598       ?maxV4Error$initializer$@_VecMathTests@aos@shdfnd@physx@@3P6AXXZA 10146598     GuBV4Build.obj
 0002:0000059c       ?minFError$initializer$@_VecMathTests@aos@shdfnd@physx@@3P6AXXZA 1014659c     GuBV4_AABBSweep.obj
 0002:000005a0       ?maxFError$initializer$@_VecMathTests@aos@shdfnd@physx@@3P6AXXZA 101465a0     GuBV4_AABBSweep.obj
 0002:000005a4       ?minV3Error$initializer$@_VecMathTests@aos@shdfnd@physx@@3P6AXXZA 101465a4     GuBV4_AABBSweep.obj
 0002:000005a8       ?maxV3Error$initializer$@_VecMathTests@aos@shdfnd@physx@@3P6AXXZA 101465a8     GuBV4_AABBSweep.obj
 0002:000005ac       ?minV4Error$initializer$@_VecMathTests@aos@shdfnd@physx@@3P6AXXZA 101465ac     GuBV4_AABBSweep.obj
 0002:000005b0       ?maxV4Error$initializer$@_VecMathTests@aos@shdfnd@physx@@3P6AXXZA 101465b0     GuBV4_AABBSweep.obj
 0002:000005b4       ?signMask$initializer$@?A0xc24db68b@@3P6AXXZA 101465b4     GuBV4_AABBSweep.obj
 0002:000005b8       ?epsFloat4$initializer$@?A0xc24db68b@@3P6AXXZA 101465b8     GuBV4_AABBSweep.obj
 0002:000005bc       ?zeroes$initializer$@?A0xc24db68b@@3P6AXXZA 101465bc     GuBV4_AABBSweep.obj
 0002:000005c0       ?twos$initializer$@?A0xc24db68b@@3P6AXXZA 101465c0     GuBV4_AABBSweep.obj
 0002:000005c4       ?epsInflateFloat4$initializer$@?A0xc24db68b@@3P6AXXZA 101465c4     GuBV4_AABBSweep.obj
 0002:000005c8       ?minFError$initializer$@_VecMathTests@aos@shdfnd@physx@@3P6AXXZA 101465c8     GuBV4_BoxOverlap.obj
 0002:000005cc       ?maxFError$initializer$@_VecMathTests@aos@shdfnd@physx@@3P6AXXZA 101465cc     GuBV4_BoxOverlap.obj
 0002:000005d0       ?minV3Error$initializer$@_VecMathTests@aos@shdfnd@physx@@3P6AXXZA 101465d0     GuBV4_BoxOverlap.obj
 0002:000005d4       ?maxV3Error$initializer$@_VecMathTests@aos@shdfnd@physx@@3P6AXXZA 101465d4     GuBV4_BoxOverlap.obj
 0002:000005d8       ?minV4Error$initializer$@_VecMathTests@aos@shdfnd@physx@@3P6AXXZA 101465d8     GuBV4_BoxOverlap.obj
 0002:000005dc       ?maxV4Error$initializer$@_VecMathTests@aos@shdfnd@physx@@3P6AXXZA 101465dc     GuBV4_BoxOverlap.obj
 0002:000005e0       ?minFError$initializer$@_VecMathTests@aos@shdfnd@physx@@3P6AXXZA 101465e0     GuBV4_CapsuleSweep.obj
 0002:000005e4       ?maxFError$initializer$@_VecMathTests@aos@shdfnd@physx@@3P6AXXZA 101465e4     GuBV4_CapsuleSweep.obj
 0002:000005e8       ?minV3Error$initializer$@_VecMathTests@aos@shdfnd@physx@@3P6AXXZA 101465e8     GuBV4_CapsuleSweep.obj
 0002:000005ec       ?maxV3Error$initializer$@_VecMathTests@aos@shdfnd@physx@@3P6AXXZA 101465ec     GuBV4_CapsuleSweep.obj
 0002:000005f0       ?minV4Error$initializer$@_VecMathTests@aos@shdfnd@physx@@3P6AXXZA 101465f0     GuBV4_CapsuleSweep.obj
 0002:000005f4       ?maxV4Error$initializer$@_VecMathTests@aos@shdfnd@physx@@3P6AXXZA 101465f4     GuBV4_CapsuleSweep.obj
 0002:000005f8       ?minFError$initializer$@_VecMathTests@aos@shdfnd@physx@@3P6AXXZA 101465f8     GuBV4_CapsuleSweepAA.obj
 0002:000005fc       ?maxFError$initializer$@_VecMathTests@aos@shdfnd@physx@@3P6AXXZA 101465fc     GuBV4_CapsuleSweepAA.obj
 0002:00000600       ?minV3Error$initializer$@_VecMathTests@aos@shdfnd@physx@@3P6AXXZA 10146600     GuBV4_CapsuleSweepAA.obj
 0002:00000604       ?maxV3Error$initializer$@_VecMathTests@aos@shdfnd@physx@@3P6AXXZA 10146604     GuBV4_CapsuleSweepAA.obj
 0002:00000608       ?minV4Error$initializer$@_VecMathTests@aos@shdfnd@physx@@3P6AXXZA 10146608     GuBV4_CapsuleSweepAA.obj
 0002:0000060c       ?maxV4Error$initializer$@_VecMathTests@aos@shdfnd@physx@@3P6AXXZA 1014660c     GuBV4_CapsuleSweepAA.obj
 0002:00000610       ?signMask$initializer$@?A0x7ab40344@@3P6AXXZA 10146610     GuBV4_CapsuleSweepAA.obj
 0002:00000614       ?epsFloat4$initializer$@?A0x7ab40344@@3P6AXXZA 10146614     GuBV4_CapsuleSweepAA.obj
 0002:00000618       ?zeroes$initializer$@?A0x7ab40344@@3P6AXXZA 10146618     GuBV4_CapsuleSweepAA.obj
 0002:0000061c       ?twos$initializer$@?A0x7ab40344@@3P6AXXZA 1014661c     GuBV4_CapsuleSweepAA.obj
 0002:00000620       ?epsInflateFloat4$initializer$@?A0x7ab40344@@3P6AXXZA 10146620     GuBV4_CapsuleSweepAA.obj
 0002:00000624       ?minFError$initializer$@_VecMathTests@aos@shdfnd@physx@@3P6AXXZA 10146624     GuBV4_OBBSweep.obj
 0002:00000628       ?maxFError$initializer$@_VecMathTests@aos@shdfnd@physx@@3P6AXXZA 10146628     GuBV4_OBBSweep.obj
 0002:0000062c       ?minV3Error$initializer$@_VecMathTests@aos@shdfnd@physx@@3P6AXXZA 1014662c     GuBV4_OBBSweep.obj
 0002:00000630       ?maxV3Error$initializer$@_VecMathTests@aos@shdfnd@physx@@3P6AXXZA 10146630     GuBV4_OBBSweep.obj
 0002:00000634       ?minV4Error$initializer$@_VecMathTests@aos@shdfnd@physx@@3P6AXXZA 10146634     GuBV4_OBBSweep.obj
 0002:00000638       ?maxV4Error$initializer$@_VecMathTests@aos@shdfnd@physx@@3P6AXXZA 10146638     GuBV4_OBBSweep.obj
 0002:0000063c       ?minFError$initializer$@_VecMathTests@aos@shdfnd@physx@@3P6AXXZA 1014663c     GuBV4_Raycast.obj
 0002:00000640       ?maxFError$initializer$@_VecMathTests@aos@shdfnd@physx@@3P6AXXZA 10146640     GuBV4_Raycast.obj
 0002:00000644       ?minV3Error$initializer$@_VecMathTests@aos@shdfnd@physx@@3P6AXXZA 10146644     GuBV4_Raycast.obj
 0002:00000648       ?maxV3Error$initializer$@_VecMathTests@aos@shdfnd@physx@@3P6AXXZA 10146648     GuBV4_Raycast.obj
 0002:0000064c       ?minV4Error$initializer$@_VecMathTests@aos@shdfnd@physx@@3P6AXXZA 1014664c     GuBV4_Raycast.obj
 0002:00000650       ?maxV4Error$initializer$@_VecMathTests@aos@shdfnd@physx@@3P6AXXZA 10146650     GuBV4_Raycast.obj
 0002:00000654       ?signMask$initializer$@?A0x7d303ae7@@3P6AXXZA 10146654     GuBV4_Raycast.obj
 0002:00000658       ?epsFloat4$initializer$@?A0x7d303ae7@@3P6AXXZA 10146658     GuBV4_Raycast.obj
 0002:0000065c       ?zeroes$initializer$@?A0x7d303ae7@@3P6AXXZA 1014665c     GuBV4_Raycast.obj
 0002:00000660       ?twos$initializer$@?A0x7d303ae7@@3P6AXXZA 10146660     GuBV4_Raycast.obj
 0002:00000664       ?epsInflateFloat4$initializer$@?A0x7d303ae7@@3P6AXXZA 10146664     GuBV4_Raycast.obj
 0002:00000668       ?minFError$initializer$@_VecMathTests@aos@shdfnd@physx@@3P6AXXZA 10146668     GuBV4_SphereOverlap.obj
 0002:0000066c       ?maxFError$initializer$@_VecMathTests@aos@shdfnd@physx@@3P6AXXZA 1014666c     GuBV4_SphereOverlap.obj
 0002:00000670       ?minV3Error$initializer$@_VecMathTests@aos@shdfnd@physx@@3P6AXXZA 10146670     GuBV4_SphereOverlap.obj
 0002:00000674       ?maxV3Error$initializer$@_VecMathTests@aos@shdfnd@physx@@3P6AXXZA 10146674     GuBV4_SphereOverlap.obj
 0002:00000678       ?minV4Error$initializer$@_VecMathTests@aos@shdfnd@physx@@3P6AXXZA 10146678     GuBV4_SphereOverlap.obj
 0002:0000067c       ?maxV4Error$initializer$@_VecMathTests@aos@shdfnd@physx@@3P6AXXZA 1014667c     GuBV4_SphereOverlap.obj
 0002:00000680       ?minFError$initializer$@_VecMathTests@aos@shdfnd@physx@@3P6AXXZA 10146680     GuBV4_SphereSweep.obj
 0002:00000684       ?maxFError$initializer$@_VecMathTests@aos@shdfnd@physx@@3P6AXXZA 10146684     GuBV4_SphereSweep.obj
 0002:00000688       ?minV3Error$initializer$@_VecMathTests@aos@shdfnd@physx@@3P6AXXZA 10146688     GuBV4_SphereSweep.obj
 0002:0000068c       ?maxV3Error$initializer$@_VecMathTests@aos@shdfnd@physx@@3P6AXXZA 1014668c     GuBV4_SphereSweep.obj
 0002:00000690       ?minV4Error$initializer$@_VecMathTests@aos@shdfnd@physx@@3P6AXXZA 10146690     GuBV4_SphereSweep.obj
 0002:00000694       ?maxV4Error$initializer$@_VecMathTests@aos@shdfnd@physx@@3P6AXXZA 10146694     GuBV4_SphereSweep.obj
 0002:00000698       ?signMask$initializer$@?A0x45c24a54@@3P6AXXZA 10146698     GuBV4_SphereSweep.obj
 0002:0000069c       ?epsFloat4$initializer$@?A0x45c24a54@@3P6AXXZA 1014669c     GuBV4_SphereSweep.obj
 0002:000006a0       ?zeroes$initializer$@?A0x45c24a54@@3P6AXXZA 101466a0     GuBV4_SphereSweep.obj
 0002:000006a4       ?twos$initializer$@?A0x45c24a54@@3P6AXXZA 101466a4     GuBV4_SphereSweep.obj
 0002:000006a8       ?epsInflateFloat4$initializer$@?A0x45c24a54@@3P6AXXZA 101466a8     GuBV4_SphereSweep.obj
 0002:000006ac       ?minFError$initializer$@_VecMathTests@aos@shdfnd@physx@@3P6AXXZA 101466ac     GuMidphaseBV4.obj
 0002:000006b0       ?maxFError$initializer$@_VecMathTests@aos@shdfnd@physx@@3P6AXXZA 101466b0     GuMidphaseBV4.obj
 0002:000006b4       ?minV3Error$initializer$@_VecMathTests@aos@shdfnd@physx@@3P6AXXZA 101466b4     GuMidphaseBV4.obj
 0002:000006b8       ?maxV3Error$initializer$@_VecMathTests@aos@shdfnd@physx@@3P6AXXZA 101466b8     GuMidphaseBV4.obj
 0002:000006bc       ?minV4Error$initializer$@_VecMathTests@aos@shdfnd@physx@@3P6AXXZA 101466bc     GuMidphaseBV4.obj
 0002:000006c0       ?maxV4Error$initializer$@_VecMathTests@aos@shdfnd@physx@@3P6AXXZA 101466c0     GuMidphaseBV4.obj
 0002:000006c4       ?minFError$initializer$@_VecMathTests@aos@shdfnd@physx@@3P6AXXZA 101466c4     GuMeshQuery.obj
 0002:000006c8       ?maxFError$initializer$@_VecMathTests@aos@shdfnd@physx@@3P6AXXZA 101466c8     GuMeshQuery.obj
 0002:000006cc       ?minV3Error$initializer$@_VecMathTests@aos@shdfnd@physx@@3P6AXXZA 101466cc     GuMeshQuery.obj
 0002:000006d0       ?maxV3Error$initializer$@_VecMathTests@aos@shdfnd@physx@@3P6AXXZA 101466d0     GuMeshQuery.obj
 0002:000006d4       ?minV4Error$initializer$@_VecMathTests@aos@shdfnd@physx@@3P6AXXZA 101466d4     GuMeshQuery.obj
 0002:000006d8       ?maxV4Error$initializer$@_VecMathTests@aos@shdfnd@physx@@3P6AXXZA 101466d8     GuMeshQuery.obj
 0002:000006dc       ?minFError$initializer$@_VecMathTests@aos@shdfnd@physx@@3P6AXXZA 101466dc     GuMidphaseRTree.obj
 0002:000006e0       ?maxFError$initializer$@_VecMathTests@aos@shdfnd@physx@@3P6AXXZA 101466e0     GuMidphaseRTree.obj
 0002:000006e4       ?minV3Error$initializer$@_VecMathTests@aos@shdfnd@physx@@3P6AXXZA 101466e4     GuMidphaseRTree.obj
 0002:000006e8       ?maxV3Error$initializer$@_VecMathTests@aos@shdfnd@physx@@3P6AXXZA 101466e8     GuMidphaseRTree.obj
 0002:000006ec       ?minV4Error$initializer$@_VecMathTests@aos@shdfnd@physx@@3P6AXXZA 101466ec     GuMidphaseRTree.obj
 0002:000006f0       ?maxV4Error$initializer$@_VecMathTests@aos@shdfnd@physx@@3P6AXXZA 101466f0     GuMidphaseRTree.obj
 0002:000006f4       ?minFError$initializer$@_VecMathTests@aos@shdfnd@physx@@3P6AXXZA 101466f4     GuOverlapTestsMesh.obj
 0002:000006f8       ?maxFError$initializer$@_VecMathTests@aos@shdfnd@physx@@3P6AXXZA 101466f8     GuOverlapTestsMesh.obj
 0002:000006fc       ?minV3Error$initializer$@_VecMathTests@aos@shdfnd@physx@@3P6AXXZA 101466fc     GuOverlapTestsMesh.obj
 0002:00000700       ?maxV3Error$initializer$@_VecMathTests@aos@shdfnd@physx@@3P6AXXZA 10146700     GuOverlapTestsMesh.obj
 0002:00000704       ?minV4Error$initializer$@_VecMathTests@aos@shdfnd@physx@@3P6AXXZA 10146704     GuOverlapTestsMesh.obj
 0002:00000708       ?maxV4Error$initializer$@_VecMathTests@aos@shdfnd@physx@@3P6AXXZA 10146708     GuOverlapTestsMesh.obj
 0002:0000070c       ?minFError$initializer$@_VecMathTests@aos@shdfnd@physx@@3P6AXXZA 1014670c     GuRTree.obj
 0002:00000710       ?maxFError$initializer$@_VecMathTests@aos@shdfnd@physx@@3P6AXXZA 10146710     GuRTree.obj
 0002:00000714       ?minV3Error$initializer$@_VecMathTests@aos@shdfnd@physx@@3P6AXXZA 10146714     GuRTree.obj
 0002:00000718       ?maxV3Error$initializer$@_VecMathTests@aos@shdfnd@physx@@3P6AXXZA 10146718     GuRTree.obj
 0002:0000071c       ?minV4Error$initializer$@_VecMathTests@aos@shdfnd@physx@@3P6AXXZA 1014671c     GuRTree.obj
 0002:00000720       ?maxV4Error$initializer$@_VecMathTests@aos@shdfnd@physx@@3P6AXXZA 10146720     GuRTree.obj
 0002:00000724       ?minFError$initializer$@_VecMathTests@aos@shdfnd@physx@@3P6AXXZA 10146724     GuRTreeQueries.obj
 0002:00000728       ?maxFError$initializer$@_VecMathTests@aos@shdfnd@physx@@3P6AXXZA 10146728     GuRTreeQueries.obj
 0002:0000072c       ?minV3Error$initializer$@_VecMathTests@aos@shdfnd@physx@@3P6AXXZA 1014672c     GuRTreeQueries.obj
 0002:00000730       ?maxV3Error$initializer$@_VecMathTests@aos@shdfnd@physx@@3P6AXXZA 10146730     GuRTreeQueries.obj
 0002:00000734       ?minV4Error$initializer$@_VecMathTests@aos@shdfnd@physx@@3P6AXXZA 10146734     GuRTreeQueries.obj
 0002:00000738       ?maxV4Error$initializer$@_VecMathTests@aos@shdfnd@physx@@3P6AXXZA 10146738     GuRTreeQueries.obj
 0002:0000073c       ?signMask$initializer$@?A0x3915a7da@@3P6AXXZA 1014673c     GuRTreeQueries.obj
 0002:00000740       ?epsFloat4$initializer$@?A0x3915a7da@@3P6AXXZA 10146740     GuRTreeQueries.obj
 0002:00000744       ?zeroes$initializer$@?A0x3915a7da@@3P6AXXZA 10146744     GuRTreeQueries.obj
 0002:00000748       ?twos$initializer$@?A0x3915a7da@@3P6AXXZA 10146748     GuRTreeQueries.obj
 0002:0000074c       ?epsInflateFloat4$initializer$@?A0x3915a7da@@3P6AXXZA 1014674c     GuRTreeQueries.obj
 0002:00000750       ?minFError$initializer$@_VecMathTests@aos@shdfnd@physx@@3P6AXXZA 10146750     GuSweepsMesh.obj
 0002:00000754       ?maxFError$initializer$@_VecMathTests@aos@shdfnd@physx@@3P6AXXZA 10146754     GuSweepsMesh.obj
 0002:00000758       ?minV3Error$initializer$@_VecMathTests@aos@shdfnd@physx@@3P6AXXZA 10146758     GuSweepsMesh.obj
 0002:0000075c       ?maxV3Error$initializer$@_VecMathTests@aos@shdfnd@physx@@3P6AXXZA 1014675c     GuSweepsMesh.obj
 0002:00000760       ?minV4Error$initializer$@_VecMathTests@aos@shdfnd@physx@@3P6AXXZA 10146760     GuSweepsMesh.obj
 0002:00000764       ?maxV4Error$initializer$@_VecMathTests@aos@shdfnd@physx@@3P6AXXZA 10146764     GuSweepsMesh.obj
 0002:00000768       ?minFError$initializer$@_VecMathTests@aos@shdfnd@physx@@3P6AXXZA 10146768     GuTriangleMesh.obj
 0002:0000076c       ?maxFError$initializer$@_VecMathTests@aos@shdfnd@physx@@3P6AXXZA 1014676c     GuTriangleMesh.obj
 0002:00000770       ?minV3Error$initializer$@_VecMathTests@aos@shdfnd@physx@@3P6AXXZA 10146770     GuTriangleMesh.obj
 0002:00000774       ?maxV3Error$initializer$@_VecMathTests@aos@shdfnd@physx@@3P6AXXZA 10146774     GuTriangleMesh.obj
 0002:00000778       ?minV4Error$initializer$@_VecMathTests@aos@shdfnd@physx@@3P6AXXZA 10146778     GuTriangleMesh.obj
 0002:0000077c       ?maxV4Error$initializer$@_VecMathTests@aos@shdfnd@physx@@3P6AXXZA 1014677c     GuTriangleMesh.obj
 0002:00000780       ?minFError$initializer$@_VecMathTests@aos@shdfnd@physx@@3P6AXXZA 10146780     GuTriangleMeshBV4.obj
 0002:00000784       ?maxFError$initializer$@_VecMathTests@aos@shdfnd@physx@@3P6AXXZA 10146784     GuTriangleMeshBV4.obj
 0002:00000788       ?minV3Error$initializer$@_VecMathTests@aos@shdfnd@physx@@3P6AXXZA 10146788     GuTriangleMeshBV4.obj
 0002:0000078c       ?maxV3Error$initializer$@_VecMathTests@aos@shdfnd@physx@@3P6AXXZA 1014678c     GuTriangleMeshBV4.obj
 0002:00000790       ?minV4Error$initializer$@_VecMathTests@aos@shdfnd@physx@@3P6AXXZA 10146790     GuTriangleMeshBV4.obj
 0002:00000794       ?maxV4Error$initializer$@_VecMathTests@aos@shdfnd@physx@@3P6AXXZA 10146794     GuTriangleMeshBV4.obj
 0002:00000798       ?minFError$initializer$@_VecMathTests@aos@shdfnd@physx@@3P6AXXZA 10146798     GuTriangleMeshRTree.obj
 0002:0000079c       ?maxFError$initializer$@_VecMathTests@aos@shdfnd@physx@@3P6AXXZA 1014679c     GuTriangleMeshRTree.obj
 0002:000007a0       ?minV3Error$initializer$@_VecMathTests@aos@shdfnd@physx@@3P6AXXZA 101467a0     GuTriangleMeshRTree.obj
 0002:000007a4       ?maxV3Error$initializer$@_VecMathTests@aos@shdfnd@physx@@3P6AXXZA 101467a4     GuTriangleMeshRTree.obj
 0002:000007a8       ?minV4Error$initializer$@_VecMathTests@aos@shdfnd@physx@@3P6AXXZA 101467a8     GuTriangleMeshRTree.obj
 0002:000007ac       ?maxV4Error$initializer$@_VecMathTests@aos@shdfnd@physx@@3P6AXXZA 101467ac     GuTriangleMeshRTree.obj
 0002:000007b0       ?minFError$initializer$@_VecMathTests@aos@shdfnd@physx@@3P6AXXZA 101467b0     GuBV32Build.obj
 0002:000007b4       ?maxFError$initializer$@_VecMathTests@aos@shdfnd@physx@@3P6AXXZA 101467b4     GuBV32Build.obj
 0002:000007b8       ?minV3Error$initializer$@_VecMathTests@aos@shdfnd@physx@@3P6AXXZA 101467b8     GuBV32Build.obj
 0002:000007bc       ?maxV3Error$initializer$@_VecMathTests@aos@shdfnd@physx@@3P6AXXZA 101467bc     GuBV32Build.obj
 0002:000007c0       ?minV4Error$initializer$@_VecMathTests@aos@shdfnd@physx@@3P6AXXZA 101467c0     GuBV32Build.obj
 0002:000007c4       ?maxV4Error$initializer$@_VecMathTests@aos@shdfnd@physx@@3P6AXXZA 101467c4     GuBV32Build.obj
 0002:000007c8       ?minFError$initializer$@_VecMathTests@aos@shdfnd@physx@@3P6AXXZA 101467c8     GuPCMContactBoxBox.obj
 0002:000007cc       ?maxFError$initializer$@_VecMathTests@aos@shdfnd@physx@@3P6AXXZA 101467cc     GuPCMContactBoxBox.obj
 0002:000007d0       ?minV3Error$initializer$@_VecMathTests@aos@shdfnd@physx@@3P6AXXZA 101467d0     GuPCMContactBoxBox.obj
 0002:000007d4       ?maxV3Error$initializer$@_VecMathTests@aos@shdfnd@physx@@3P6AXXZA 101467d4     GuPCMContactBoxBox.obj
 0002:000007d8       ?minV4Error$initializer$@_VecMathTests@aos@shdfnd@physx@@3P6AXXZA 101467d8     GuPCMContactBoxBox.obj
 0002:000007dc       ?maxV4Error$initializer$@_VecMathTests@aos@shdfnd@physx@@3P6AXXZA 101467dc     GuPCMContactBoxBox.obj
 0002:000007e0       ?minFError$initializer$@_VecMathTests@aos@shdfnd@physx@@3P6AXXZA 101467e0     GuPCMContactBoxConvex.obj
 0002:000007e4       ?maxFError$initializer$@_VecMathTests@aos@shdfnd@physx@@3P6AXXZA 101467e4     GuPCMContactBoxConvex.obj
 0002:000007e8       ?minV3Error$initializer$@_VecMathTests@aos@shdfnd@physx@@3P6AXXZA 101467e8     GuPCMContactBoxConvex.obj
 0002:000007ec       ?maxV3Error$initializer$@_VecMathTests@aos@shdfnd@physx@@3P6AXXZA 101467ec     GuPCMContactBoxConvex.obj
 0002:000007f0       ?minV4Error$initializer$@_VecMathTests@aos@shdfnd@physx@@3P6AXXZA 101467f0     GuPCMContactBoxConvex.obj
 0002:000007f4       ?maxV4Error$initializer$@_VecMathTests@aos@shdfnd@physx@@3P6AXXZA 101467f4     GuPCMContactBoxConvex.obj
 0002:000007f8       ?minFError$initializer$@_VecMathTests@aos@shdfnd@physx@@3P6AXXZA 101467f8     GuPCMContactCapsuleBox.obj
 0002:000007fc       ?maxFError$initializer$@_VecMathTests@aos@shdfnd@physx@@3P6AXXZA 101467fc     GuPCMContactCapsuleBox.obj
 0002:00000800       ?minV3Error$initializer$@_VecMathTests@aos@shdfnd@physx@@3P6AXXZA 10146800     GuPCMContactCapsuleBox.obj
 0002:00000804       ?maxV3Error$initializer$@_VecMathTests@aos@shdfnd@physx@@3P6AXXZA 10146804     GuPCMContactCapsuleBox.obj
 0002:00000808       ?minV4Error$initializer$@_VecMathTests@aos@shdfnd@physx@@3P6AXXZA 10146808     GuPCMContactCapsuleBox.obj
 0002:0000080c       ?maxV4Error$initializer$@_VecMathTests@aos@shdfnd@physx@@3P6AXXZA 1014680c     GuPCMContactCapsuleBox.obj
 0002:00000810       ?minFError$initializer$@_VecMathTests@aos@shdfnd@physx@@3P6AXXZA 10146810     GuPCMContactCapsuleCapsule.obj
 0002:00000814       ?maxFError$initializer$@_VecMathTests@aos@shdfnd@physx@@3P6AXXZA 10146814     GuPCMContactCapsuleCapsule.obj
 0002:00000818       ?minV3Error$initializer$@_VecMathTests@aos@shdfnd@physx@@3P6AXXZA 10146818     GuPCMContactCapsuleCapsule.obj
 0002:0000081c       ?maxV3Error$initializer$@_VecMathTests@aos@shdfnd@physx@@3P6AXXZA 1014681c     GuPCMContactCapsuleCapsule.obj
 0002:00000820       ?minV4Error$initializer$@_VecMathTests@aos@shdfnd@physx@@3P6AXXZA 10146820     GuPCMContactCapsuleCapsule.obj
 0002:00000824       ?maxV4Error$initializer$@_VecMathTests@aos@shdfnd@physx@@3P6AXXZA 10146824     GuPCMContactCapsuleCapsule.obj
 0002:00000828       ?minFError$initializer$@_VecMathTests@aos@shdfnd@physx@@3P6AXXZA 10146828     GuPCMContactCapsuleConvex.obj
 0002:0000082c       ?maxFError$initializer$@_VecMathTests@aos@shdfnd@physx@@3P6AXXZA 1014682c     GuPCMContactCapsuleConvex.obj
 0002:00000830       ?minV3Error$initializer$@_VecMathTests@aos@shdfnd@physx@@3P6AXXZA 10146830     GuPCMContactCapsuleConvex.obj
 0002:00000834       ?maxV3Error$initializer$@_VecMathTests@aos@shdfnd@physx@@3P6AXXZA 10146834     GuPCMContactCapsuleConvex.obj
 0002:00000838       ?minV4Error$initializer$@_VecMathTests@aos@shdfnd@physx@@3P6AXXZA 10146838     GuPCMContactCapsuleConvex.obj
 0002:0000083c       ?maxV4Error$initializer$@_VecMathTests@aos@shdfnd@physx@@3P6AXXZA 1014683c     GuPCMContactCapsuleConvex.obj
 0002:00000840       ?minFError$initializer$@_VecMathTests@aos@shdfnd@physx@@3P6AXXZA 10146840     GuPCMContactCapsuleHeightField.obj
 0002:00000844       ?maxFError$initializer$@_VecMathTests@aos@shdfnd@physx@@3P6AXXZA 10146844     GuPCMContactCapsuleHeightField.obj
 0002:00000848       ?minV3Error$initializer$@_VecMathTests@aos@shdfnd@physx@@3P6AXXZA 10146848     GuPCMContactCapsuleHeightField.obj
 0002:0000084c       ?maxV3Error$initializer$@_VecMathTests@aos@shdfnd@physx@@3P6AXXZA 1014684c     GuPCMContactCapsuleHeightField.obj
 0002:00000850       ?minV4Error$initializer$@_VecMathTests@aos@shdfnd@physx@@3P6AXXZA 10146850     GuPCMContactCapsuleHeightField.obj
 0002:00000854       ?maxV4Error$initializer$@_VecMathTests@aos@shdfnd@physx@@3P6AXXZA 10146854     GuPCMContactCapsuleHeightField.obj
 0002:00000858       ?minFError$initializer$@_VecMathTests@aos@shdfnd@physx@@3P6AXXZA 10146858     GuPCMContactCapsuleMesh.obj
 0002:0000085c       ?maxFError$initializer$@_VecMathTests@aos@shdfnd@physx@@3P6AXXZA 1014685c     GuPCMContactCapsuleMesh.obj
 0002:00000860       ?minV3Error$initializer$@_VecMathTests@aos@shdfnd@physx@@3P6AXXZA 10146860     GuPCMContactCapsuleMesh.obj
 0002:00000864       ?maxV3Error$initializer$@_VecMathTests@aos@shdfnd@physx@@3P6AXXZA 10146864     GuPCMContactCapsuleMesh.obj
 0002:00000868       ?minV4Error$initializer$@_VecMathTests@aos@shdfnd@physx@@3P6AXXZA 10146868     GuPCMContactCapsuleMesh.obj
 0002:0000086c       ?maxV4Error$initializer$@_VecMathTests@aos@shdfnd@physx@@3P6AXXZA 1014686c     GuPCMContactCapsuleMesh.obj
 0002:00000870       ?minFError$initializer$@_VecMathTests@aos@shdfnd@physx@@3P6AXXZA 10146870     GuPCMContactConvexCommon.obj
 0002:00000874       ?maxFError$initializer$@_VecMathTests@aos@shdfnd@physx@@3P6AXXZA 10146874     GuPCMContactConvexCommon.obj
 0002:00000878       ?minV3Error$initializer$@_VecMathTests@aos@shdfnd@physx@@3P6AXXZA 10146878     GuPCMContactConvexCommon.obj
 0002:0000087c       ?maxV3Error$initializer$@_VecMathTests@aos@shdfnd@physx@@3P6AXXZA 1014687c     GuPCMContactConvexCommon.obj
 0002:00000880       ?minV4Error$initializer$@_VecMathTests@aos@shdfnd@physx@@3P6AXXZA 10146880     GuPCMContactConvexCommon.obj
 0002:00000884       ?maxV4Error$initializer$@_VecMathTests@aos@shdfnd@physx@@3P6AXXZA 10146884     GuPCMContactConvexCommon.obj
 0002:00000888       ?minFError$initializer$@_VecMathTests@aos@shdfnd@physx@@3P6AXXZA 10146888     GuPCMContactConvexConvex.obj
 0002:0000088c       ?maxFError$initializer$@_VecMathTests@aos@shdfnd@physx@@3P6AXXZA 1014688c     GuPCMContactConvexConvex.obj
 0002:00000890       ?minV3Error$initializer$@_VecMathTests@aos@shdfnd@physx@@3P6AXXZA 10146890     GuPCMContactConvexConvex.obj
 0002:00000894       ?maxV3Error$initializer$@_VecMathTests@aos@shdfnd@physx@@3P6AXXZA 10146894     GuPCMContactConvexConvex.obj
 0002:00000898       ?minV4Error$initializer$@_VecMathTests@aos@shdfnd@physx@@3P6AXXZA 10146898     GuPCMContactConvexConvex.obj
 0002:0000089c       ?maxV4Error$initializer$@_VecMathTests@aos@shdfnd@physx@@3P6AXXZA 1014689c     GuPCMContactConvexConvex.obj
 0002:000008a0       ?minFError$initializer$@_VecMathTests@aos@shdfnd@physx@@3P6AXXZA 101468a0     GuPCMContactConvexHeightField.obj
 0002:000008a4       ?maxFError$initializer$@_VecMathTests@aos@shdfnd@physx@@3P6AXXZA 101468a4     GuPCMContactConvexHeightField.obj
 0002:000008a8       ?minV3Error$initializer$@_VecMathTests@aos@shdfnd@physx@@3P6AXXZA 101468a8     GuPCMContactConvexHeightField.obj
 0002:000008ac       ?maxV3Error$initializer$@_VecMathTests@aos@shdfnd@physx@@3P6AXXZA 101468ac     GuPCMContactConvexHeightField.obj
 0002:000008b0       ?minV4Error$initializer$@_VecMathTests@aos@shdfnd@physx@@3P6AXXZA 101468b0     GuPCMContactConvexHeightField.obj
 0002:000008b4       ?maxV4Error$initializer$@_VecMathTests@aos@shdfnd@physx@@3P6AXXZA 101468b4     GuPCMContactConvexHeightField.obj
 0002:000008b8       ?minFError$initializer$@_VecMathTests@aos@shdfnd@physx@@3P6AXXZA 101468b8     GuPCMContactConvexMesh.obj
 0002:000008bc       ?maxFError$initializer$@_VecMathTests@aos@shdfnd@physx@@3P6AXXZA 101468bc     GuPCMContactConvexMesh.obj
 0002:000008c0       ?minV3Error$initializer$@_VecMathTests@aos@shdfnd@physx@@3P6AXXZA 101468c0     GuPCMContactConvexMesh.obj
 0002:000008c4       ?maxV3Error$initializer$@_VecMathTests@aos@shdfnd@physx@@3P6AXXZA 101468c4     GuPCMContactConvexMesh.obj
 0002:000008c8       ?minV4Error$initializer$@_VecMathTests@aos@shdfnd@physx@@3P6AXXZA 101468c8     GuPCMContactConvexMesh.obj
 0002:000008cc       ?maxV4Error$initializer$@_VecMathTests@aos@shdfnd@physx@@3P6AXXZA 101468cc     GuPCMContactConvexMesh.obj
 0002:000008d0       ?minFError$initializer$@_VecMathTests@aos@shdfnd@physx@@3P6AXXZA 101468d0     GuPCMContactGenBoxConvex.obj
 0002:000008d4       ?maxFError$initializer$@_VecMathTests@aos@shdfnd@physx@@3P6AXXZA 101468d4     GuPCMContactGenBoxConvex.obj
 0002:000008d8       ?minV3Error$initializer$@_VecMathTests@aos@shdfnd@physx@@3P6AXXZA 101468d8     GuPCMContactGenBoxConvex.obj
 0002:000008dc       ?maxV3Error$initializer$@_VecMathTests@aos@shdfnd@physx@@3P6AXXZA 101468dc     GuPCMContactGenBoxConvex.obj
 0002:000008e0       ?minV4Error$initializer$@_VecMathTests@aos@shdfnd@physx@@3P6AXXZA 101468e0     GuPCMContactGenBoxConvex.obj
 0002:000008e4       ?maxV4Error$initializer$@_VecMathTests@aos@shdfnd@physx@@3P6AXXZA 101468e4     GuPCMContactGenBoxConvex.obj
 0002:000008e8       ?minFError$initializer$@_VecMathTests@aos@shdfnd@physx@@3P6AXXZA 101468e8     GuPCMContactGenSphereCapsule.obj
 0002:000008ec       ?maxFError$initializer$@_VecMathTests@aos@shdfnd@physx@@3P6AXXZA 101468ec     GuPCMContactGenSphereCapsule.obj
 0002:000008f0       ?minV3Error$initializer$@_VecMathTests@aos@shdfnd@physx@@3P6AXXZA 101468f0     GuPCMContactGenSphereCapsule.obj
 0002:000008f4       ?maxV3Error$initializer$@_VecMathTests@aos@shdfnd@physx@@3P6AXXZA 101468f4     GuPCMContactGenSphereCapsule.obj
 0002:000008f8       ?minV4Error$initializer$@_VecMathTests@aos@shdfnd@physx@@3P6AXXZA 101468f8     GuPCMContactGenSphereCapsule.obj
 0002:000008fc       ?maxV4Error$initializer$@_VecMathTests@aos@shdfnd@physx@@3P6AXXZA 101468fc     GuPCMContactGenSphereCapsule.obj
 0002:00000900       ?minFError$initializer$@_VecMathTests@aos@shdfnd@physx@@3P6AXXZA 10146900     GuPCMContactPlaneBox.obj
 0002:00000904       ?maxFError$initializer$@_VecMathTests@aos@shdfnd@physx@@3P6AXXZA 10146904     GuPCMContactPlaneBox.obj
 0002:00000908       ?minV3Error$initializer$@_VecMathTests@aos@shdfnd@physx@@3P6AXXZA 10146908     GuPCMContactPlaneBox.obj
 0002:0000090c       ?maxV3Error$initializer$@_VecMathTests@aos@shdfnd@physx@@3P6AXXZA 1014690c     GuPCMContactPlaneBox.obj
 0002:00000910       ?minV4Error$initializer$@_VecMathTests@aos@shdfnd@physx@@3P6AXXZA 10146910     GuPCMContactPlaneBox.obj
 0002:00000914       ?maxV4Error$initializer$@_VecMathTests@aos@shdfnd@physx@@3P6AXXZA 10146914     GuPCMContactPlaneBox.obj
 0002:00000918       ?minFError$initializer$@_VecMathTests@aos@shdfnd@physx@@3P6AXXZA 10146918     GuPCMContactPlaneCapsule.obj
 0002:0000091c       ?maxFError$initializer$@_VecMathTests@aos@shdfnd@physx@@3P6AXXZA 1014691c     GuPCMContactPlaneCapsule.obj
 0002:00000920       ?minV3Error$initializer$@_VecMathTests@aos@shdfnd@physx@@3P6AXXZA 10146920     GuPCMContactPlaneCapsule.obj
 0002:00000924       ?maxV3Error$initializer$@_VecMathTests@aos@shdfnd@physx@@3P6AXXZA 10146924     GuPCMContactPlaneCapsule.obj
 0002:00000928       ?minV4Error$initializer$@_VecMathTests@aos@shdfnd@physx@@3P6AXXZA 10146928     GuPCMContactPlaneCapsule.obj
 0002:0000092c       ?maxV4Error$initializer$@_VecMathTests@aos@shdfnd@physx@@3P6AXXZA 1014692c     GuPCMContactPlaneCapsule.obj
 0002:00000930       ?minFError$initializer$@_VecMathTests@aos@shdfnd@physx@@3P6AXXZA 10146930     GuPCMContactPlaneConvex.obj
 0002:00000934       ?maxFError$initializer$@_VecMathTests@aos@shdfnd@physx@@3P6AXXZA 10146934     GuPCMContactPlaneConvex.obj
 0002:00000938       ?minV3Error$initializer$@_VecMathTests@aos@shdfnd@physx@@3P6AXXZA 10146938     GuPCMContactPlaneConvex.obj
 0002:0000093c       ?maxV3Error$initializer$@_VecMathTests@aos@shdfnd@physx@@3P6AXXZA 1014693c     GuPCMContactPlaneConvex.obj
 0002:00000940       ?minV4Error$initializer$@_VecMathTests@aos@shdfnd@physx@@3P6AXXZA 10146940     GuPCMContactPlaneConvex.obj
 0002:00000944       ?maxV4Error$initializer$@_VecMathTests@aos@shdfnd@physx@@3P6AXXZA 10146944     GuPCMContactPlaneConvex.obj
 0002:00000948       ?minFError$initializer$@_VecMathTests@aos@shdfnd@physx@@3P6AXXZA 10146948     GuPCMContactSphereBox.obj
 0002:0000094c       ?maxFError$initializer$@_VecMathTests@aos@shdfnd@physx@@3P6AXXZA 1014694c     GuPCMContactSphereBox.obj
 0002:00000950       ?minV3Error$initializer$@_VecMathTests@aos@shdfnd@physx@@3P6AXXZA 10146950     GuPCMContactSphereBox.obj
 0002:00000954       ?maxV3Error$initializer$@_VecMathTests@aos@shdfnd@physx@@3P6AXXZA 10146954     GuPCMContactSphereBox.obj
 0002:00000958       ?minV4Error$initializer$@_VecMathTests@aos@shdfnd@physx@@3P6AXXZA 10146958     GuPCMContactSphereBox.obj
 0002:0000095c       ?maxV4Error$initializer$@_VecMathTests@aos@shdfnd@physx@@3P6AXXZA 1014695c     GuPCMContactSphereBox.obj
 0002:00000960       ?minFError$initializer$@_VecMathTests@aos@shdfnd@physx@@3P6AXXZA 10146960     GuPCMContactSphereCapsule.obj
 0002:00000964       ?maxFError$initializer$@_VecMathTests@aos@shdfnd@physx@@3P6AXXZA 10146964     GuPCMContactSphereCapsule.obj
 0002:00000968       ?minV3Error$initializer$@_VecMathTests@aos@shdfnd@physx@@3P6AXXZA 10146968     GuPCMContactSphereCapsule.obj
 0002:0000096c       ?maxV3Error$initializer$@_VecMathTests@aos@shdfnd@physx@@3P6AXXZA 1014696c     GuPCMContactSphereCapsule.obj
 0002:00000970       ?minV4Error$initializer$@_VecMathTests@aos@shdfnd@physx@@3P6AXXZA 10146970     GuPCMContactSphereCapsule.obj
 0002:00000974       ?maxV4Error$initializer$@_VecMathTests@aos@shdfnd@physx@@3P6AXXZA 10146974     GuPCMContactSphereCapsule.obj
 0002:00000978       ?minFError$initializer$@_VecMathTests@aos@shdfnd@physx@@3P6AXXZA 10146978     GuPCMContactSphereConvex.obj
 0002:0000097c       ?maxFError$initializer$@_VecMathTests@aos@shdfnd@physx@@3P6AXXZA 1014697c     GuPCMContactSphereConvex.obj
 0002:00000980       ?minV3Error$initializer$@_VecMathTests@aos@shdfnd@physx@@3P6AXXZA 10146980     GuPCMContactSphereConvex.obj
 0002:00000984       ?maxV3Error$initializer$@_VecMathTests@aos@shdfnd@physx@@3P6AXXZA 10146984     GuPCMContactSphereConvex.obj
 0002:00000988       ?minV4Error$initializer$@_VecMathTests@aos@shdfnd@physx@@3P6AXXZA 10146988     GuPCMContactSphereConvex.obj
 0002:0000098c       ?maxV4Error$initializer$@_VecMathTests@aos@shdfnd@physx@@3P6AXXZA 1014698c     GuPCMContactSphereConvex.obj
 0002:00000990       ?minFError$initializer$@_VecMathTests@aos@shdfnd@physx@@3P6AXXZA 10146990     GuPCMContactSphereHeightField.obj
 0002:00000994       ?maxFError$initializer$@_VecMathTests@aos@shdfnd@physx@@3P6AXXZA 10146994     GuPCMContactSphereHeightField.obj
 0002:00000998       ?minV3Error$initializer$@_VecMathTests@aos@shdfnd@physx@@3P6AXXZA 10146998     GuPCMContactSphereHeightField.obj
 0002:0000099c       ?maxV3Error$initializer$@_VecMathTests@aos@shdfnd@physx@@3P6AXXZA 1014699c     GuPCMContactSphereHeightField.obj
 0002:000009a0       ?minV4Error$initializer$@_VecMathTests@aos@shdfnd@physx@@3P6AXXZA 101469a0     GuPCMContactSphereHeightField.obj
 0002:000009a4       ?maxV4Error$initializer$@_VecMathTests@aos@shdfnd@physx@@3P6AXXZA 101469a4     GuPCMContactSphereHeightField.obj
 0002:000009a8       ?minFError$initializer$@_VecMathTests@aos@shdfnd@physx@@3P6AXXZA 101469a8     GuPCMContactSphereMesh.obj
 0002:000009ac       ?maxFError$initializer$@_VecMathTests@aos@shdfnd@physx@@3P6AXXZA 101469ac     GuPCMContactSphereMesh.obj
 0002:000009b0       ?minV3Error$initializer$@_VecMathTests@aos@shdfnd@physx@@3P6AXXZA 101469b0     GuPCMContactSphereMesh.obj
 0002:000009b4       ?maxV3Error$initializer$@_VecMathTests@aos@shdfnd@physx@@3P6AXXZA 101469b4     GuPCMContactSphereMesh.obj
 0002:000009b8       ?minV4Error$initializer$@_VecMathTests@aos@shdfnd@physx@@3P6AXXZA 101469b8     GuPCMContactSphereMesh.obj
 0002:000009bc       ?maxV4Error$initializer$@_VecMathTests@aos@shdfnd@physx@@3P6AXXZA 101469bc     GuPCMContactSphereMesh.obj
 0002:000009c0       ?minFError$initializer$@_VecMathTests@aos@shdfnd@physx@@3P6AXXZA 101469c0     GuPCMContactSpherePlane.obj
 0002:000009c4       ?maxFError$initializer$@_VecMathTests@aos@shdfnd@physx@@3P6AXXZA 101469c4     GuPCMContactSpherePlane.obj
 0002:000009c8       ?minV3Error$initializer$@_VecMathTests@aos@shdfnd@physx@@3P6AXXZA 101469c8     GuPCMContactSpherePlane.obj
 0002:000009cc       ?maxV3Error$initializer$@_VecMathTests@aos@shdfnd@physx@@3P6AXXZA 101469cc     GuPCMContactSpherePlane.obj
 0002:000009d0       ?minV4Error$initializer$@_VecMathTests@aos@shdfnd@physx@@3P6AXXZA 101469d0     GuPCMContactSpherePlane.obj
 0002:000009d4       ?maxV4Error$initializer$@_VecMathTests@aos@shdfnd@physx@@3P6AXXZA 101469d4     GuPCMContactSpherePlane.obj
 0002:000009d8       ?minFError$initializer$@_VecMathTests@aos@shdfnd@physx@@3P6AXXZA 101469d8     GuPCMContactSphereSphere.obj
 0002:000009dc       ?maxFError$initializer$@_VecMathTests@aos@shdfnd@physx@@3P6AXXZA 101469dc     GuPCMContactSphereSphere.obj
 0002:000009e0       ?minV3Error$initializer$@_VecMathTests@aos@shdfnd@physx@@3P6AXXZA 101469e0     GuPCMContactSphereSphere.obj
 0002:000009e4       ?maxV3Error$initializer$@_VecMathTests@aos@shdfnd@physx@@3P6AXXZA 101469e4     GuPCMContactSphereSphere.obj
 0002:000009e8       ?minV4Error$initializer$@_VecMathTests@aos@shdfnd@physx@@3P6AXXZA 101469e8     GuPCMContactSphereSphere.obj
 0002:000009ec       ?maxV4Error$initializer$@_VecMathTests@aos@shdfnd@physx@@3P6AXXZA 101469ec     GuPCMContactSphereSphere.obj
 0002:000009f0       ?minFError$initializer$@_VecMathTests@aos@shdfnd@physx@@3P6AXXZA 101469f0     GuPCMShapeConvex.obj
 0002:000009f4       ?maxFError$initializer$@_VecMathTests@aos@shdfnd@physx@@3P6AXXZA 101469f4     GuPCMShapeConvex.obj
 0002:000009f8       ?minV3Error$initializer$@_VecMathTests@aos@shdfnd@physx@@3P6AXXZA 101469f8     GuPCMShapeConvex.obj
 0002:000009fc       ?maxV3Error$initializer$@_VecMathTests@aos@shdfnd@physx@@3P6AXXZA 101469fc     GuPCMShapeConvex.obj
 0002:00000a00       ?minV4Error$initializer$@_VecMathTests@aos@shdfnd@physx@@3P6AXXZA 10146a00     GuPCMShapeConvex.obj
 0002:00000a04       ?maxV4Error$initializer$@_VecMathTests@aos@shdfnd@physx@@3P6AXXZA 10146a04     GuPCMShapeConvex.obj
 0002:00000a08       ?minFError$initializer$@_VecMathTests@aos@shdfnd@physx@@3P6AXXZA 10146a08     GuPCMTriangleContactGen.obj
 0002:00000a0c       ?maxFError$initializer$@_VecMathTests@aos@shdfnd@physx@@3P6AXXZA 10146a0c     GuPCMTriangleContactGen.obj
 0002:00000a10       ?minV3Error$initializer$@_VecMathTests@aos@shdfnd@physx@@3P6AXXZA 10146a10     GuPCMTriangleContactGen.obj
 0002:00000a14       ?maxV3Error$initializer$@_VecMathTests@aos@shdfnd@physx@@3P6AXXZA 10146a14     GuPCMTriangleContactGen.obj
 0002:00000a18       ?minV4Error$initializer$@_VecMathTests@aos@shdfnd@physx@@3P6AXXZA 10146a18     GuPCMTriangleContactGen.obj
 0002:00000a1c       ?maxV4Error$initializer$@_VecMathTests@aos@shdfnd@physx@@3P6AXXZA 10146a1c     GuPCMTriangleContactGen.obj
 0002:00000a20       ?minFError$initializer$@_VecMathTests@aos@shdfnd@physx@@3P6AXXZA 10146a20     GuPersistentContactManifold.obj
 0002:00000a24       ?maxFError$initializer$@_VecMathTests@aos@shdfnd@physx@@3P6AXXZA 10146a24     GuPersistentContactManifold.obj
 0002:00000a28       ?minV3Error$initializer$@_VecMathTests@aos@shdfnd@physx@@3P6AXXZA 10146a28     GuPersistentContactManifold.obj
 0002:00000a2c       ?maxV3Error$initializer$@_VecMathTests@aos@shdfnd@physx@@3P6AXXZA 10146a2c     GuPersistentContactManifold.obj
 0002:00000a30       ?minV4Error$initializer$@_VecMathTests@aos@shdfnd@physx@@3P6AXXZA 10146a30     GuPersistentContactManifold.obj
 0002:00000a34       ?maxV4Error$initializer$@_VecMathTests@aos@shdfnd@physx@@3P6AXXZA 10146a34     GuPersistentContactManifold.obj
 0002:00000a38       ?minFError$initializer$@_VecMathTests@aos@shdfnd@physx@@3P6AXXZA 10146a38     GuSweepBoxBox.obj
 0002:00000a3c       ?maxFError$initializer$@_VecMathTests@aos@shdfnd@physx@@3P6AXXZA 10146a3c     GuSweepBoxBox.obj
 0002:00000a40       ?minV3Error$initializer$@_VecMathTests@aos@shdfnd@physx@@3P6AXXZA 10146a40     GuSweepBoxBox.obj
 0002:00000a44       ?maxV3Error$initializer$@_VecMathTests@aos@shdfnd@physx@@3P6AXXZA 10146a44     GuSweepBoxBox.obj
 0002:00000a48       ?minV4Error$initializer$@_VecMathTests@aos@shdfnd@physx@@3P6AXXZA 10146a48     GuSweepBoxBox.obj
 0002:00000a4c       ?maxV4Error$initializer$@_VecMathTests@aos@shdfnd@physx@@3P6AXXZA 10146a4c     GuSweepBoxBox.obj
 0002:00000a50       ?minFError$initializer$@_VecMathTests@aos@shdfnd@physx@@3P6AXXZA 10146a50     GuSweepBoxSphere.obj
 0002:00000a54       ?maxFError$initializer$@_VecMathTests@aos@shdfnd@physx@@3P6AXXZA 10146a54     GuSweepBoxSphere.obj
 0002:00000a58       ?minV3Error$initializer$@_VecMathTests@aos@shdfnd@physx@@3P6AXXZA 10146a58     GuSweepBoxSphere.obj
 0002:00000a5c       ?maxV3Error$initializer$@_VecMathTests@aos@shdfnd@physx@@3P6AXXZA 10146a5c     GuSweepBoxSphere.obj
 0002:00000a60       ?minV4Error$initializer$@_VecMathTests@aos@shdfnd@physx@@3P6AXXZA 10146a60     GuSweepBoxSphere.obj
 0002:00000a64       ?maxV4Error$initializer$@_VecMathTests@aos@shdfnd@physx@@3P6AXXZA 10146a64     GuSweepBoxSphere.obj
 0002:00000a68       ?minFError$initializer$@_VecMathTests@aos@shdfnd@physx@@3P6AXXZA 10146a68     GuSweepBoxTriangle_FeatureBased.obj
 0002:00000a6c       ?maxFError$initializer$@_VecMathTests@aos@shdfnd@physx@@3P6AXXZA 10146a6c     GuSweepBoxTriangle_FeatureBased.obj
 0002:00000a70       ?minV3Error$initializer$@_VecMathTests@aos@shdfnd@physx@@3P6AXXZA 10146a70     GuSweepBoxTriangle_FeatureBased.obj
 0002:00000a74       ?maxV3Error$initializer$@_VecMathTests@aos@shdfnd@physx@@3P6AXXZA 10146a74     GuSweepBoxTriangle_FeatureBased.obj
 0002:00000a78       ?minV4Error$initializer$@_VecMathTests@aos@shdfnd@physx@@3P6AXXZA 10146a78     GuSweepBoxTriangle_FeatureBased.obj
 0002:00000a7c       ?maxV4Error$initializer$@_VecMathTests@aos@shdfnd@physx@@3P6AXXZA 10146a7c     GuSweepBoxTriangle_FeatureBased.obj
 0002:00000a80       ?minFError$initializer$@_VecMathTests@aos@shdfnd@physx@@3P6AXXZA 10146a80     GuSweepBoxTriangle_SAT.obj
 0002:00000a84       ?maxFError$initializer$@_VecMathTests@aos@shdfnd@physx@@3P6AXXZA 10146a84     GuSweepBoxTriangle_SAT.obj
 0002:00000a88       ?minV3Error$initializer$@_VecMathTests@aos@shdfnd@physx@@3P6AXXZA 10146a88     GuSweepBoxTriangle_SAT.obj
 0002:00000a8c       ?maxV3Error$initializer$@_VecMathTests@aos@shdfnd@physx@@3P6AXXZA 10146a8c     GuSweepBoxTriangle_SAT.obj
 0002:00000a90       ?minV4Error$initializer$@_VecMathTests@aos@shdfnd@physx@@3P6AXXZA 10146a90     GuSweepBoxTriangle_SAT.obj
 0002:00000a94       ?maxV4Error$initializer$@_VecMathTests@aos@shdfnd@physx@@3P6AXXZA 10146a94     GuSweepBoxTriangle_SAT.obj
 0002:00000a98       ?minFError$initializer$@_VecMathTests@aos@shdfnd@physx@@3P6AXXZA 10146a98     GuSweepCapsuleBox.obj
 0002:00000a9c       ?maxFError$initializer$@_VecMathTests@aos@shdfnd@physx@@3P6AXXZA 10146a9c     GuSweepCapsuleBox.obj
 0002:00000aa0       ?minV3Error$initializer$@_VecMathTests@aos@shdfnd@physx@@3P6AXXZA 10146aa0     GuSweepCapsuleBox.obj
 0002:00000aa4       ?maxV3Error$initializer$@_VecMathTests@aos@shdfnd@physx@@3P6AXXZA 10146aa4     GuSweepCapsuleBox.obj
 0002:00000aa8       ?minV4Error$initializer$@_VecMathTests@aos@shdfnd@physx@@3P6AXXZA 10146aa8     GuSweepCapsuleBox.obj
 0002:00000aac       ?maxV4Error$initializer$@_VecMathTests@aos@shdfnd@physx@@3P6AXXZA 10146aac     GuSweepCapsuleBox.obj
 0002:00000ab0       ?minFError$initializer$@_VecMathTests@aos@shdfnd@physx@@3P6AXXZA 10146ab0     GuSweepCapsuleTriangle.obj
 0002:00000ab4       ?maxFError$initializer$@_VecMathTests@aos@shdfnd@physx@@3P6AXXZA 10146ab4     GuSweepCapsuleTriangle.obj
 0002:00000ab8       ?minV3Error$initializer$@_VecMathTests@aos@shdfnd@physx@@3P6AXXZA 10146ab8     GuSweepCapsuleTriangle.obj
 0002:00000abc       ?maxV3Error$initializer$@_VecMathTests@aos@shdfnd@physx@@3P6AXXZA 10146abc     GuSweepCapsuleTriangle.obj
 0002:00000ac0       ?minV4Error$initializer$@_VecMathTests@aos@shdfnd@physx@@3P6AXXZA 10146ac0     GuSweepCapsuleTriangle.obj
 0002:00000ac4       ?maxV4Error$initializer$@_VecMathTests@aos@shdfnd@physx@@3P6AXXZA 10146ac4     GuSweepCapsuleTriangle.obj
 0002:00000ac8       ?minFError$initializer$@_VecMathTests@aos@shdfnd@physx@@3P6AXXZA 10146ac8     GuSweepSphereTriangle.obj
 0002:00000acc       ?maxFError$initializer$@_VecMathTests@aos@shdfnd@physx@@3P6AXXZA 10146acc     GuSweepSphereTriangle.obj
 0002:00000ad0       ?minV3Error$initializer$@_VecMathTests@aos@shdfnd@physx@@3P6AXXZA 10146ad0     GuSweepSphereTriangle.obj
 0002:00000ad4       ?maxV3Error$initializer$@_VecMathTests@aos@shdfnd@physx@@3P6AXXZA 10146ad4     GuSweepSphereTriangle.obj
 0002:00000ad8       ?minV4Error$initializer$@_VecMathTests@aos@shdfnd@physx@@3P6AXXZA 10146ad8     GuSweepSphereTriangle.obj
 0002:00000adc       ?maxV4Error$initializer$@_VecMathTests@aos@shdfnd@physx@@3P6AXXZA 10146adc     GuSweepSphereTriangle.obj
 0002:00000ae0       ?minFError$initializer$@_VecMathTests@aos@shdfnd@physx@@3P6AXXZA 10146ae0     GuSweepTriangleUtils.obj
 0002:00000ae4       ?maxFError$initializer$@_VecMathTests@aos@shdfnd@physx@@3P6AXXZA 10146ae4     GuSweepTriangleUtils.obj
 0002:00000ae8       ?minV3Error$initializer$@_VecMathTests@aos@shdfnd@physx@@3P6AXXZA 10146ae8     GuSweepTriangleUtils.obj
 0002:00000aec       ?maxV3Error$initializer$@_VecMathTests@aos@shdfnd@physx@@3P6AXXZA 10146aec     GuSweepTriangleUtils.obj
 0002:00000af0       ?minV4Error$initializer$@_VecMathTests@aos@shdfnd@physx@@3P6AXXZA 10146af0     GuSweepTriangleUtils.obj
 0002:00000af4       ?maxV4Error$initializer$@_VecMathTests@aos@shdfnd@physx@@3P6AXXZA 10146af4     GuSweepTriangleUtils.obj
 0002:00001050       ?minus1w@?A0x5711ffe2@aos@shdfnd@physx@@3QBMB 10147050     GuBounds.obj
 0002:00001060       ?gMaskXYZ@internalWindowsSimd@aos@shdfnd@physx@@3QBIB 10147060     GuBounds.obj
 0002:00001240       ?minus1w@?A0xfd077a75@aos@shdfnd@physx@@3QBMB 10147240     GuBox.obj
 0002:00001250       ?gMaskXYZ@internalWindowsSimd@aos@shdfnd@physx@@3QBIB 10147250     GuBox.obj
 0002:00001270       ?minus1w@?A0x1b658473@aos@shdfnd@physx@@3QBMB 10147270     GuCCTSweepTests.obj
 0002:00001280       ?gMaskXYZ@internalWindowsSimd@aos@shdfnd@physx@@3QBIB 10147280     GuCCTSweepTests.obj
 0002:00001298       ??_7LocalReport@?1??sweepBox_HeightFieldGeom_Precise@@YA_NABVPxGeometry@physx@@ABVPxTransform@3@ABVPxBoxGeometry@3@1ABVBox@Gu@3@ABVPxVec3@3@MAAUPxSweepHit@3@V?$PxFlags@W4Enum@PxHitFlag@physx@@G@3@M@Z@6B@ 10147298     GuCCTSweepTests.obj
 0002:000012b0       ?minus1w@?A0x7de26cc9@aos@shdfnd@physx@@3QBMB 101472b0     GuGeometryQuery.obj
 0002:000012c0       ?gMaskXYZ@internalWindowsSimd@aos@shdfnd@physx@@3QBIB 101472c0     GuGeometryQuery.obj
 0002:000012e0       ?minus1w@?A0x15e9ca7d@aos@shdfnd@physx@@3QBMB 101472e0     GuGeometryUnion.obj
 0002:000012f0       ?gMaskXYZ@internalWindowsSimd@aos@shdfnd@physx@@3QBIB 101472f0     GuGeometryUnion.obj
